EXPORTS
    BZ2_blockSort @1
    BZ2_bsInitWrite @2
    BZ2_bzBuffToBuffCompress@28 @3
    BZ2_bzBuffToBuffDecompress@24 @4
    BZ2_bzCompress@8 @5
    BZ2_bzCompressEnd@4 @6
    BZ2_bzCompressInit@16 @7
    BZ2_bzDecompress@4 @8
    BZ2_bzDecompressEnd@4 @9
    BZ2_bzDecompressInit@12 @10
    BZ2_bzlibVersion@0 @11
    BZ2_compressBlock @12
    BZ2_crc32Table @13 DATA
    BZ2_decompress @14
    BZ2_hbAssignCodes @15
    BZ2_hbCreateDecodeTables @16
    BZ2_hbMakeCodeLengths @17
    BZ2_indexIntoF @18
    BZ2_rNums @19 DATA
    DeviceToClose @20 DATA
    LzmaDec_Allocate @21
    LzmaDec_AllocateProbs @22
    LzmaDec_DecodeToBuf @23
    LzmaDec_DecodeToDic @24
    LzmaDec_Free @25
    LzmaDec_FreeProbs @26
    LzmaDec_Init @27
    LzmaDec_InitDicAndState @28
    LzmaDecode @29
    LzmaProps_Decode @30
    _Z10derive_keyPKhjS0_jjPhj @31
    _Z10fcrypt_endPhP10fcrypt_ctx @32
    _Z10sha1_beginP8sha1_ctx @33
    _Z10sha256_endPhP10sha256_ctx @34
    _Z10sha2_beginmP8sha2_ctx @35
    _Z10sha384_endPhP10sha512_ctx @36
    _Z10sha512_endPhP10sha512_ctx @37
    _Z11aes_decryptPKvPvPK15aes_decrypt_ctx @38
    _Z11aes_encryptPKvPvPK15aes_encrypt_ctx @39
    _Z11fcrypt_initiPKhjS0_PhP10fcrypt_ctx @40
    _Z11sha256_hashPKhmP10sha256_ctx @41
    _Z11sha512_hashPKhmP10sha512_ctx @42
    _Z12hmac_sha_endPhmP8hmac_ctx @43
    _Z12hmac_sha_keyPKhmP8hmac_ctx @44
    _Z12sha1_compileP8sha1_ctx @45
    _Z12sha256_beginP10sha256_ctx @46
    _Z12sha384_beginP10sha512_ctx @47
    _Z12sha512_beginP10sha512_ctx @48
    _Z13hmac_sha_dataPKhmP8hmac_ctx @49
    _Z14fcrypt_decryptPhjP10fcrypt_ctx @50
    _Z14fcrypt_encryptPhjP10fcrypt_ctx @51
    _Z14hmac_sha_beginP8hmac_ctx @52
    _Z14sha256_compileP10sha256_ctx @53
    _Z14sha512_compileP10sha512_ctx @54
    _Z15aes_decrypt_keyPKviP15aes_decrypt_ctx @55
    _Z15aes_encrypt_keyPKviP15aes_encrypt_ctx @56
    _Z17getDeviceFromHWndP6HWND__ @57
    _Z18aes_decrypt_key128PKvP15aes_decrypt_ctx @58
    _Z18aes_decrypt_key192PKvP15aes_decrypt_ctx @59
    _Z18aes_decrypt_key256PKvP15aes_decrypt_ctx @60
    _Z18aes_encrypt_key128PKvP15aes_encrypt_ctx @61
    _Z18aes_encrypt_key192PKvP15aes_encrypt_ctx @62
    _Z18aes_encrypt_key256PKvP15aes_encrypt_ctx @63
    _Z4sha1PhPKhm @64
    _Z4sha2PhmPKhm @65
    _Z6sha256PhPKhm @66
    _Z6sha384PhPKhm @67
    _Z6sha512PhPKhm @68
    _Z7DllMainPvmS_@12 @69
    _Z7WndProcP6HWND__jjl@16 @70
    _Z8gen_tabsv @71
    _Z8hmac_shaPKhmS0_mPhm @72
    _Z8prng_endP8prng_ctx @73
    _Z8sha1_endPhP8sha1_ctx @74
    _Z8sha2_endPhP8sha2_ctx @75
    _Z9prng_initPFiPhjEP8prng_ctx @76
    _Z9prng_randPhjP8prng_ctx @77
    _Z9sha1_hashPKhmP8sha1_ctx @78
    _Z9sha2_hashPKhmP8sha2_ctx @79
    _ZN3irr11COSOperatorC1EPKc @80
    _ZN3irr11COSOperatorC2EPKc @81
    _ZN3irr11COSOperatorD0Ev @82
    _ZN3irr11COSOperatorD1Ev @83
    _ZN3irr11IOSOperatorD0Ev @84
    _ZN3irr11IOSOperatorD1Ev @85
    _ZN3irr14CIrrDeviceStub12checkVersionEPKc @86
    _ZN3irr14CIrrDeviceStub12getGammaRampERfS1_S1_S1_S1_ @87
    _ZN3irr14CIrrDeviceStub12setGammaRampEfffff @88
    _ZN3irr14CIrrDeviceStub13getFileSystemEv @89
    _ZN3irr14CIrrDeviceStub13getOSOperatorEv @90
    _ZN3irr14CIrrDeviceStub14getVideoDriverEv @91
    _ZN3irr14CIrrDeviceStub15getSceneManagerEv @92
    _ZN3irr14CIrrDeviceStub16getCursorControlEv @93
    _ZN3irr14CIrrDeviceStub16getEventReceiverEv @94
    _ZN3irr14CIrrDeviceStub16getVideoModeListEv @95
    _ZN3irr14CIrrDeviceStub16setEventReceiverEPNS_14IEventReceiverE @96
    _ZN3irr14CIrrDeviceStub17activateJoysticksERNS_4core5arrayINS_13SJoystickInfoENS1_12irrAllocatorIS3_EEEE @97
    _ZN3irr14CIrrDeviceStub17createGUIAndSceneEv @98
    _ZN3irr14CIrrDeviceStub17getGUIEnvironmentEv @99
    _ZN3irr14CIrrDeviceStub17postEventFromUserERKNS_6SEventE @100
    _ZN3irr14CIrrDeviceStub18calculateGammaRampEPtfff @101
    _ZN3irr14CIrrDeviceStub18setDoubleClickTimeEj @102
    _ZN3irr14CIrrDeviceStub19clearSystemMessagesEv @103
    _ZN3irr14CIrrDeviceStub21checkSuccessiveClicksEiiNS_18EMOUSE_INPUT_EVENTE @104
    _ZN3irr14CIrrDeviceStub22calculateGammaFromRampERfPKt @105
    _ZN3irr14CIrrDeviceStub29setInputReceivingSceneManagerEPNS_5scene13ISceneManagerE @106
    _ZN3irr14CIrrDeviceStub8getTimerEv @107
    _ZN3irr14CIrrDeviceStub9getLoggerEv @108
    _ZN3irr14CIrrDeviceStubC1ERKNS_27SIrrlichtCreationParametersE @109
    _ZN3irr14CIrrDeviceStubC2ERKNS_27SIrrlichtCreationParametersE @110
    _ZN3irr14CIrrDeviceStubD0Ev @111
    _ZN3irr14CIrrDeviceStubD1Ev @112
    _ZN3irr14CIrrDeviceStubD2Ev @113
    _ZN3irr14IEventReceiverD0Ev @114
    _ZN3irr14IEventReceiverD1Ev @115
    _ZN3irr14IrrlichtDeviceD0Ev @116
    _ZN3irr14IrrlichtDeviceD1Ev @117
    _ZN3irr15CIrrDeviceWin3211closeDeviceEv @118
    _ZN3irr15CIrrDeviceWin3212createDriverEv @119
    _ZN3irr15CIrrDeviceWin3212getGammaRampERfS1_S1_S1_S1_ @120
    _ZN3irr15CIrrDeviceWin3212setGammaRampEfffff @121
    _ZN3irr15CIrrDeviceWin3212setResizableEb @122
    _ZN3irr15CIrrDeviceWin3213pollJoysticksEv @123
    _ZN3irr15CIrrDeviceWin3213restoreWindowEv @124
    _ZN3irr15CIrrDeviceWin3214CCursorControl10setVisibleEb @125
    _ZN3irr15CIrrDeviceWin3214CCursorControl11getPositionEv @126
    _ZN3irr15CIrrDeviceWin3214CCursorControl11setPositionERKNS_4core8vector2dIfEE @127
    _ZN3irr15CIrrDeviceWin3214CCursorControl11setPositionERKNS_4core8vector2dIiEE @128
    _ZN3irr15CIrrDeviceWin3214CCursorControl11setPositionEff @129
    _ZN3irr15CIrrDeviceWin3214CCursorControl11setPositionEii @130
    _ZN3irr15CIrrDeviceWin3214CCursorControl16setReferenceRectEPNS_4core4rectIiEE @131
    _ZN3irr15CIrrDeviceWin3214CCursorControl19getRelativePositionEv @132
    _ZN3irr15CIrrDeviceWin3214CCursorControl8OnResizeERKNS_4core11dimension2dIjEE @133
    _ZN3irr15CIrrDeviceWin3214CCursorControlD0Ev @134
    _ZN3irr15CIrrDeviceWin3214CCursorControlD1Ev @135
    _ZN3irr15CIrrDeviceWin3214maximizeWindowEv @136
    _ZN3irr15CIrrDeviceWin3214minimizeWindowEv @137
    _ZN3irr15CIrrDeviceWin3216getVideoModeListEv @138
    _ZN3irr15CIrrDeviceWin3216setWindowCaptionEPKw @139
    _ZN3irr15CIrrDeviceWin3217activateJoysticksERNS_4core5arrayINS_13SJoystickInfoENS1_12irrAllocatorIS3_EEEE @140
    _ZN3irr15CIrrDeviceWin3217getWindowsVersionERNS_4core6stringIcNS1_12irrAllocatorIcEEEE @141
    _ZN3irr15CIrrDeviceWin3217resizeIfNecessaryEv @142
    _ZN3irr15CIrrDeviceWin3218switchToFullScreenEb @143
    _ZN3irr15CIrrDeviceWin3219clearSystemMessagesEv @144
    _ZN3irr15CIrrDeviceWin3221ReportLastWinApiErrorEv @145
    _ZN3irr15CIrrDeviceWin3221checkSuccessiveClicksEiiNS_18EMOUSE_INPUT_EVENTE @146
    _ZN3irr15CIrrDeviceWin3221getWin32CursorControlEv @147
    _ZN3irr15CIrrDeviceWin323runEv @148
    _ZN3irr15CIrrDeviceWin325sleepEjb @149
    _ZN3irr15CIrrDeviceWin325yieldEv @150
    _ZN3irr15CIrrDeviceWin327presentEPNS_5video6IImageEPvPNS_4core4rectIiEE @151
    _ZN3irr15CIrrDeviceWin329OnResizedEv @152
    _ZN3irr15CIrrDeviceWin32C1ERKNS_27SIrrlichtCreationParametersE @153
    _ZN3irr15CIrrDeviceWin32C2ERKNS_27SIrrlichtCreationParametersE @154
    _ZN3irr15CIrrDeviceWin32D0Ev @155
    _ZN3irr15CIrrDeviceWin32D1Ev @156
    _ZN3irr15CIrrDeviceWin32D2Ev @157
    _ZN3irr17CIrrDeviceConsole11closeDeviceEv @158
    _ZN3irr17CIrrDeviceConsole12setResizableEb @159
    _ZN3irr17CIrrDeviceConsole13restoreWindowEv @160
    _ZN3irr17CIrrDeviceConsole14maximizeWindowEv @161
    _ZN3irr17CIrrDeviceConsole14minimizeWindowEv @162
    _ZN3irr17CIrrDeviceConsole16setTextCursorPosEss @163
    _ZN3irr17CIrrDeviceConsole16setWindowCaptionEPKw @164
    _ZN3irr17CIrrDeviceConsole18addPostPresentTextEssPKw @165
    _ZN3irr17CIrrDeviceConsole3runEv @166
    _ZN3irr17CIrrDeviceConsole5sleepEjb @167
    _ZN3irr17CIrrDeviceConsole5yieldEv @168
    _ZN3irr17CIrrDeviceConsole7presentEPNS_5video6IImageEPvPNS_4core4rectIiEE @169
    _ZN3irr17CIrrDeviceConsoleC1ERKNS_27SIrrlichtCreationParametersE @170
    _ZN3irr17CIrrDeviceConsoleC2ERKNS_27SIrrlichtCreationParametersE @171
    _ZN3irr17CIrrDeviceConsoleD0Ev @172
    _ZN3irr17CIrrDeviceConsoleD1Ev @173
    _ZN3irr17CIrrDeviceConsoleD2Ev @174
    _ZN3irr17IReferenceCountedD0Ev @175
    _ZN3irr17IReferenceCountedD1Ev @176
    _ZN3irr2io10CNPKReader10readStringERNS_4core6stringIcNS2_12irrAllocatorIcEEEE @177
    _ZN3irr2io10CNPKReader15scanLocalHeaderEv @178
    _ZN3irr2io10CNPKReader17createAndOpenFileERKNS_4core6stringIcNS2_12irrAllocatorIcEEEE @179
    _ZN3irr2io10CNPKReader17createAndOpenFileEj @180
    _ZN3irr2io10CNPKReaderC1EPNS0_9IReadFileEbb @181
    _ZN3irr2io10CNPKReaderC2EPNS0_9IReadFileEbb @182
    _ZN3irr2io10CNPKReaderD0Ev @183
    _ZN3irr2io10CNPKReaderD1Ev @184
    _ZN3irr2io10CNPKReaderD2Ev @185
    _ZN3irr2io10CPakReader15scanLocalHeaderEv @186
    _ZN3irr2io10CPakReader17createAndOpenFileERKNS_4core6stringIcNS2_12irrAllocatorIcEEEE @187
    _ZN3irr2io10CPakReader17createAndOpenFileEj @188
    _ZN3irr2io10CPakReaderC1EPNS0_9IReadFileEbb @189
    _ZN3irr2io10CPakReaderC2EPNS0_9IReadFileEbb @190
    _ZN3irr2io10CPakReaderD0Ev @191
    _ZN3irr2io10CPakReaderD1Ev @192
    _ZN3irr2io10CPakReaderD2Ev @193
    _ZN3irr2io10CTarReader16populateFileListEv @194
    _ZN3irr2io10CTarReader17createAndOpenFileERKNS_4core6stringIcNS2_12irrAllocatorIcEEEE @195
    _ZN3irr2io10CTarReader17createAndOpenFileEj @196
    _ZN3irr2io10CTarReaderC1EPNS0_9IReadFileEbb @197
    _ZN3irr2io10CTarReaderC2EPNS0_9IReadFileEbb @198
    _ZN3irr2io10CTarReaderD0Ev @199
    _ZN3irr2io10CTarReaderD1Ev @200
    _ZN3irr2io10CTarReaderD2Ev @201
    _ZN3irr2io10CWriteFile4seekElb @202
    _ZN3irr2io10CWriteFile5writeEPKvj @203
    _ZN3irr2io10CWriteFile8openFileEb @204
    _ZN3irr2io10CWriteFileC1ERKNS_4core6stringIcNS2_12irrAllocatorIcEEEEb @205
    _ZN3irr2io10CWriteFileC2ERKNS_4core6stringIcNS2_12irrAllocatorIcEEEEb @206
    _ZN3irr2io10CWriteFileD0Ev @207
    _ZN3irr2io10CWriteFileD1Ev @208
    _ZN3irr2io10CWriteFileD2Ev @209
    _ZN3irr2io10CXMLWriter12writeCommentEPKw @210
    _ZN3irr2io10CXMLWriter12writeElementEPKwbRNS_4core5arrayINS4_6stringIwNS4_12irrAllocatorIwEEEENS7_IS9_EEEESC_ @211
    _ZN3irr2io10CXMLWriter12writeElementEPKwbS3_S3_S3_S3_S3_S3_S3_S3_S3_S3_ @212
    _ZN3irr2io10CXMLWriter14writeAttributeEPKwS3_ @213
    _ZN3irr2io10CXMLWriter14writeLineBreakEv @214
    _ZN3irr2io10CXMLWriter14writeXMLHeaderEv @215
    _ZN3irr2io10CXMLWriter15writeClosingTagEPKw @216
    _ZN3irr2io10CXMLWriter9writeTextEPKw @217
    _ZN3irr2io10CXMLWriterC1EPNS0_10IWriteFileE @218
    _ZN3irr2io10CXMLWriterC2EPNS0_10IWriteFileE @219
    _ZN3irr2io10CXMLWriterD0Ev @220
    _ZN3irr2io10CXMLWriterD1Ev @221
    _ZN3irr2io10CXMLWriterD2Ev @222
    _ZN3irr2io10CZipReader13scanZipHeaderEv @223
    _ZN3irr2io10CZipReader14scanGZipHeaderEv @224
    _ZN3irr2io10CZipReader17createAndOpenFileERKNS_4core6stringIcNS2_12irrAllocatorIcEEEE @225
    _ZN3irr2io10CZipReader17createAndOpenFileEj @226
    _ZN3irr2io10CZipReaderC1EPNS0_9IReadFileEbbb @227
    _ZN3irr2io10CZipReaderC2EPNS0_9IReadFileEbbb @228
    _ZN3irr2io10CZipReaderD0Ev @229
    _ZN3irr2io10CZipReaderD1Ev @230
    _ZN3irr2io10CZipReaderD2Ev @231
    _ZN3irr2io10IAttribute10getLine2diEv @232
    _ZN3irr2io10IAttribute10getLine3diEv @233
    _ZN3irr2io10IAttribute10getStringWEv @234
    _ZN3irr2io10IAttribute10getTextureEv @235
    _ZN3irr2io10IAttribute10setTextureEPNS_5video8ITextureE @236
    _ZN3irr2io10IAttribute11getPositionEv @237
    _ZN3irr2io10IAttribute11getTriangleEv @238
    _ZN3irr2io10IAttribute11getVector2dEv @239
    _ZN3irr2io10IAttribute11setPositionENS_4core8vector2dIiEE @240
    _ZN3irr2io10IAttribute11setTriangleENS_4core10triangle3dIfEE @241
    _ZN3irr2io10IAttribute11setVector2dENS_4core8vector2dIfEE @242
    _ZN3irr2io10IAttribute11setVector2dENS_4core8vector2dIiEE @243
    _ZN3irr2io10IAttribute12getVector2diEv @244
    _ZN3irr2io10IAttribute13getQuaternionEv @245
    _ZN3irr2io10IAttribute13setQuaternionENS_4core10quaternionE @246
    _ZN3irr2io10IAttribute14getDimension2dEv @247
    _ZN3irr2io10IAttribute14getUserPointerEv @248
    _ZN3irr2io10IAttribute14setDimension2dENS_4core11dimension2dIjEE @249
    _ZN3irr2io10IAttribute14setUserPointerEPv @250
    _ZN3irr2io10IAttribute6getIntEv @251
    _ZN3irr2io10IAttribute6setIntEi @252
    _ZN3irr2io10IAttribute7getBBoxEv @253
    _ZN3irr2io10IAttribute7getBoolEv @254
    _ZN3irr2io10IAttribute7getEnumEv @255
    _ZN3irr2io10IAttribute7getRectEv @256
    _ZN3irr2io10IAttribute7setBBoxENS_4core8aabbox3dIfEE @257
    _ZN3irr2io10IAttribute7setBoolEb @258
    _ZN3irr2io10IAttribute7setEnumEPKcPKS3_ @259
    _ZN3irr2io10IAttribute7setRectENS_4core4rectIiEE @260
    _ZN3irr2io10IAttribute8getArrayEv @261
    _ZN3irr2io10IAttribute8getColorEv @262
    _ZN3irr2io10IAttribute8getFloatEv @263
    _ZN3irr2io10IAttribute8getPlaneEv @264
    _ZN3irr2io10IAttribute8setArrayERKNS_4core5arrayINS2_6stringIwNS2_12irrAllocatorIwEEEENS5_IS7_EEEE @265
    _ZN3irr2io10IAttribute8setColorENS_5video6SColorE @266
    _ZN3irr2io10IAttribute8setColorENS_5video7SColorfE @267
    _ZN3irr2io10IAttribute8setFloatEf @268
    _ZN3irr2io10IAttribute8setPlaneENS_4core7plane3dIfEE @269
    _ZN3irr2io10IAttribute9getBinaryEPvi @270
    _ZN3irr2io10IAttribute9getColorfEv @271
    _ZN3irr2io10IAttribute9getLine2dEv @272
    _ZN3irr2io10IAttribute9getLine3dEv @273
    _ZN3irr2io10IAttribute9getMatrixEv @274
    _ZN3irr2io10IAttribute9getStringEv @275
    _ZN3irr2io10IAttribute9getVectorEv @276
    _ZN3irr2io10IAttribute9setBinaryEPvi @277
    _ZN3irr2io10IAttribute9setLine2dENS_4core6line2dIfEE @278
    _ZN3irr2io10IAttribute9setLine2dENS_4core6line2dIiEE @279
    _ZN3irr2io10IAttribute9setLine3dENS_4core6line3dIfEE @280
    _ZN3irr2io10IAttribute9setLine3dENS_4core6line3dIiEE @281
    _ZN3irr2io10IAttribute9setMatrixENS_4core8CMatrix4IfEE @282
    _ZN3irr2io10IAttribute9setStringEPKc @283
    _ZN3irr2io10IAttribute9setStringEPKw @284
    _ZN3irr2io10IAttribute9setVectorENS_4core8vector3dIfEE @285
    _ZN3irr2io10IAttributeD0Ev @286
    _ZN3irr2io10IAttributeD1Ev @287
    _ZN3irr2io10IAttributeD2Ev @288
    _ZN3irr2io10IWriteFileD0Ev @289
    _ZN3irr2io10IWriteFileD1Ev @290
    _ZN3irr2io10IXMLWriterD0Ev @291
    _ZN3irr2io10IXMLWriterD1Ev @292
    _ZN3irr2io10SNamedPath7setPathERKNS_4core6stringIcNS2_12irrAllocatorIcEEEE @293
    _ZN3irr2io10SNamedPathC1ERKS1_ @294
    _ZN3irr2io10SNamedPathC1Ev @295
    _ZN3irr2io10SNamedPathD1Ev @296
    _ZN3irr2io11CAttributes10addPlane3dEPKcNS_4core7plane3dIfEE @297
    _ZN3irr2io11CAttributes10addTextureEPKcPNS_5video8ITextureE @298
    _ZN3irr2io11CAttributes11addVector3dEPKcNS_4core8vector3dIfEE @299
    _ZN3irr2io11CAttributes12setAttributeEPKcNS_4core10quaternionE @300
    _ZN3irr2io11CAttributes12setAttributeEPKcNS_4core10triangle3dIfEE @301
    _ZN3irr2io11CAttributes12setAttributeEPKcNS_4core4rectIiEE @302
    _ZN3irr2io11CAttributes12setAttributeEPKcNS_4core6line2dIfEE @303
    _ZN3irr2io11CAttributes12setAttributeEPKcNS_4core6line3dIfEE @304
    _ZN3irr2io11CAttributes12setAttributeEPKcNS_4core7plane3dIfEE @305
    _ZN3irr2io11CAttributes12setAttributeEPKcNS_4core8aabbox3dIfEE @306
    _ZN3irr2io11CAttributes12setAttributeEPKcNS_4core8vector2dIiEE @307
    _ZN3irr2io11CAttributes12setAttributeEPKcNS_4core8vector3dIfEE @308
    _ZN3irr2io11CAttributes12setAttributeEPKcNS_5video6SColorE @309
    _ZN3irr2io11CAttributes12setAttributeEPKcNS_5video7SColorfE @310
    _ZN3irr2io11CAttributes12setAttributeEPKcPKw @311
    _ZN3irr2io11CAttributes12setAttributeEPKcPNS_5video8ITextureE @312
    _ZN3irr2io11CAttributes12setAttributeEPKcPv @313
    _ZN3irr2io11CAttributes12setAttributeEPKcPvi @314
    _ZN3irr2io11CAttributes12setAttributeEPKcRKNS_4core5arrayINS4_6stringIwNS4_12irrAllocatorIwEEEENS7_IS9_EEEE @315
    _ZN3irr2io11CAttributes12setAttributeEPKcRKNS_4core8CMatrix4IfEE @316
    _ZN3irr2io11CAttributes12setAttributeEPKcS3_ @317
    _ZN3irr2io11CAttributes12setAttributeEPKcS3_PKS3_ @318
    _ZN3irr2io11CAttributes12setAttributeEPKcb @319
    _ZN3irr2io11CAttributes12setAttributeEPKcf @320
    _ZN3irr2io11CAttributes12setAttributeEPKci @321
    _ZN3irr2io11CAttributes12setAttributeEiNS_4core10quaternionE @322
    _ZN3irr2io11CAttributes12setAttributeEiNS_4core10triangle3dIfEE @323
    _ZN3irr2io11CAttributes12setAttributeEiNS_4core4rectIiEE @324
    _ZN3irr2io11CAttributes12setAttributeEiNS_4core6line2dIfEE @325
    _ZN3irr2io11CAttributes12setAttributeEiNS_4core6line3dIfEE @326
    _ZN3irr2io11CAttributes12setAttributeEiNS_4core7plane3dIfEE @327
    _ZN3irr2io11CAttributes12setAttributeEiNS_4core8aabbox3dIfEE @328
    _ZN3irr2io11CAttributes12setAttributeEiNS_4core8vector2dIiEE @329
    _ZN3irr2io11CAttributes12setAttributeEiNS_4core8vector3dIfEE @330
    _ZN3irr2io11CAttributes12setAttributeEiNS_5video6SColorE @331
    _ZN3irr2io11CAttributes12setAttributeEiNS_5video7SColorfE @332
    _ZN3irr2io11CAttributes12setAttributeEiPKc @333
    _ZN3irr2io11CAttributes12setAttributeEiPKcPKS3_ @334
    _ZN3irr2io11CAttributes12setAttributeEiPKw @335
    _ZN3irr2io11CAttributes12setAttributeEiPNS_5video8ITextureE @336
    _ZN3irr2io11CAttributes12setAttributeEiPv @337
    _ZN3irr2io11CAttributes12setAttributeEiPvi @338
    _ZN3irr2io11CAttributes12setAttributeEiRKNS_4core5arrayINS2_6stringIwNS2_12irrAllocatorIwEEEENS5_IS7_EEEE @339
    _ZN3irr2io11CAttributes12setAttributeEiRKNS_4core8CMatrix4IfEE @340
    _ZN3irr2io11CAttributes12setAttributeEib @341
    _ZN3irr2io11CAttributes12setAttributeEif @342
    _ZN3irr2io11CAttributes12setAttributeEii @343
    _ZN3irr2io11CAttributes13addPosition2dEPKcNS_4core8vector2dIiEE @344
    _ZN3irr2io11CAttributes13addQuaternionEPKcNS_4core10quaternionE @345
    _ZN3irr2io11CAttributes13addTriangle3dEPKcNS_4core10triangle3dIfEE @346
    _ZN3irr2io11CAttributes13findAttributeEPKc @347
    _ZN3irr2io11CAttributes13getAttributePEPKc @348
    _ZN3irr2io11CAttributes14addUserPointerEPKcPv @349
    _ZN3irr2io11CAttributes15existsAttributeEPKc @350
    _ZN3irr2io11CAttributes16getAttributeNameEi @351
    _ZN3irr2io11CAttributes16getAttributeTypeEPKc @352
    _ZN3irr2io11CAttributes16getAttributeTypeEi @353
    _ZN3irr2io11CAttributes17getAttributeAsIntEPKc @354
    _ZN3irr2io11CAttributes17getAttributeAsIntEi @355
    _ZN3irr2io11CAttributes18getAttributeAsBoolEPKc @356
    _ZN3irr2io11CAttributes18getAttributeAsBoolEi @357
    _ZN3irr2io11CAttributes18getAttributeAsRectEPKc @358
    _ZN3irr2io11CAttributes18getAttributeAsRectEi @359
    _ZN3irr2io11CAttributes19getAttributeAsArrayEPKc @360
    _ZN3irr2io11CAttributes19getAttributeAsArrayEi @361
    _ZN3irr2io11CAttributes19getAttributeAsBox3dEPKc @362
    _ZN3irr2io11CAttributes19getAttributeAsBox3dEi @363
    _ZN3irr2io11CAttributes19getAttributeAsColorEPKc @364
    _ZN3irr2io11CAttributes19getAttributeAsColorEi @365
    _ZN3irr2io11CAttributes19getAttributeAsFloatEPKc @366
    _ZN3irr2io11CAttributes19getAttributeAsFloatEi @367
    _ZN3irr2io11CAttributes20getAttributeAsColorfEPKc @368
    _ZN3irr2io11CAttributes20getAttributeAsColorfEi @369
    _ZN3irr2io11CAttributes20getAttributeAsLine2dEPKc @370
    _ZN3irr2io11CAttributes20getAttributeAsLine2dEi @371
    _ZN3irr2io11CAttributes20getAttributeAsLine3dEPKc @372
    _ZN3irr2io11CAttributes20getAttributeAsLine3dEi @373
    _ZN3irr2io11CAttributes20getAttributeAsMatrixEPKc @374
    _ZN3irr2io11CAttributes20getAttributeAsMatrixEi @375
    _ZN3irr2io11CAttributes20getAttributeAsStringEPKc @376
    _ZN3irr2io11CAttributes20getAttributeAsStringEPKcPc @377
    _ZN3irr2io11CAttributes20getAttributeAsStringEi @378
    _ZN3irr2io11CAttributes20readAttributeFromXMLEPNS0_13IIrrXMLReaderIwNS_17IReferenceCountedEEE @379
    _ZN3irr2io11CAttributes21getAttributeAsPlane3dEPKc @380
    _ZN3irr2io11CAttributes21getAttributeAsPlane3dEi @381
    _ZN3irr2io11CAttributes21getAttributeAsStringWEPKc @382
    _ZN3irr2io11CAttributes21getAttributeAsStringWEPKcPw @383
    _ZN3irr2io11CAttributes21getAttributeAsStringWEi @384
    _ZN3irr2io11CAttributes21getAttributeAsTextureEPKc @385
    _ZN3irr2io11CAttributes21getAttributeAsTextureEi @386
    _ZN3irr2io11CAttributes22getAttributeAsVector3dEPKc @387
    _ZN3irr2io11CAttributes22getAttributeAsVector3dEi @388
    _ZN3irr2io11CAttributes22getAttributeTypeStringEPKc @389
    _ZN3irr2io11CAttributes22getAttributeTypeStringEi @390
    _ZN3irr2io11CAttributes24getAttributeAsBinaryDataEPKcPvi @391
    _ZN3irr2io11CAttributes24getAttributeAsBinaryDataEiPvi @392
    _ZN3irr2io11CAttributes24getAttributeAsPosition2dEPKc @393
    _ZN3irr2io11CAttributes24getAttributeAsPosition2dEi @394
    _ZN3irr2io11CAttributes24getAttributeAsQuaternionEPKc @395
    _ZN3irr2io11CAttributes24getAttributeAsQuaternionEi @396
    _ZN3irr2io11CAttributes24getAttributeAsTriangle3dEPKc @397
    _ZN3irr2io11CAttributes24getAttributeAsTriangle3dEi @398
    _ZN3irr2io11CAttributes25getAttributeAsEnumerationEPKc @399
    _ZN3irr2io11CAttributes25getAttributeAsEnumerationEPKcPKS3_ @400
    _ZN3irr2io11CAttributes25getAttributeAsEnumerationEi @401
    _ZN3irr2io11CAttributes25getAttributeAsEnumerationEiPKPKc @402
    _ZN3irr2io11CAttributes25getAttributeAsUserPointerEPKc @403
    _ZN3irr2io11CAttributes25getAttributeAsUserPointerEi @404
    _ZN3irr2io11CAttributes44getAttributeEnumerationLiteralsOfEnumerationEPKcRNS_4core5arrayINS4_6stringIcNS4_12irrAllocatorIcEEEENS7_IS9_EEEE @405
    _ZN3irr2io11CAttributes44getAttributeEnumerationLiteralsOfEnumerationEiRNS_4core5arrayINS2_6stringIcNS2_12irrAllocatorIcEEEENS5_IS7_EEEE @406
    _ZN3irr2io11CAttributes4readEPNS0_13IIrrXMLReaderIwNS_17IReferenceCountedEEEbPKw @407
    _ZN3irr2io11CAttributes5clearEv @408
    _ZN3irr2io11CAttributes5writeEPNS0_10IXMLWriterEbPKw @409
    _ZN3irr2io11CAttributes6addIntEPKci @410
    _ZN3irr2io11CAttributes7addBoolEPKcb @411
    _ZN3irr2io11CAttributes7addEnumEPKcS3_PKS3_ @412
    _ZN3irr2io11CAttributes7addEnumEPKciPKS3_ @413
    _ZN3irr2io11CAttributes7addRectEPKcNS_4core4rectIiEE @414
    _ZN3irr2io11CAttributes8addArrayEPKcRKNS_4core5arrayINS4_6stringIwNS4_12irrAllocatorIwEEEENS7_IS9_EEEE @415
    _ZN3irr2io11CAttributes8addBox3dEPKcNS_4core8aabbox3dIfEE @416
    _ZN3irr2io11CAttributes8addColorEPKcNS_5video6SColorE @417
    _ZN3irr2io11CAttributes8addFloatEPKcf @418
    _ZN3irr2io11CAttributes9addBinaryEPKcPvi @419
    _ZN3irr2io11CAttributes9addColorfEPKcNS_5video7SColorfE @420
    _ZN3irr2io11CAttributes9addLine2dEPKcNS_4core6line2dIfEE @421
    _ZN3irr2io11CAttributes9addLine3dEPKcNS_4core6line3dIfEE @422
    _ZN3irr2io11CAttributes9addMatrixEPKcRKNS_4core8CMatrix4IfEE @423
    _ZN3irr2io11CAttributes9addStringEPKcPKw @424
    _ZN3irr2io11CAttributes9addStringEPKcS3_ @425
    _ZN3irr2io11CAttributesC1EPNS_5video12IVideoDriverE @426
    _ZN3irr2io11CAttributesC2EPNS_5video12IVideoDriverE @427
    _ZN3irr2io11CAttributesD0Ev @428
    _ZN3irr2io11CAttributesD1Ev @429
    _ZN3irr2io11CAttributesD2Ev @430
    _ZN3irr2io11CFileSystem14addFileArchiveERKNS_4core6stringIcNS2_12irrAllocatorIcEEEEbbNS0_19E_FILE_ARCHIVE_TYPEES8_ @431
    _ZN3irr2io11CFileSystem14createFileListEv @432
    _ZN3irr2io11CFileSystem14getFileArchiveEj @433
    _ZN3irr2io11CFileSystem15createXMLReaderEPNS0_9IReadFileE @434
    _ZN3irr2io11CFileSystem15createXMLReaderERKNS_4core6stringIcNS2_12irrAllocatorIcEEEE @435
    _ZN3irr2io11CFileSystem15createXMLWriterEPNS0_10IWriteFileE @436
    _ZN3irr2io11CFileSystem15createXMLWriterERKNS_4core6stringIcNS2_12irrAllocatorIcEEEE @437
    _ZN3irr2io11CFileSystem15moveFileArchiveEji @438
    _ZN3irr2io11CFileSystem16addArchiveLoaderEPNS0_14IArchiveLoaderE @439
    _ZN3irr2io11CFileSystem17createAndOpenFileERKNS_4core6stringIcNS2_12irrAllocatorIcEEEE @440
    _ZN3irr2io11CFileSystem17removeFileArchiveERKNS_4core6stringIcNS2_12irrAllocatorIcEEEE @441
    _ZN3irr2io11CFileSystem17removeFileArchiveEj @442
    _ZN3irr2io11CFileSystem17setFileListSystemENS0_15EFileSystemTypeE @443
    _ZN3irr2io11CFileSystem18createAndWriteFileERKNS_4core6stringIcNS2_12irrAllocatorIcEEEEb @444
    _ZN3irr2io11CFileSystem19createEmptyFileListERKNS_4core6stringIcNS2_12irrAllocatorIcEEEEbb @445
    _ZN3irr2io11CFileSystem19createLimitReadFileERKNS_4core6stringIcNS2_12irrAllocatorIcEEEEPNS0_9IReadFileEll @446
    _ZN3irr2io11CFileSystem19createXMLReaderUTF8EPNS0_9IReadFileE @447
    _ZN3irr2io11CFileSystem19createXMLReaderUTF8ERKNS_4core6stringIcNS2_12irrAllocatorIcEEEE @448
    _ZN3irr2io11CFileSystem19getWorkingDirectoryEv @449
    _ZN3irr2io11CFileSystem20createMemoryReadFileEPviRKNS_4core6stringIcNS3_12irrAllocatorIcEEEEb @450
    _ZN3irr2io11CFileSystem21createEmptyAttributesEPNS_5video12IVideoDriverE @451
    _ZN3irr2io11CFileSystem21createMemoryWriteFileEPviRKNS_4core6stringIcNS3_12irrAllocatorIcEEEEb @452
    _ZN3irr2io11CFileSystem24changeWorkingDirectoryToERKNS_4core6stringIcNS2_12irrAllocatorIcEEEE @453
    _ZN3irr2io11CFileSystemC1Ev @454
    _ZN3irr2io11CFileSystemC2Ev @455
    _ZN3irr2io11CFileSystemD0Ev @456
    _ZN3irr2io11CFileSystemD1Ev @457
    _ZN3irr2io11CFileSystemD2Ev @458
    _ZN3irr2io11CMemoryFile4readEPvj @459
    _ZN3irr2io11CMemoryFile4seekElb @460
    _ZN3irr2io11CMemoryFile5writeEPKvj @461
    _ZN3irr2io11CMemoryFileC1EPvlRKNS_4core6stringIcNS3_12irrAllocatorIcEEEEb @462
    _ZN3irr2io11CMemoryFileC2EPvlRKNS_4core6stringIcNS3_12irrAllocatorIcEEEEb @463
    _ZN3irr2io11CMemoryFileD0Ev @464
    _ZN3irr2io11CMemoryFileD1Ev @465
    _ZN3irr2io11CMemoryFileD2Ev @466
    _ZN3irr2io11IAttributesD0Ev @467
    _ZN3irr2io11IAttributesD1Ev @468
    _ZN3irr2io11IFileSystem17addPakFileArchiveEPKcbb @469
    _ZN3irr2io11IFileSystem17addZipFileArchiveEPKcbb @470
    _ZN3irr2io11IFileSystem20addFolderFileArchiveEPKcbb @471
    _ZN3irr2io11IFileSystemD0Ev @472
    _ZN3irr2io11IFileSystemD1Ev @473
    _ZN3irr2io12IFileArchiveD0Ev @474
    _ZN3irr2io12IFileArchiveD1Ev @475
    _ZN3irr2io13CIntAttribute10getStringWEv @476
    _ZN3irr2io13CIntAttribute6getIntEv @477
    _ZN3irr2io13CIntAttribute6setIntEi @478
    _ZN3irr2io13CIntAttribute7getBoolEv @479
    _ZN3irr2io13CIntAttribute8getFloatEv @480
    _ZN3irr2io13CIntAttribute8setFloatEf @481
    _ZN3irr2io13CIntAttribute9setStringEPKc @482
    _ZN3irr2io13CIntAttributeC1EPKci @483
    _ZN3irr2io13CIntAttributeD0Ev @484
    _ZN3irr2io13CIntAttributeD1Ev @485
    _ZN3irr2io13IIrrXMLReaderIcNS0_8IXMLBaseEED0Ev @486
    _ZN3irr2io13IIrrXMLReaderIcNS0_8IXMLBaseEED1Ev @487
    _ZN3irr2io13IIrrXMLReaderIcNS_17IReferenceCountedEED0Ev @488
    _ZN3irr2io13IIrrXMLReaderIcNS_17IReferenceCountedEED1Ev @489
    _ZN3irr2io13IIrrXMLReaderImNS0_8IXMLBaseEED0Ev @490
    _ZN3irr2io13IIrrXMLReaderImNS0_8IXMLBaseEED1Ev @491
    _ZN3irr2io13IIrrXMLReaderItNS0_8IXMLBaseEED0Ev @492
    _ZN3irr2io13IIrrXMLReaderItNS0_8IXMLBaseEED1Ev @493
    _ZN3irr2io13IIrrXMLReaderIwNS_17IReferenceCountedEED0Ev @494
    _ZN3irr2io13IIrrXMLReaderIwNS_17IReferenceCountedEED1Ev @495
    _ZN3irr2io14CBBoxAttributeC1EPKcNS_4core8aabbox3dIfEE @496
    _ZN3irr2io14CBBoxAttributeD0Ev @497
    _ZN3irr2io14CBBoxAttributeD1Ev @498
    _ZN3irr2io14CBoolAttribute10getStringWEv @499
    _ZN3irr2io14CBoolAttribute6getIntEv @500
    _ZN3irr2io14CBoolAttribute6setIntEi @501
    _ZN3irr2io14CBoolAttribute7getBoolEv @502
    _ZN3irr2io14CBoolAttribute7setBoolEb @503
    _ZN3irr2io14CBoolAttribute8getFloatEv @504
    _ZN3irr2io14CBoolAttribute8setFloatEf @505
    _ZN3irr2io14CBoolAttribute9setStringEPKc @506
    _ZN3irr2io14CBoolAttributeC1EPKcb @507
    _ZN3irr2io14CBoolAttributeD0Ev @508
    _ZN3irr2io14CBoolAttributeD1Ev @509
    _ZN3irr2io14CEnumAttribute10getStringWEv @510
    _ZN3irr2io14CEnumAttribute6getIntEv @511
    _ZN3irr2io14CEnumAttribute6setIntEi @512
    _ZN3irr2io14CEnumAttribute7getBoolEv @513
    _ZN3irr2io14CEnumAttribute7getEnumEv @514
    _ZN3irr2io14CEnumAttribute7setEnumEPKcPKS3_ @515
    _ZN3irr2io14CEnumAttribute8getFloatEv @516
    _ZN3irr2io14CEnumAttribute8setFloatEf @517
    _ZN3irr2io14CEnumAttribute9getStringEv @518
    _ZN3irr2io14CEnumAttribute9setStringEPKc @519
    _ZN3irr2io14CEnumAttributeC1EPKcS3_PKS3_ @520
    _ZN3irr2io14CEnumAttributeD0Ev @521
    _ZN3irr2io14CEnumAttributeD1Ev @522
    _ZN3irr2io14CLimitReadFile4readEPvj @523
    _ZN3irr2io14CLimitReadFile4seekElb @524
    _ZN3irr2io14CLimitReadFileC1EPNS0_9IReadFileEllRKNS_4core6stringIcNS4_12irrAllocatorIcEEEE @525
    _ZN3irr2io14CLimitReadFileC2EPNS0_9IReadFileEllRKNS_4core6stringIcNS4_12irrAllocatorIcEEEE @526
    _ZN3irr2io14CLimitReadFileD0Ev @527
    _ZN3irr2io14CLimitReadFileD1Ev @528
    _ZN3irr2io14CLimitReadFileD2Ev @529
    _ZN3irr2io14CRectAttributeC1EPKcNS_4core4rectIiEE @530
    _ZN3irr2io14CRectAttributeD0Ev @531
    _ZN3irr2io14CRectAttributeD1Ev @532
    _ZN3irr2io14CXMLReaderImplIcNS0_8IXMLBaseEE10SAttributeD1Ev @533
    _ZN3irr2io14CXMLReaderImplIcNS0_8IXMLBaseEE15convertTextDataImEEvPT_Pci @534
    _ZN3irr2io14CXMLReaderImplIcNS0_8IXMLBaseEE15convertTextDataItEEvPT_Pci @535
    _ZN3irr2io14CXMLReaderImplIcNS0_8IXMLBaseEE16parseCurrentNodeEv @536
    _ZN3irr2io14CXMLReaderImplIcNS0_8IXMLBaseEE22parseOpeningXMLElementEv @537
    _ZN3irr2io14CXMLReaderImplIcNS0_8IXMLBaseEE24replaceSpecialCharactersERNS_4core6stringIcNS4_12irrAllocatorIcEEEE @538
    _ZN3irr2io14CXMLReaderImplIcNS0_8IXMLBaseEE4readEv @539
    _ZN3irr2io14CXMLReaderImplIcNS0_8IXMLBaseEEC1EPNS0_17IFileReadCallBackEb @540
    _ZN3irr2io14CXMLReaderImplIcNS0_8IXMLBaseEED0Ev @541
    _ZN3irr2io14CXMLReaderImplIcNS0_8IXMLBaseEED1Ev @542
    _ZN3irr2io14CXMLReaderImplIcNS_17IReferenceCountedEE10SAttributeD1Ev @543
    _ZN3irr2io14CXMLReaderImplIcNS_17IReferenceCountedEE15convertTextDataImEEvPT_Pci @544
    _ZN3irr2io14CXMLReaderImplIcNS_17IReferenceCountedEE15convertTextDataItEEvPT_Pci @545
    _ZN3irr2io14CXMLReaderImplIcNS_17IReferenceCountedEE16parseCurrentNodeEv @546
    _ZN3irr2io14CXMLReaderImplIcNS_17IReferenceCountedEE22parseOpeningXMLElementEv @547
    _ZN3irr2io14CXMLReaderImplIcNS_17IReferenceCountedEE24replaceSpecialCharactersERNS_4core6stringIcNS4_12irrAllocatorIcEEEE @548
    _ZN3irr2io14CXMLReaderImplIcNS_17IReferenceCountedEE4readEv @549
    _ZN3irr2io14CXMLReaderImplIcNS_17IReferenceCountedEED0Ev @550
    _ZN3irr2io14CXMLReaderImplIcNS_17IReferenceCountedEED1Ev @551
    _ZN3irr2io14CXMLReaderImplImNS0_8IXMLBaseEE10SAttributeD1Ev @552
    _ZN3irr2io14CXMLReaderImplImNS0_8IXMLBaseEE15convertTextDataIcEEvPT_Pci @553
    _ZN3irr2io14CXMLReaderImplImNS0_8IXMLBaseEE15convertTextDataItEEvPT_Pci @554
    _ZN3irr2io14CXMLReaderImplImNS0_8IXMLBaseEE16parseCurrentNodeEv @555
    _ZN3irr2io14CXMLReaderImplImNS0_8IXMLBaseEE22parseOpeningXMLElementEv @556
    _ZN3irr2io14CXMLReaderImplImNS0_8IXMLBaseEE24replaceSpecialCharactersERNS_4core6stringImNS4_12irrAllocatorImEEEE @557
    _ZN3irr2io14CXMLReaderImplImNS0_8IXMLBaseEE4readEv @558
    _ZN3irr2io14CXMLReaderImplImNS0_8IXMLBaseEEC1EPNS0_17IFileReadCallBackEb @559
    _ZN3irr2io14CXMLReaderImplImNS0_8IXMLBaseEED0Ev @560
    _ZN3irr2io14CXMLReaderImplImNS0_8IXMLBaseEED1Ev @561
    _ZN3irr2io14CXMLReaderImplItNS0_8IXMLBaseEE10SAttributeD1Ev @562
    _ZN3irr2io14CXMLReaderImplItNS0_8IXMLBaseEE15convertTextDataIcEEvPT_Pci @563
    _ZN3irr2io14CXMLReaderImplItNS0_8IXMLBaseEE15convertTextDataImEEvPT_Pci @564
    _ZN3irr2io14CXMLReaderImplItNS0_8IXMLBaseEE16parseCurrentNodeEv @565
    _ZN3irr2io14CXMLReaderImplItNS0_8IXMLBaseEE22parseOpeningXMLElementEv @566
    _ZN3irr2io14CXMLReaderImplItNS0_8IXMLBaseEE24replaceSpecialCharactersERNS_4core6stringItNS4_12irrAllocatorItEEEE @567
    _ZN3irr2io14CXMLReaderImplItNS0_8IXMLBaseEE4readEv @568
    _ZN3irr2io14CXMLReaderImplItNS0_8IXMLBaseEEC1EPNS0_17IFileReadCallBackEb @569
    _ZN3irr2io14CXMLReaderImplItNS0_8IXMLBaseEED0Ev @570
    _ZN3irr2io14CXMLReaderImplItNS0_8IXMLBaseEED1Ev @571
    _ZN3irr2io14CXMLReaderImplIwNS_17IReferenceCountedEE10SAttributeD1Ev @572
    _ZN3irr2io14CXMLReaderImplIwNS_17IReferenceCountedEE15convertTextDataIcEEvPT_Pci @573
    _ZN3irr2io14CXMLReaderImplIwNS_17IReferenceCountedEE15convertTextDataImEEvPT_Pci @574
    _ZN3irr2io14CXMLReaderImplIwNS_17IReferenceCountedEE16parseCurrentNodeEv @575
    _ZN3irr2io14CXMLReaderImplIwNS_17IReferenceCountedEE22parseOpeningXMLElementEv @576
    _ZN3irr2io14CXMLReaderImplIwNS_17IReferenceCountedEE24replaceSpecialCharactersERNS_4core6stringIwNS4_12irrAllocatorIwEEEE @577
    _ZN3irr2io14CXMLReaderImplIwNS_17IReferenceCountedEE4readEv @578
    _ZN3irr2io14CXMLReaderImplIwNS_17IReferenceCountedEED0Ev @579
    _ZN3irr2io14CXMLReaderImplIwNS_17IReferenceCountedEED1Ev @580
    _ZN3irr2io14IArchiveLoaderD0Ev @581
    _ZN3irr2io14IArchiveLoaderD1Ev @582
    _ZN3irr2io14SFileListEntryD1Ev @583
    _ZN3irr2io14createReadFileERKNS_4core6stringIcNS1_12irrAllocatorIcEEEE @584
    _ZN3irr2io15CColorAttribute10getStringWEv @585
    _ZN3irr2io15CColorAttribute6getIntEv @586
    _ZN3irr2io15CColorAttribute6setIntEi @587
    _ZN3irr2io15CColorAttribute8getFloatEv @588
    _ZN3irr2io15CColorAttribute8setFloatEf @589
    _ZN3irr2io15CColorAttribute9setStringEPKc @590
    _ZN3irr2io15CColorAttributeC1EPKcRKNS_5video6SColorE @591
    _ZN3irr2io15CColorAttributeD0Ev @592
    _ZN3irr2io15CColorAttributeD1Ev @593
    _ZN3irr2io15CFloatAttribute10getStringWEv @594
    _ZN3irr2io15CFloatAttribute6getIntEv @595
    _ZN3irr2io15CFloatAttribute6setIntEi @596
    _ZN3irr2io15CFloatAttribute7getBoolEv @597
    _ZN3irr2io15CFloatAttribute8getFloatEv @598
    _ZN3irr2io15CFloatAttribute8setFloatEf @599
    _ZN3irr2io15CFloatAttribute9setStringEPKc @600
    _ZN3irr2io15CFloatAttributeC1EPKcf @601
    _ZN3irr2io15CFloatAttributeD0Ev @602
    _ZN3irr2io15CFloatAttributeD1Ev @603
    _ZN3irr2io15CPlaneAttributeC1EPKcNS_4core7plane3dIfEE @604
    _ZN3irr2io15CPlaneAttributeD0Ev @605
    _ZN3irr2io15CPlaneAttributeD1Ev @606
    _ZN3irr2io15createWriteFileERKNS_4core6stringIcNS1_12irrAllocatorIcEEEEb @607
    _ZN3irr2io16CBinaryAttributeC1EPKcPvi @608
    _ZN3irr2io16CBinaryAttributeD0Ev @609
    _ZN3irr2io16CBinaryAttributeD1Ev @610
    _ZN3irr2io16CColorfAttribute6getIntEv @611
    _ZN3irr2io16CColorfAttribute6setIntEi @612
    _ZN3irr2io16CColorfAttribute8getFloatEv @613
    _ZN3irr2io16CColorfAttribute8setFloatEf @614
    _ZN3irr2io16CColorfAttributeC1EPKcNS_5video7SColorfE @615
    _ZN3irr2io16CColorfAttributeD0Ev @616
    _ZN3irr2io16CColorfAttributeD1Ev @617
    _ZN3irr2io16CLine2dAttributeC1EPKcNS_4core6line2dIfEE @618
    _ZN3irr2io16CLine2dAttributeD0Ev @619
    _ZN3irr2io16CLine2dAttributeD1Ev @620
    _ZN3irr2io16CLine3dAttributeC1EPKcNS_4core6line3dIfEE @621
    _ZN3irr2io16CLine3dAttributeD0Ev @622
    _ZN3irr2io16CLine3dAttributeD1Ev @623
    _ZN3irr2io16CMatrixAttribute13getQuaternionEv @624
    _ZN3irr2io16CMatrixAttributeC1EPKcNS_4core8CMatrix4IfEE @625
    _ZN3irr2io16CMatrixAttributeD0Ev @626
    _ZN3irr2io16CMatrixAttributeD1Ev @627
    _ZN3irr2io16CStringAttribute10getStringWEv @628
    _ZN3irr2io16CStringAttribute6getIntEv @629
    _ZN3irr2io16CStringAttribute6setIntEi @630
    _ZN3irr2io16CStringAttribute7getBoolEv @631
    _ZN3irr2io16CStringAttribute8getFloatEv @632
    _ZN3irr2io16CStringAttribute8setFloatEf @633
    _ZN3irr2io16CStringAttribute9getBinaryEPvi @634
    _ZN3irr2io16CStringAttribute9getStringEv @635
    _ZN3irr2io16CStringAttribute9setBinaryEPvi @636
    _ZN3irr2io16CStringAttribute9setStringEPKc @637
    _ZN3irr2io16CStringAttribute9setStringEPKw @638
    _ZN3irr2io16CStringAttributeC1EPKcPKw @639
    _ZN3irr2io16CStringAttributeC1EPKcS3_ @640
    _ZN3irr2io16CStringAttributeD0Ev @641
    _ZN3irr2io16CStringAttributeD1Ev @642
    _ZN3irr2io16createFileSystemEv @643
    _ZN3irr2io16createIXMLReaderEPNS0_9IReadFileE @644
    _ZN3irr2io17CArchiveLoaderNPKC1EPNS0_11IFileSystemE @645
    _ZN3irr2io17CArchiveLoaderNPKC2EPNS0_11IFileSystemE @646
    _ZN3irr2io17CArchiveLoaderNPKD0Ev @647
    _ZN3irr2io17CArchiveLoaderNPKD1Ev @648
    _ZN3irr2io17CArchiveLoaderPAKC1EPNS0_11IFileSystemE @649
    _ZN3irr2io17CArchiveLoaderPAKC2EPNS0_11IFileSystemE @650
    _ZN3irr2io17CArchiveLoaderPAKD0Ev @651
    _ZN3irr2io17CArchiveLoaderPAKD1Ev @652
    _ZN3irr2io17CArchiveLoaderTARC1EPNS0_11IFileSystemE @653
    _ZN3irr2io17CArchiveLoaderTARC2EPNS0_11IFileSystemE @654
    _ZN3irr2io17CArchiveLoaderTARD0Ev @655
    _ZN3irr2io17CArchiveLoaderTARD1Ev @656
    _ZN3irr2io17CArchiveLoaderZIPC1EPNS0_11IFileSystemE @657
    _ZN3irr2io17CArchiveLoaderZIPC2EPNS0_11IFileSystemE @658
    _ZN3irr2io17CArchiveLoaderZIPD0Ev @659
    _ZN3irr2io17CArchiveLoaderZIPD1Ev @660
    _ZN3irr2io17CFileReadCallBack4readEPvi @661
    _ZN3irr2io17CFileReadCallBackD0Ev @662
    _ZN3irr2io17CFileReadCallBackD1Ev @663
    _ZN3irr2io17CMountPointReader14buildDirectoryEv @664
    _ZN3irr2io17CMountPointReader17createAndOpenFileERKNS_4core6stringIcNS2_12irrAllocatorIcEEEE @665
    _ZN3irr2io17CMountPointReader17createAndOpenFileEj @666
    _ZN3irr2io17CMountPointReaderC1EPNS0_11IFileSystemERKNS_4core6stringIcNS4_12irrAllocatorIcEEEEbb @667
    _ZN3irr2io17CMountPointReaderC2EPNS0_11IFileSystemERKNS_4core6stringIcNS4_12irrAllocatorIcEEEEbb @668
    _ZN3irr2io17CMountPointReaderD0Ev @669
    _ZN3irr2io17CMountPointReaderD1Ev @670
    _ZN3irr2io17CNumbersAttribute10getStringWEv @671
    _ZN3irr2io17CNumbersAttribute11getIntArrayEv @672
    _ZN3irr2io17CNumbersAttribute11getPositionEv @673
    _ZN3irr2io17CNumbersAttribute11getTriangleEv @674
    _ZN3irr2io17CNumbersAttribute11setIntArrayERNS_4core5arrayIiNS2_12irrAllocatorIiEEEE @675
    _ZN3irr2io17CNumbersAttribute11setPositionENS_4core8vector2dIiEE @676
    _ZN3irr2io17CNumbersAttribute11setVector2dENS_4core8vector2dIfEE @677
    _ZN3irr2io17CNumbersAttribute11setVector2dENS_4core8vector2dIiEE @678
    _ZN3irr2io17CNumbersAttribute12isNumberListEv @679
    _ZN3irr2io17CNumbersAttribute13getFloatArrayEv @680
    _ZN3irr2io17CNumbersAttribute13getQuaternionEv @681
    _ZN3irr2io17CNumbersAttribute13setFloatArrayERNS_4core5arrayIfNS2_12irrAllocatorIfEEEE @682
    _ZN3irr2io17CNumbersAttribute13setQuaternionENS_4core10quaternionE @683
    _ZN3irr2io17CNumbersAttribute13setTriangle3dENS_4core10triangle3dIfEE @684
    _ZN3irr2io17CNumbersAttribute14setBoundingBoxENS_4core8aabbox3dIfEE @685
    _ZN3irr2io17CNumbersAttribute14setDimension2dENS_4core11dimension2dIjEE @686
    _ZN3irr2io17CNumbersAttribute6getIntEv @687
    _ZN3irr2io17CNumbersAttribute6setIntEi @688
    _ZN3irr2io17CNumbersAttribute7getBBoxEv @689
    _ZN3irr2io17CNumbersAttribute7getBoolEv @690
    _ZN3irr2io17CNumbersAttribute7getRectEv @691
    _ZN3irr2io17CNumbersAttribute7isFloatEv @692
    _ZN3irr2io17CNumbersAttribute7setBoolEb @693
    _ZN3irr2io17CNumbersAttribute7setRectENS_4core4rectIiEE @694
    _ZN3irr2io17CNumbersAttribute8getColorEv @695
    _ZN3irr2io17CNumbersAttribute8getFloatEv @696
    _ZN3irr2io17CNumbersAttribute8getPlaneEv @697
    _ZN3irr2io17CNumbersAttribute8setColorENS_5video6SColorE @698
    _ZN3irr2io17CNumbersAttribute8setColorENS_5video7SColorfE @699
    _ZN3irr2io17CNumbersAttribute8setFloatEf @700
    _ZN3irr2io17CNumbersAttribute8setPlaneENS_4core7plane3dIfEE @701
    _ZN3irr2io17CNumbersAttribute9getColorfEv @702
    _ZN3irr2io17CNumbersAttribute9getLine2dEv @703
    _ZN3irr2io17CNumbersAttribute9getLine3dEv @704
    _ZN3irr2io17CNumbersAttribute9getMatrixEv @705
    _ZN3irr2io17CNumbersAttribute9getStringEv @706
    _ZN3irr2io17CNumbersAttribute9getVectorEv @707
    _ZN3irr2io17CNumbersAttribute9setLine2dENS_4core6line2dIfEE @708
    _ZN3irr2io17CNumbersAttribute9setLine2dENS_4core6line2dIiEE @709
    _ZN3irr2io17CNumbersAttribute9setMatrixENS_4core8CMatrix4IfEE @710
    _ZN3irr2io17CNumbersAttribute9setStringEPKc @711
    _ZN3irr2io17CNumbersAttribute9setVectorENS_4core8vector3dIfEE @712
    _ZN3irr2io17CNumbersAttributeD0Ev @713
    _ZN3irr2io17CNumbersAttributeD1Ev @714
    _ZN3irr2io17CNumbersAttributeD2Ev @715
    _ZN3irr2io17CTextureAttribute10getStringWEv @716
    _ZN3irr2io17CTextureAttribute10getTextureEv @717
    _ZN3irr2io17CTextureAttribute10setTextureEPNS_5video8ITextureE @718
    _ZN3irr2io17CTextureAttribute7getBoolEv @719
    _ZN3irr2io17CTextureAttribute9getStringEv @720
    _ZN3irr2io17CTextureAttribute9setStringEPKc @721
    _ZN3irr2io17CTextureAttributeC1EPKcPNS_5video8ITextureEPNS4_12IVideoDriverE @722
    _ZN3irr2io17CTextureAttributeD0Ev @723
    _ZN3irr2io17CTextureAttributeD1Ev @724
    _ZN3irr2io17IFileReadCallBackD0Ev @725
    _ZN3irr2io17IFileReadCallBackD1Ev @726
    _ZN3irr2io18CTriangleAttribute8getPlaneEv @727
    _ZN3irr2io18CTriangleAttributeC1EPKcNS_4core10triangle3dIfEE @728
    _ZN3irr2io18CTriangleAttributeD0Ev @729
    _ZN3irr2io18CTriangleAttributeD1Ev @730
    _ZN3irr2io18CVector3DAttribute9getMatrixEv @731
    _ZN3irr2io18CVector3DAttributeC1EPKcNS_4core8vector3dIfEE @732
    _ZN3irr2io18CVector3DAttributeD0Ev @733
    _ZN3irr2io18CVector3DAttributeD1Ev @734
    _ZN3irr2io18createIrrXMLReaderEP6_iobuf @735
    _ZN3irr2io18createIrrXMLReaderEPKc @736
    _ZN3irr2io18createIrrXMLReaderEPNS0_17IFileReadCallBackEb @737
    _ZN3irr2io19CArchiveLoaderMountC1EPNS0_11IFileSystemE @738
    _ZN3irr2io19CArchiveLoaderMountC2EPNS0_11IFileSystemE @739
    _ZN3irr2io19CArchiveLoaderMountD0Ev @740
    _ZN3irr2io19CArchiveLoaderMountD1Ev @741
    _ZN3irr2io19createLimitReadFileERKNS_4core6stringIcNS1_12irrAllocatorIcEEEEPNS0_9IReadFileEll @742
    _ZN3irr2io20CPosition2DAttributeC1EPKcNS_4core8vector2dIiEE @743
    _ZN3irr2io20CPosition2DAttributeD0Ev @744
    _ZN3irr2io20CPosition2DAttributeD1Ev @745
    _ZN3irr2io20CQuaternionAttribute9getMatrixEv @746
    _ZN3irr2io20CQuaternionAttributeC1EPKcNS_4core10quaternionE @747
    _ZN3irr2io20CQuaternionAttributeD0Ev @748
    _ZN3irr2io20CQuaternionAttributeD1Ev @749
    _ZN3irr2io20createIXMLReaderUTF8EPNS0_9IReadFileE @750
    _ZN3irr2io20createMemoryReadFileEPvlRKNS_4core6stringIcNS2_12irrAllocatorIcEEEEb @751
    _ZN3irr2io21CUserPointerAttribute10getStringWEv @752
    _ZN3irr2io21CUserPointerAttribute14getUserPointerEv @753
    _ZN3irr2io21CUserPointerAttribute14setUserPointerEPv @754
    _ZN3irr2io21CUserPointerAttribute6getIntEv @755
    _ZN3irr2io21CUserPointerAttribute7getBoolEv @756
    _ZN3irr2io21CUserPointerAttribute9setStringEPKc @757
    _ZN3irr2io21CUserPointerAttributeC1EPKcPv @758
    _ZN3irr2io21CUserPointerAttributeD0Ev @759
    _ZN3irr2io21CUserPointerAttributeD1Ev @760
    _ZN3irr2io22CStringWArrayAttribute8getArrayEv @761
    _ZN3irr2io22CStringWArrayAttribute8setArrayERKNS_4core5arrayINS2_6stringIwNS2_12irrAllocatorIwEEEENS5_IS7_EEEE @762
    _ZN3irr2io22CStringWArrayAttributeC1EPKcRKNS_4core5arrayINS4_6stringIwNS4_12irrAllocatorIwEEEENS7_IS9_EEEE @763
    _ZN3irr2io22CStringWArrayAttributeD0Ev @764
    _ZN3irr2io22CStringWArrayAttributeD1Ev @765
    _ZN3irr2io23CIrrXMLFileReadCallBack4readEPvi @766
    _ZN3irr2io23CIrrXMLFileReadCallBackD0Ev @767
    _ZN3irr2io23CIrrXMLFileReadCallBackD1Ev @768
    _ZN3irr2io23createIrrXMLReaderUTF16EP6_iobuf @769
    _ZN3irr2io23createIrrXMLReaderUTF16EPKc @770
    _ZN3irr2io23createIrrXMLReaderUTF16EPNS0_17IFileReadCallBackEb @771
    _ZN3irr2io23createIrrXMLReaderUTF32EP6_iobuf @772
    _ZN3irr2io23createIrrXMLReaderUTF32EPKc @773
    _ZN3irr2io23createIrrXMLReaderUTF32EPNS0_17IFileReadCallBackEb @774
    _ZN3irr2io26IAttributeExchangingObject21deserializeAttributesEPNS0_11IAttributesEPNS0_26SAttributeReadWriteOptionsE @775
    _ZN3irr2io26IAttributeExchangingObjectD0Ev @776
    _ZN3irr2io26IAttributeExchangingObjectD1Ev @777
    _ZN3irr2io9CFileList4sortEv @778
    _ZN3irr2io9CFileList7addItemERKNS_4core6stringIcNS2_12irrAllocatorIcEEEEjbj @779
    _ZN3irr2io9CFileListC1ERKNS_4core6stringIcNS2_12irrAllocatorIcEEEEbb @780
    _ZN3irr2io9CFileListC2ERKNS_4core6stringIcNS2_12irrAllocatorIcEEEEbb @781
    _ZN3irr2io9CFileListD0Ev @782
    _ZN3irr2io9CFileListD1Ev @783
    _ZN3irr2io9CFileListD2Ev @784
    _ZN3irr2io9CReadFile4readEPvj @785
    _ZN3irr2io9CReadFile4seekElb @786
    _ZN3irr2io9CReadFile8openFileEv @787
    _ZN3irr2io9CReadFileC1ERKNS_4core6stringIcNS2_12irrAllocatorIcEEEE @788
    _ZN3irr2io9CReadFileC2ERKNS_4core6stringIcNS2_12irrAllocatorIcEEEE @789
    _ZN3irr2io9CReadFileD0Ev @790
    _ZN3irr2io9CReadFileD1Ev @791
    _ZN3irr2io9CReadFileD2Ev @792
    _ZN3irr2io9IFileListD0Ev @793
    _ZN3irr2io9IFileListD1Ev @794
    _ZN3irr2io9IReadFileD0Ev @795
    _ZN3irr2io9IReadFileD1Ev @796
    _ZN3irr2os10Randomizer4randEv @797
    _ZN3irr2os10Randomizer4seedE @798 DATA
    _ZN3irr2os10Randomizer5resetEv @799
    _ZN3irr2os5Timer10StaticTimeE @800 DATA
    _ZN3irr2os5Timer10startTimerEv @801
    _ZN3irr2os5Timer11getRealTimeEv @802
    _ZN3irr2os5Timer13StartRealTimeE @803 DATA
    _ZN3irr2os5Timer15LastVirtualTimeE @804 DATA
    _ZN3irr2os5Timer16initVirtualTimerEv @805
    _ZN3irr2os5Timer17VirtualTimerSpeedE @806 DATA
    _ZN3irr2os5Timer23VirtualTimerStopCounterE @807 DATA
    _ZN3irr2os5Timer4tickEv @808
    _ZN3irr2os5Timer7getTimeEv @809
    _ZN3irr2os5Timer7setTimeEj @810
    _ZN3irr2os5Timer8getSpeedEv @811
    _ZN3irr2os5Timer8setSpeedEf @812
    _ZN3irr2os5Timer9initTimerEv @813
    _ZN3irr2os5Timer9isStoppedEv @814
    _ZN3irr2os5Timer9stopTimerEv @815
    _ZN3irr2os7Printer3logEPKcNS_10ELOG_LEVELE @816
    _ZN3irr2os7Printer3logEPKcRKNS_4core6stringIcNS4_12irrAllocatorIcEEEENS_10ELOG_LEVELE @817
    _ZN3irr2os7Printer3logEPKcS3_NS_10ELOG_LEVELE @818
    _ZN3irr2os7Printer3logEPKwNS_10ELOG_LEVELE @819
    _ZN3irr2os7Printer5printEPKc @820
    _ZN3irr2os7Printer6LoggerE @821 DATA
    _ZN3irr2os8Byteswap8byteswapEc @822
    _ZN3irr2os8Byteswap8byteswapEf @823
    _ZN3irr2os8Byteswap8byteswapEh @824
    _ZN3irr2os8Byteswap8byteswapEi @825
    _ZN3irr2os8Byteswap8byteswapEj @826
    _ZN3irr2os8Byteswap8byteswapEs @827
    _ZN3irr2os8Byteswap8byteswapEt @828
    _ZN3irr3gui10CGUIButton10setPressedEb @829
    _ZN3irr3gui10CGUIButton13setDrawBorderEb @830
    _ZN3irr3gui10CGUIButton13setScaleImageEb @831
    _ZN3irr3gui10CGUIButton13setSpriteBankEPNS0_14IGUISpriteBankE @832
    _ZN3irr3gui10CGUIButton15setIsPushButtonEb @833
    _ZN3irr3gui10CGUIButton15setOverrideFontEPNS0_8IGUIFontE @834
    _ZN3irr3gui10CGUIButton15setPressedImageEPNS_5video8ITextureE @835
    _ZN3irr3gui10CGUIButton15setPressedImageEPNS_5video8ITextureERKNS_4core4rectIiEE @836
    _ZN3irr3gui10CGUIButton18setUseAlphaChannelEb @837
    _ZN3irr3gui10CGUIButton21deserializeAttributesEPNS_2io11IAttributesEPNS2_26SAttributeReadWriteOptionsE @838
    _ZN3irr3gui10CGUIButton4drawEv @839
    _ZN3irr3gui10CGUIButton7OnEventERKNS_6SEventE @840
    _ZN3irr3gui10CGUIButton8setImageEPNS_5video8ITextureE @841
    _ZN3irr3gui10CGUIButton8setImageEPNS_5video8ITextureERKNS_4core4rectIiEE @842
    _ZN3irr3gui10CGUIButton9setSpriteENS0_17EGUI_BUTTON_STATEEiNS_5video6SColorEb @843
    _ZN3irr3gui10CGUIButtonC1EPNS0_15IGUIEnvironmentEPNS0_11IGUIElementEiNS_4core4rectIiEEb @844
    _ZN3irr3gui10CGUIButtonC2EPNS0_15IGUIEnvironmentEPNS0_11IGUIElementEiNS_4core4rectIiEEb @845
    _ZN3irr3gui10CGUIButtonD0Ev @846
    _ZN3irr3gui10CGUIButtonD1Ev @847
    _ZN3irr3gui10CGUIButtonD2Ev @848
    _ZN3irr3gui10CGUIWindow12setDraggableEb @849
    _ZN3irr3gui10CGUIWindow14refreshSpritesEv @850
    _ZN3irr3gui10CGUIWindow15setDrawTitlebarEb @851
    _ZN3irr3gui10CGUIWindow16updateClientRectEv @852
    _ZN3irr3gui10CGUIWindow17setDrawBackgroundEb @853
    _ZN3irr3gui10CGUIWindow21deserializeAttributesEPNS_2io11IAttributesEPNS2_26SAttributeReadWriteOptionsE @854
    _ZN3irr3gui10CGUIWindow22updateAbsolutePositionEv @855
    _ZN3irr3gui10CGUIWindow4drawEv @856
    _ZN3irr3gui10CGUIWindow7OnEventERKNS_6SEventE @857
    _ZN3irr3gui10CGUIWindowC1EPNS0_15IGUIEnvironmentEPNS0_11IGUIElementEiNS_4core4rectIiEE @858
    _ZN3irr3gui10CGUIWindowC2EPNS0_15IGUIEnvironmentEPNS0_11IGUIElementEiNS_4core4rectIiEE @859
    _ZN3irr3gui10CGUIWindowD0Ev @860
    _ZN3irr3gui10CGUIWindowD1Ev @861
    _ZN3irr3gui10CGUIWindowD2Ev @862
    _ZN3irr3gui10IGUIButtonD0Ev @863
    _ZN3irr3gui10IGUIButtonD1Ev @864
    _ZN3irr3gui10IGUIButtonD2Ev @865
    _ZN3irr3gui10IGUIWindowD0Ev @866
    _ZN3irr3gui10IGUIWindowD1Ev @867
    _ZN3irr3gui10IGUIWindowD2Ev @868
    _ZN3irr3gui10SGUISpriteD1Ev @869
    _ZN3irr3gui11CGUIEditBox10processKeyERKNS_6SEventE @870
    _ZN3irr3gui11CGUIEditBox11setTextRectEi @871
    _ZN3irr3gui11CGUIEditBox11setWordWrapEb @872
    _ZN3irr3gui11CGUIEditBox12getCursorPosEii @873
    _ZN3irr3gui11CGUIEditBox12processMouseERKNS_6SEventE @874
    _ZN3irr3gui11CGUIEditBox12sendGuiEventENS0_15EGUI_EVENT_TYPEE @875
    _ZN3irr3gui11CGUIEditBox12setMultiLineEb @876
    _ZN3irr3gui11CGUIEditBox13setAutoScrollEb @877
    _ZN3irr3gui11CGUIEditBox13setDrawBorderEb @878
    _ZN3irr3gui11CGUIEditBox14getLineFromPosEi @879
    _ZN3irr3gui11CGUIEditBox14setPasswordBoxEbw @880
    _ZN3irr3gui11CGUIEditBox14setTextMarkersEii @881
    _ZN3irr3gui11CGUIEditBox15setOverrideFontEPNS0_8IGUIFontE @882
    _ZN3irr3gui11CGUIEditBox16getTextDimensionEv @883
    _ZN3irr3gui11CGUIEditBox16setOverrideColorENS_5video6SColorE @884
    _ZN3irr3gui11CGUIEditBox16setTextAlignmentENS0_14EGUI_ALIGNMENTES2_ @885
    _ZN3irr3gui11CGUIEditBox18calculateScrollPosEv @886
    _ZN3irr3gui11CGUIEditBox19enableOverrideColorEb @887
    _ZN3irr3gui11CGUIEditBox21deserializeAttributesEPNS_2io11IAttributesEPNS2_26SAttributeReadWriteOptionsE @888
    _ZN3irr3gui11CGUIEditBox22updateAbsolutePositionEv @889
    _ZN3irr3gui11CGUIEditBox4drawEv @890
    _ZN3irr3gui11CGUIEditBox6setMaxEj @891
    _ZN3irr3gui11CGUIEditBox7OnEventERKNS_6SEventE @892
    _ZN3irr3gui11CGUIEditBox7setTextEPKw @893
    _ZN3irr3gui11CGUIEditBox9breakTextEv @894
    _ZN3irr3gui11CGUIEditBox9inputCharEw @895
    _ZN3irr3gui11CGUIEditBoxC1EPKwbPNS0_15IGUIEnvironmentEPNS0_11IGUIElementEiRKNS_4core4rectIiEE @896
    _ZN3irr3gui11CGUIEditBoxC2EPKwbPNS0_15IGUIEnvironmentEPNS0_11IGUIElementEiRKNS_4core4rectIiEE @897
    _ZN3irr3gui11CGUIEditBoxD0Ev @898
    _ZN3irr3gui11CGUIEditBoxD1Ev @899
    _ZN3irr3gui11CGUIEditBoxD2Ev @900
    _ZN3irr3gui11CGUIListBox10insertItemEjPKwi @901
    _ZN3irr3gui11CGUIListBox10removeItemEj @902
    _ZN3irr3gui11CGUIListBox11setSelectedEPKw @903
    _ZN3irr3gui11CGUIListBox11setSelectedEi @904
    _ZN3irr3gui11CGUIListBox13setItemHeightEi @905
    _ZN3irr3gui11CGUIListBox13setSpriteBankEPNS0_14IGUISpriteBankE @906
    _ZN3irr3gui11CGUIListBox17setDrawBackgroundEb @907
    _ZN3irr3gui11CGUIListBox20recalculateItemWidthEi @908
    _ZN3irr3gui11CGUIListBox20recalculateScrollPosEv @909
    _ZN3irr3gui11CGUIListBox20setAutoScrollEnabledEb @910
    _ZN3irr3gui11CGUIListBox20setItemOverrideColorEjNS0_18EGUI_LISTBOX_COLORERKNS_5video6SColorE @911
    _ZN3irr3gui11CGUIListBox20setItemOverrideColorEjRKNS_5video6SColorE @912
    _ZN3irr3gui11CGUIListBox21deserializeAttributesEPNS_2io11IAttributesEPNS2_26SAttributeReadWriteOptionsE @913
    _ZN3irr3gui11CGUIListBox21recalculateItemHeightEv @914
    _ZN3irr3gui11CGUIListBox22clearItemOverrideColorEj @915
    _ZN3irr3gui11CGUIListBox22clearItemOverrideColorEjNS0_18EGUI_LISTBOX_COLORE @916
    _ZN3irr3gui11CGUIListBox22updateAbsolutePositionEv @917
    _ZN3irr3gui11CGUIListBox4drawEv @918
    _ZN3irr3gui11CGUIListBox5clearEv @919
    _ZN3irr3gui11CGUIListBox7OnEventERKNS_6SEventE @920
    _ZN3irr3gui11CGUIListBox7addItemEPKw @921
    _ZN3irr3gui11CGUIListBox7addItemEPKwi @922
    _ZN3irr3gui11CGUIListBox7setItemEjPKwi @923
    _ZN3irr3gui11CGUIListBox9selectNewEib @924
    _ZN3irr3gui11CGUIListBox9swapItemsEjj @925
    _ZN3irr3gui11CGUIListBoxC1EPNS0_15IGUIEnvironmentEPNS0_11IGUIElementEiNS_4core4rectIiEEbbb @926
    _ZN3irr3gui11CGUIListBoxC2EPNS0_15IGUIEnvironmentEPNS0_11IGUIElementEiNS_4core4rectIiEEbbb @927
    _ZN3irr3gui11CGUIListBoxD0Ev @928
    _ZN3irr3gui11CGUIListBoxD1Ev @929
    _ZN3irr3gui11CGUIListBoxD2Ev @930
    _ZN3irr3gui11CGUISpinBox11setStepSizeEf @931
    _ZN3irr3gui11CGUISpinBox14refreshSpritesEv @932
    _ZN3irr3gui11CGUISpinBox16setDecimalPlacesEi @933
    _ZN3irr3gui11CGUISpinBox16verifyValueRangeEv @934
    _ZN3irr3gui11CGUISpinBox21deserializeAttributesEPNS_2io11IAttributesEPNS2_26SAttributeReadWriteOptionsE @935
    _ZN3irr3gui11CGUISpinBox7OnEventERKNS_6SEventE @936
    _ZN3irr3gui11CGUISpinBox7setTextEPKw @937
    _ZN3irr3gui11CGUISpinBox8setRangeEff @938
    _ZN3irr3gui11CGUISpinBox8setValueEf @939
    _ZN3irr3gui11CGUISpinBoxC1EPKwbPNS0_15IGUIEnvironmentEPNS0_11IGUIElementEiRKNS_4core4rectIiEE @940
    _ZN3irr3gui11CGUISpinBoxC2EPKwbPNS0_15IGUIEnvironmentEPNS0_11IGUIElementEiRKNS_4core4rectIiEE @941
    _ZN3irr3gui11CGUISpinBoxD0Ev @942
    _ZN3irr3gui11CGUISpinBoxD1Ev @943
    _ZN3irr3gui11CGUISpinBoxD2Ev @944
    _ZN3irr3gui11CGUIToolBar22updateAbsolutePositionEv @945
    _ZN3irr3gui11CGUIToolBar4drawEv @946
    _ZN3irr3gui11CGUIToolBar7OnEventERKNS_6SEventE @947
    _ZN3irr3gui11CGUIToolBar9addButtonEiPKwS3_PNS_5video8ITextureES6_bb @948
    _ZN3irr3gui11CGUIToolBarC1EPNS0_15IGUIEnvironmentEPNS0_11IGUIElementEiNS_4core4rectIiEE @949
    _ZN3irr3gui11CGUIToolBarC2EPNS0_15IGUIEnvironmentEPNS0_11IGUIElementEiNS_4core4rectIiEE @950
    _ZN3irr3gui11CGUIToolBarD0Ev @951
    _ZN3irr3gui11CGUIToolBarD1Ev @952
    _ZN3irr3gui11IGUIEditBoxD0Ev @953
    _ZN3irr3gui11IGUIEditBoxD1Ev @954
    _ZN3irr3gui11IGUIEditBoxD2Ev @955
    _ZN3irr3gui11IGUIElement10setEnabledEb @956
    _ZN3irr3gui11IGUIElement10setVisibleEb @957
    _ZN3irr3gui11IGUIElement11removeChildEPS1_ @958
    _ZN3irr3gui11IGUIElement12OnPostRenderEj @959
    _ZN3irr3gui11IGUIElement12bringToFrontEPS1_ @960
    _ZN3irr3gui11IGUIElement13setSubElementEb @961
    _ZN3irr3gui11IGUIElement14setToolTipTextEPKw @962
    _ZN3irr3gui11IGUIElement19getElementFromPointERKNS_4core8vector2dIiEE @963
    _ZN3irr3gui11IGUIElement19setRelativePositionERKNS_4core4rectIiEE @964
    _ZN3irr3gui11IGUIElement21deserializeAttributesEPNS_2io11IAttributesEPNS2_26SAttributeReadWriteOptionsE @965
    _ZN3irr3gui11IGUIElement22updateAbsolutePositionEv @966
    _ZN3irr3gui11IGUIElement27recalculateAbsolutePositionEb @967
    _ZN3irr3gui11IGUIElement4drawEv @968
    _ZN3irr3gui11IGUIElement4moveENS_4core8vector2dIiEE @969
    _ZN3irr3gui11IGUIElement5setIDEi @970
    _ZN3irr3gui11IGUIElement6removeEv @971
    _ZN3irr3gui11IGUIElement7OnEventERKNS_6SEventE @972
    _ZN3irr3gui11IGUIElement7setTextEPKw @973
    _ZN3irr3gui11IGUIElement8addChildEPS1_ @974
    _ZN3irr3gui11IGUIElementD0Ev @975
    _ZN3irr3gui11IGUIElementD1Ev @976
    _ZN3irr3gui11IGUIElementD2Ev @977
    _ZN3irr3gui11IGUIListBoxC2EPNS0_15IGUIEnvironmentEPNS0_11IGUIElementEiNS_4core4rectIiEE @978
    _ZN3irr3gui11IGUIListBoxD0Ev @979
    _ZN3irr3gui11IGUIListBoxD1Ev @980
    _ZN3irr3gui11IGUIListBoxD2Ev @981
    _ZN3irr3gui11IGUISpinBoxD0Ev @982
    _ZN3irr3gui11IGUISpinBoxD1Ev @983
    _ZN3irr3gui11IGUISpinBoxD2Ev @984
    _ZN3irr3gui11IGUIToolBarD0Ev @985
    _ZN3irr3gui11IGUIToolBarD1Ev @986
    _ZN3irr3gui11IGUIToolBarD2Ev @987
    _ZN3irr3gui12CGUICheckBox10setCheckedEb @988
    _ZN3irr3gui12CGUICheckBox21deserializeAttributesEPNS_2io11IAttributesEPNS2_26SAttributeReadWriteOptionsE @989
    _ZN3irr3gui12CGUICheckBox4drawEv @990
    _ZN3irr3gui12CGUICheckBox7OnEventERKNS_6SEventE @991
    _ZN3irr3gui12CGUICheckBoxC1EbPNS0_15IGUIEnvironmentEPNS0_11IGUIElementEiNS_4core4rectIiEE @992
    _ZN3irr3gui12CGUICheckBoxC2EbPNS0_15IGUIEnvironmentEPNS0_11IGUIElementEiNS_4core4rectIiEE @993
    _ZN3irr3gui12CGUICheckBoxD0Ev @994
    _ZN3irr3gui12CGUICheckBoxD1Ev @995
    _ZN3irr3gui12CGUIComboBox10removeItemEj @996
    _ZN3irr3gui12CGUIComboBox11setSelectedEi @997
    _ZN3irr3gui12CGUIComboBox13openCloseMenuEv @998
    _ZN3irr3gui12CGUIComboBox16setTextAlignmentENS0_14EGUI_ALIGNMENTES2_ @999
    _ZN3irr3gui12CGUIComboBox21deserializeAttributesEPNS_2io11IAttributesEPNS2_26SAttributeReadWriteOptionsE @1000
    _ZN3irr3gui12CGUIComboBox25sendSelectionChangedEventEv @1001
    _ZN3irr3gui12CGUIComboBox4drawEv @1002
    _ZN3irr3gui12CGUIComboBox5clearEv @1003
    _ZN3irr3gui12CGUIComboBox7OnEventERKNS_6SEventE @1004
    _ZN3irr3gui12CGUIComboBox7addItemEPKwj @1005
    _ZN3irr3gui12CGUIComboBoxC1EPNS0_15IGUIEnvironmentEPNS0_11IGUIElementEiNS_4core4rectIiEE @1006
    _ZN3irr3gui12CGUIComboBoxC2EPNS0_15IGUIEnvironmentEPNS0_11IGUIElementEiNS_4core4rectIiEE @1007
    _ZN3irr3gui12CGUIComboBoxD0Ev @1008
    _ZN3irr3gui12CGUIComboBoxD1Ev @1009
    _ZN3irr3gui12CGUITreeView11mouseActionEiib @1010
    _ZN3irr3gui12CGUITreeView11setIconFontEPNS0_8IGUIFontE @1011
    _ZN3irr3gui12CGUITreeView12setImageListEPNS0_13IGUIImageListE @1012
    _ZN3irr3gui12CGUITreeView15setLinesVisibleEb @1013
    _ZN3irr3gui12CGUITreeView18setImageLeftOfIconEb @1014
    _ZN3irr3gui12CGUITreeView21recalculateItemHeightEv @1015
    _ZN3irr3gui12CGUITreeView4drawEv @1016
    _ZN3irr3gui12CGUITreeView7OnEventERKNS_6SEventE @1017
    _ZN3irr3gui12CGUITreeViewC1EPNS0_15IGUIEnvironmentEPNS0_11IGUIElementEiNS_4core4rectIiEEbbbb @1018
    _ZN3irr3gui12CGUITreeViewC2EPNS0_15IGUIEnvironmentEPNS0_11IGUIElementEiNS_4core4rectIiEEbbbb @1019
    _ZN3irr3gui12CGUITreeViewD0Ev @1020
    _ZN3irr3gui12CGUITreeViewD1Ev @1021
    _ZN3irr3gui12CGUITreeViewD2Ev @1022
    _ZN3irr3gui12IGUICheckBoxD0Ev @1023
    _ZN3irr3gui12IGUICheckBoxD1Ev @1024
    _ZN3irr3gui12IGUICheckBoxD2Ev @1025
    _ZN3irr3gui12IGUIComboBoxD0Ev @1026
    _ZN3irr3gui12IGUIComboBoxD1Ev @1027
    _ZN3irr3gui12IGUIComboBoxD2Ev @1028
    _ZN3irr3gui12IGUITreeViewD0Ev @1029
    _ZN3irr3gui12IGUITreeViewD1Ev @1030
    _ZN3irr3gui12IGUITreeViewD2Ev @1031
    _ZN3irr3gui13CGUIImageList15createImageListEPNS_5video8ITextureENS_4core11dimension2dIiEEb @1032
    _ZN3irr3gui13CGUIImageList4drawEiRKNS_4core8vector2dIiEEPKNS2_4rectIiEE @1033
    _ZN3irr3gui13CGUIImageListC1EPNS_5video12IVideoDriverE @1034
    _ZN3irr3gui13CGUIImageListC2EPNS_5video12IVideoDriverE @1035
    _ZN3irr3gui13CGUIImageListD0Ev @1036
    _ZN3irr3gui13CGUIImageListD1Ev @1037
    _ZN3irr3gui13CGUIImageListD2Ev @1038
    _ZN3irr3gui13CGUIScrollBar12OnPostRenderEj @1039
    _ZN3irr3gui13CGUIScrollBar12setLargeStepEi @1040
    _ZN3irr3gui13CGUIScrollBar12setSmallStepEi @1041
    _ZN3irr3gui13CGUIScrollBar15refreshControlsEv @1042
    _ZN3irr3gui13CGUIScrollBar21deserializeAttributesEPNS_2io11IAttributesEPNS2_26SAttributeReadWriteOptionsE @1043
    _ZN3irr3gui13CGUIScrollBar22updateAbsolutePositionEv @1044
    _ZN3irr3gui13CGUIScrollBar4drawEv @1045
    _ZN3irr3gui13CGUIScrollBar6setMaxEi @1046
    _ZN3irr3gui13CGUIScrollBar6setMinEi @1047
    _ZN3irr3gui13CGUIScrollBar6setPosEi @1048
    _ZN3irr3gui13CGUIScrollBar7OnEventERKNS_6SEventE @1049
    _ZN3irr3gui13CGUIScrollBarC1EbPNS0_15IGUIEnvironmentEPNS0_11IGUIElementEiNS_4core4rectIiEEb @1050
    _ZN3irr3gui13CGUIScrollBarC2EbPNS0_15IGUIEnvironmentEPNS0_11IGUIElementEiNS_4core4rectIiEEb @1051
    _ZN3irr3gui13CGUIScrollBarD0Ev @1052
    _ZN3irr3gui13CGUIScrollBarD1Ev @1053
    _ZN3irr3gui13CGUIScrollBarD2Ev @1054
    _ZN3irr3gui13IGUIImageListD0Ev @1055
    _ZN3irr3gui13IGUIImageListD1Ev @1056
    _ZN3irr3gui13IGUIScrollBarD0Ev @1057
    _ZN3irr3gui13IGUIScrollBarD1Ev @1058
    _ZN3irr3gui13IGUIScrollBarD2Ev @1059
    _ZN3irr3gui14CGUIInOutFader21deserializeAttributesEPNS_2io11IAttributesEPNS2_26SAttributeReadWriteOptionsE @1060
    _ZN3irr3gui14CGUIInOutFader4drawEv @1061
    _ZN3irr3gui14CGUIInOutFader6fadeInEj @1062
    _ZN3irr3gui14CGUIInOutFader7fadeOutEj @1063
    _ZN3irr3gui14CGUIInOutFader8setColorENS_5video6SColorE @1064
    _ZN3irr3gui14CGUIInOutFader8setColorENS_5video6SColorES3_ @1065
    _ZN3irr3gui14CGUIInOutFaderC1EPNS0_15IGUIEnvironmentEPNS0_11IGUIElementEiNS_4core4rectIiEE @1066
    _ZN3irr3gui14CGUIInOutFaderC2EPNS0_15IGUIEnvironmentEPNS0_11IGUIElementEiNS_4core4rectIiEE @1067
    _ZN3irr3gui14CGUIInOutFaderD0Ev @1068
    _ZN3irr3gui14CGUIInOutFaderD1Ev @1069
    _ZN3irr3gui14CGUIMeshViewer11setMaterialERKNS_5video9SMaterialE @1070
    _ZN3irr3gui14CGUIMeshViewer4drawEv @1071
    _ZN3irr3gui14CGUIMeshViewer7OnEventERKNS_6SEventE @1072
    _ZN3irr3gui14CGUIMeshViewer7setMeshEPNS_5scene13IAnimatedMeshE @1073
    _ZN3irr3gui14CGUIMeshViewerC1EPNS0_15IGUIEnvironmentEPNS0_11IGUIElementEiNS_4core4rectIiEE @1074
    _ZN3irr3gui14CGUIMeshViewerC2EPNS0_15IGUIEnvironmentEPNS0_11IGUIElementEiNS_4core4rectIiEE @1075
    _ZN3irr3gui14CGUIMeshViewerD0Ev @1076
    _ZN3irr3gui14CGUIMeshViewerD1Ev @1077
    _ZN3irr3gui14CGUIMeshViewerD2Ev @1078
    _ZN3irr3gui14CGUIMessageBox15refreshControlsEv @1079
    _ZN3irr3gui14CGUIMessageBox21deserializeAttributesEPNS_2io11IAttributesEPNS2_26SAttributeReadWriteOptionsE @1080
    _ZN3irr3gui14CGUIMessageBox7OnEventERKNS_6SEventE @1081
    _ZN3irr3gui14CGUIMessageBox9setButtonERPNS0_10IGUIButtonEbRKNS_4core4rectIiEEPKwRPNS0_11IGUIElementE @1082
    _ZN3irr3gui14CGUIMessageBoxC1EPNS0_15IGUIEnvironmentEPKwS5_iPNS0_11IGUIElementEiNS_4core4rectIiEEPNS_5video8ITextureE @1083
    _ZN3irr3gui14CGUIMessageBoxC2EPNS0_15IGUIEnvironmentEPKwS5_iPNS0_11IGUIElementEiNS_4core4rectIiEEPNS_5video8ITextureE @1084
    _ZN3irr3gui14CGUIMessageBoxD0Ev @1085
    _ZN3irr3gui14CGUIMessageBoxD1Ev @1086
    _ZN3irr3gui14CGUIMessageBoxD2Ev @1087
    _ZN3irr3gui14CGUISpriteBank10SDrawBatchC1ERKS2_ @1088
    _ZN3irr3gui14CGUISpriteBank10SDrawBatchD1Ev @1089
    _ZN3irr3gui14CGUISpriteBank10addTextureEPNS_5video8ITextureE @1090
    _ZN3irr3gui14CGUISpriteBank10getSpritesEv @1091
    _ZN3irr3gui14CGUISpriteBank10setTextureEjPNS_5video8ITextureE @1092
    _ZN3irr3gui14CGUISpriteBank12draw2DSpriteEjRKNS_4core8vector2dIiEEPKNS2_4rectIiEERKNS_5video6SColorEjjbb @1093
    _ZN3irr3gui14CGUISpriteBank12getPositionsEv @1094
    _ZN3irr3gui14CGUISpriteBank17draw2DSpriteBatchERKNS_4core5arrayIjNS2_12irrAllocatorIjEEEERKNS3_INS2_8vector2dIiEENS4_ISA_EEEEPKNS2_4rectIiEERKNS_5video6SColorEjjbb @1095
    _ZN3irr3gui14CGUISpriteBank18addTextureAsSpriteEPNS_5video8ITextureE @1096
    _ZN3irr3gui14CGUISpriteBank5clearEv @1097
    _ZN3irr3gui14CGUISpriteBankC1EPNS0_15IGUIEnvironmentE @1098
    _ZN3irr3gui14CGUISpriteBankC2EPNS0_15IGUIEnvironmentE @1099
    _ZN3irr3gui14CGUISpriteBankD0Ev @1100
    _ZN3irr3gui14CGUISpriteBankD1Ev @1101
    _ZN3irr3gui14CGUISpriteBankD2Ev @1102
    _ZN3irr3gui14CGUIStaticText11setWordWrapEb @1103
    _ZN3irr3gui14CGUIStaticText13setDrawBorderEb @1104
    _ZN3irr3gui14CGUIStaticText15setOverrideFontEPNS0_8IGUIFontE @1105
    _ZN3irr3gui14CGUIStaticText16setOverrideColorENS_5video6SColorE @1106
    _ZN3irr3gui14CGUIStaticText16setTextAlignmentENS0_14EGUI_ALIGNMENTES2_ @1107
    _ZN3irr3gui14CGUIStaticText17setDrawBackgroundEb @1108
    _ZN3irr3gui14CGUIStaticText18setBackgroundColorENS_5video6SColorE @1109
    _ZN3irr3gui14CGUIStaticText19enableOverrideColorEb @1110
    _ZN3irr3gui14CGUIStaticText21deserializeAttributesEPNS_2io11IAttributesEPNS2_26SAttributeReadWriteOptionsE @1111
    _ZN3irr3gui14CGUIStaticText22updateAbsolutePositionEv @1112
    _ZN3irr3gui14CGUIStaticText4drawEv @1113
    _ZN3irr3gui14CGUIStaticText7setTextEPKw @1114
    _ZN3irr3gui14CGUIStaticText9breakTextEv @1115
    _ZN3irr3gui14CGUIStaticTextC1EPKwbPNS0_15IGUIEnvironmentEPNS0_11IGUIElementEiRKNS_4core4rectIiEEb @1116
    _ZN3irr3gui14CGUIStaticTextC2EPKwbPNS0_15IGUIEnvironmentEPNS0_11IGUIElementEiRKNS_4core4rectIiEEb @1117
    _ZN3irr3gui14CGUIStaticTextD0Ev @1118
    _ZN3irr3gui14CGUIStaticTextD1Ev @1119
    _ZN3irr3gui14CGUIStaticTextD2Ev @1120
    _ZN3irr3gui14CGUITabControl10scrollLeftEv @1121
    _ZN3irr3gui14CGUITabControl11removeChildEPNS0_11IGUIElementE @1122
    _ZN3irr3gui14CGUITabControl11scrollRightEv @1123
    _ZN3irr3gui14CGUITabControl12calcTabWidthEiPNS0_8IGUIFontEPKwb @1124
    _ZN3irr3gui14CGUITabControl12setActiveTabEPNS0_11IGUIElementE @1125
    _ZN3irr3gui14CGUITabControl12setActiveTabEi @1126
    _ZN3irr3gui14CGUITabControl12setTabHeightEi @1127
    _ZN3irr3gui14CGUITabControl14setTabMaxWidthEi @1128
    _ZN3irr3gui14CGUITabControl16setTabExtraWidthEi @1129
    _ZN3irr3gui14CGUITabControl17needScrollControlEib @1130
    _ZN3irr3gui14CGUITabControl20recalculateScrollBarEv @1131
    _ZN3irr3gui14CGUITabControl21deserializeAttributesEPNS_2io11IAttributesEPNS2_26SAttributeReadWriteOptionsE @1132
    _ZN3irr3gui14CGUITabControl22updateAbsolutePositionEv @1133
    _ZN3irr3gui14CGUITabControl23setTabVerticalAlignmentENS0_14EGUI_ALIGNMENTE @1134
    _ZN3irr3gui14CGUITabControl32recalculateScrollButtonPlacementEv @1135
    _ZN3irr3gui14CGUITabControl4drawEv @1136
    _ZN3irr3gui14CGUITabControl6addTabEPKwi @1137
    _ZN3irr3gui14CGUITabControl6addTabEPNS0_7CGUITabE @1138
    _ZN3irr3gui14CGUITabControl7OnEventERKNS_6SEventE @1139
    _ZN3irr3gui14CGUITabControl9selectTabENS_4core8vector2dIiEE @1140
    _ZN3irr3gui14CGUITabControlC1EPNS0_15IGUIEnvironmentEPNS0_11IGUIElementERKNS_4core4rectIiEEbbi @1141
    _ZN3irr3gui14CGUITabControlC2EPNS0_15IGUIEnvironmentEPNS0_11IGUIElementERKNS_4core4rectIiEEbbi @1142
    _ZN3irr3gui14CGUITabControlD0Ev @1143
    _ZN3irr3gui14CGUITabControlD1Ev @1144
    _ZN3irr3gui14CGUITabControlD2Ev @1145
    _ZN3irr3gui14ICursorControlD0Ev @1146
    _ZN3irr3gui14ICursorControlD1Ev @1147
    _ZN3irr3gui14IGUIFontBitmapD0Ev @1148
    _ZN3irr3gui14IGUIFontBitmapD1Ev @1149
    _ZN3irr3gui14IGUIInOutFaderD0Ev @1150
    _ZN3irr3gui14IGUIInOutFaderD1Ev @1151
    _ZN3irr3gui14IGUIInOutFaderD2Ev @1152
    _ZN3irr3gui14IGUIMeshViewerD0Ev @1153
    _ZN3irr3gui14IGUIMeshViewerD1Ev @1154
    _ZN3irr3gui14IGUIMeshViewerD2Ev @1155
    _ZN3irr3gui14IGUISpriteBankD0Ev @1156
    _ZN3irr3gui14IGUISpriteBankD1Ev @1157
    _ZN3irr3gui14IGUIStaticTextD0Ev @1158
    _ZN3irr3gui14IGUIStaticTextD1Ev @1159
    _ZN3irr3gui14IGUIStaticTextD2Ev @1160
    _ZN3irr3gui14IGUITabControlD0Ev @1161
    _ZN3irr3gui14IGUITabControlD1Ev @1162
    _ZN3irr3gui14IGUITabControlD2Ev @1163
    _ZN3irr3gui15BuiltInFontDataE @1164 DATA
    _ZN3irr3gui15CGUIContextMenu10insertItemEjPKwibbbb @1165
    _ZN3irr3gui15CGUIContextMenu10removeItemEj @1166
    _ZN3irr3gui15CGUIContextMenu10setSubMenuEjPS1_ @1167
    _ZN3irr3gui15CGUIContextMenu10setVisibleEb @1168
    _ZN3irr3gui15CGUIContextMenu11setItemTextEjPKw @1169
    _ZN3irr3gui15CGUIContextMenu12addSeparatorEv @1170
    _ZN3irr3gui15CGUIContextMenu14removeAllItemsEv @1171
    _ZN3irr3gui15CGUIContextMenu14setEventParentEPNS0_11IGUIElementE @1172
    _ZN3irr3gui15CGUIContextMenu14setItemCheckedEjb @1173
    _ZN3irr3gui15CGUIContextMenu14setItemEnabledEjb @1174
    _ZN3irr3gui15CGUIContextMenu15recalculateSizeEv @1175
    _ZN3irr3gui15CGUIContextMenu16closeAllSubMenusEv @1176
    _ZN3irr3gui15CGUIContextMenu16setCloseHandlingENS0_19ECONTEXT_MENU_CLOSEE @1177
    _ZN3irr3gui15CGUIContextMenu16setItemCommandIdEji @1178
    _ZN3irr3gui15CGUIContextMenu19setItemAutoCheckingEjb @1179
    _ZN3irr3gui15CGUIContextMenu21deserializeAttributesEPNS_2io11IAttributesEPNS2_26SAttributeReadWriteOptionsE @1180
    _ZN3irr3gui15CGUIContextMenu4drawEv @1181
    _ZN3irr3gui15CGUIContextMenu7OnEventERKNS_6SEventE @1182
    _ZN3irr3gui15CGUIContextMenu7addItemEPKwibbbb @1183
    _ZN3irr3gui15CGUIContextMenu9highlightERKNS_4core8vector2dIiEEb @1184
    _ZN3irr3gui15CGUIContextMenu9sendClickERKNS_4core8vector2dIiEE @1185
    _ZN3irr3gui15CGUIContextMenuC1EPNS0_15IGUIEnvironmentEPNS0_11IGUIElementEiNS_4core4rectIiEEbb @1186
    _ZN3irr3gui15CGUIContextMenuC2EPNS0_15IGUIEnvironmentEPNS0_11IGUIElementEiNS_4core4rectIiEEbb @1187
    _ZN3irr3gui15CGUIContextMenuD0Ev @1188
    _ZN3irr3gui15CGUIContextMenuD1Ev @1189
    _ZN3irr3gui15CGUIContextMenuD2Ev @1190
    _ZN3irr3gui15CGUIEnvironment10addEditBoxEPKwRKNS_4core4rectIiEEbPNS0_11IGUIElementEi @1191
    _ZN3irr3gui15CGUIEnvironment10addListBoxERKNS_4core4rectIiEEPNS0_11IGUIElementEib @1192
    _ZN3irr3gui15CGUIEnvironment10addSpinBoxEPKwRKNS_4core4rectIiEEbPNS0_11IGUIElementEi @1193
    _ZN3irr3gui15CGUIEnvironment10addToolBarEPNS0_11IGUIElementEi @1194
    _ZN3irr3gui15CGUIEnvironment10createSkinENS0_14EGUI_SKIN_TYPEE @1195
    _ZN3irr3gui15CGUIEnvironment11addCheckBoxEbRKNS_4core4rectIiEEPNS0_11IGUIElementEiPKw @1196
    _ZN3irr3gui15CGUIEnvironment11addComboBoxERKNS_4core4rectIiEEPNS0_11IGUIElementEi @1197
    _ZN3irr3gui15CGUIEnvironment11addTreeViewERKNS_4core4rectIiEEPNS0_11IGUIElementEibbb @1198
    _ZN3irr3gui15CGUIEnvironment11removeFocusEPNS0_11IGUIElementE @1199
    _ZN3irr3gui15CGUIEnvironment12OnPostRenderEj @1200
    _ZN3irr3gui15CGUIEnvironment12addScrollBarEbRKNS_4core4rectIiEEPNS0_11IGUIElementEi @1201
    _ZN3irr3gui15CGUIEnvironment13addGUIElementEPKcPNS0_11IGUIElementE @1202
    _ZN3irr3gui15CGUIEnvironment13addInOutFaderEPKNS_4core4rectIiEEPNS0_11IGUIElementEi @1203
    _ZN3irr3gui15CGUIEnvironment13addMeshViewerERKNS_4core4rectIiEEPNS0_11IGUIElementEiPKw @1204
    _ZN3irr3gui15CGUIEnvironment13addMessageBoxEPKwS3_biPNS0_11IGUIElementEiPNS_5video8ITextureE @1205
    _ZN3irr3gui15CGUIEnvironment13addStaticTextEPKwRKNS_4core4rectIiEEbbPNS0_11IGUIElementEib @1206
    _ZN3irr3gui15CGUIEnvironment13addTabControlERKNS_4core4rectIiEEPNS0_11IGUIElementEbbi @1207
    _ZN3irr3gui15CGUIEnvironment13getSpriteBankERKNS_4core6stringIcNS2_12irrAllocatorIcEEEE @1208
    _ZN3irr3gui15CGUIEnvironment14addContextMenuERKNS_4core4rectIiEEPNS0_11IGUIElementEi @1209
    _ZN3irr3gui15CGUIEnvironment14addModalScreenEPNS0_11IGUIElementE @1210
    _ZN3irr3gui15CGUIEnvironment14getNextElementEbb @1211
    _ZN3irr3gui15CGUIEnvironment14readGUIElementEPNS_2io13IIrrXMLReaderIwNS_17IReferenceCountedEEEPNS0_11IGUIElementE @1212
    _ZN3irr3gui15CGUIEnvironment15createImageListEPNS_5video8ITextureENS_4core11dimension2dIiEEb @1213
    _ZN3irr3gui15CGUIEnvironment15loadBuiltInFontEv @1214
    _ZN3irr3gui15CGUIEnvironment15writeGUIElementEPNS_2io10IXMLWriterEPNS0_11IGUIElementE @1215
    _ZN3irr3gui15CGUIEnvironment17addFileOpenDialogEPKwbPNS0_11IGUIElementEi @1216
    _ZN3irr3gui15CGUIEnvironment17getRootGUIElementEv @1217
    _ZN3irr3gui15CGUIEnvironment17postEventFromUserERKNS_6SEventE @1218
    _ZN3irr3gui15CGUIEnvironment18addEmptySpriteBankERKNS_4core6stringIcNS2_12irrAllocatorIcEEEE @1219
    _ZN3irr3gui15CGUIEnvironment20addColorSelectDialogEPKwbPNS0_11IGUIElementEi @1220
    _ZN3irr3gui15CGUIEnvironment20setUserEventReceiverEPNS_14IEventReceiverE @1221
    _ZN3irr3gui15CGUIEnvironment20updateHoveredElementENS_4core8vector2dIiEE @1222
    _ZN3irr3gui15CGUIEnvironment21deserializeAttributesEPNS_2io11IAttributesEPNS2_26SAttributeReadWriteOptionsE @1223
    _ZN3irr3gui15CGUIEnvironment25registerGUIElementFactoryEPNS0_18IGUIElementFactoryE @1224
    _ZN3irr3gui15CGUIEnvironment5clearEv @1225
    _ZN3irr3gui15CGUIEnvironment6addTabERKNS_4core4rectIiEEPNS0_11IGUIElementEi @1226
    _ZN3irr3gui15CGUIEnvironment7OnEventERKNS_6SEventE @1227
    _ZN3irr3gui15CGUIEnvironment7addFontERKNS_4core6stringIcNS2_12irrAllocatorIcEEEEPNS0_8IGUIFontE @1228
    _ZN3irr3gui15CGUIEnvironment7addMenuEPNS0_11IGUIElementEi @1229
    _ZN3irr3gui15CGUIEnvironment7drawAllEv @1230
    _ZN3irr3gui15CGUIEnvironment7getFontERKNS_4core6stringIcNS2_12irrAllocatorIcEEEE @1231
    _ZN3irr3gui15CGUIEnvironment7loadGUIEPNS_2io9IReadFileEPNS0_11IGUIElementE @1232
    _ZN3irr3gui15CGUIEnvironment7loadGUIERKNS_4core6stringIcNS2_12irrAllocatorIcEEEEPNS0_11IGUIElementE @1233
    _ZN3irr3gui15CGUIEnvironment7saveGUIEPNS_2io10IWriteFileEPNS0_11IGUIElementE @1234
    _ZN3irr3gui15CGUIEnvironment7saveGUIERKNS_4core6stringIcNS2_12irrAllocatorIcEEEEPNS0_11IGUIElementE @1235
    _ZN3irr3gui15CGUIEnvironment7setSkinEPNS0_8IGUISkinE @1236
    _ZN3irr3gui15CGUIEnvironment8addImageEPNS_5video8ITextureENS_4core8vector2dIiEEbPNS0_11IGUIElementEiPKw @1237
    _ZN3irr3gui15CGUIEnvironment8addImageERKNS_4core4rectIiEEPNS0_11IGUIElementEiPKw @1238
    _ZN3irr3gui15CGUIEnvironment8addTableERKNS_4core4rectIiEEPNS0_11IGUIElementEib @1239
    _ZN3irr3gui15CGUIEnvironment8setFocusEPNS0_11IGUIElementE @1240
    _ZN3irr3gui15CGUIEnvironment9addButtonERKNS_4core4rectIiEEPNS0_11IGUIElementEiPKwSA_ @1241
    _ZN3irr3gui15CGUIEnvironment9addWindowERKNS_4core4rectIiEEbPKwPNS0_11IGUIElementEi @1242
    _ZN3irr3gui15CGUIEnvironmentC1EPNS_2io11IFileSystemEPNS_5video12IVideoDriverEPNS_11IOSOperatorE @1243
    _ZN3irr3gui15CGUIEnvironmentC2EPNS_2io11IFileSystemEPNS_5video12IVideoDriverEPNS_11IOSOperatorE @1244
    _ZN3irr3gui15CGUIEnvironmentD0Ev @1245
    _ZN3irr3gui15CGUIEnvironmentD1Ev @1246
    _ZN3irr3gui15CGUIEnvironmentD2Ev @1247
    _ZN3irr3gui15CGUIModalScreen11removeChildEPNS0_11IGUIElementE @1248
    _ZN3irr3gui15CGUIModalScreen21deserializeAttributesEPNS_2io11IAttributesEPNS2_26SAttributeReadWriteOptionsE @1249
    _ZN3irr3gui15CGUIModalScreen22updateAbsolutePositionEv @1250
    _ZN3irr3gui15CGUIModalScreen4drawEv @1251
    _ZN3irr3gui15CGUIModalScreen7OnEventERKNS_6SEventE @1252
    _ZN3irr3gui15CGUIModalScreen8addChildEPNS0_11IGUIElementE @1253
    _ZN3irr3gui15CGUIModalScreenC1EPNS0_15IGUIEnvironmentEPNS0_11IGUIElementEi @1254
    _ZN3irr3gui15CGUIModalScreenC2EPNS0_15IGUIEnvironmentEPNS0_11IGUIElementEi @1255
    _ZN3irr3gui15CGUIModalScreenD0Ev @1256
    _ZN3irr3gui15CGUIModalScreenD1Ev @1257
    _ZN3irr3gui15IGUIContextMenuC2EPNS0_15IGUIEnvironmentEPNS0_11IGUIElementEiNS_4core4rectIiEE @1258
    _ZN3irr3gui15IGUIContextMenuD0Ev @1259
    _ZN3irr3gui15IGUIContextMenuD1Ev @1260
    _ZN3irr3gui15IGUIContextMenuD2Ev @1261
    _ZN3irr3gui15IGUIEnvironmentD0Ev @1262
    _ZN3irr3gui15IGUIEnvironmentD1Ev @1263
    _ZN3irr3gui16CGUITreeViewNode11clearChildsEv @1264
    _ZN3irr3gui16CGUITreeViewNode11deleteChildEPNS0_16IGUITreeViewNodeE @1265
    _ZN3irr3gui16CGUITreeViewNode11moveChildUpEPNS0_16IGUITreeViewNodeE @1266
    _ZN3irr3gui16CGUITreeViewNode11setExpandedEb @1267
    _ZN3irr3gui16CGUITreeViewNode11setSelectedEb @1268
    _ZN3irr3gui16CGUITreeViewNode12addChildBackEPKwS3_iiPvPNS_17IReferenceCountedE @1269
    _ZN3irr3gui16CGUITreeViewNode13addChildFrontEPKwS3_iiPvPNS_17IReferenceCountedE @1270
    _ZN3irr3gui16CGUITreeViewNode13moveChildDownEPNS0_16IGUITreeViewNodeE @1271
    _ZN3irr3gui16CGUITreeViewNode13setImageIndexEj @1272
    _ZN3irr3gui16CGUITreeViewNode16insertChildAfterEPNS0_16IGUITreeViewNodeEPKwS5_iiPvPNS_17IReferenceCountedE @1273
    _ZN3irr3gui16CGUITreeViewNode17insertChildBeforeEPNS0_16IGUITreeViewNodeEPKwS5_iiPvPNS_17IReferenceCountedE @1274
    _ZN3irr3gui16CGUITreeViewNode21setSelectedImageIndexEj @1275
    _ZN3irr3gui16CGUITreeViewNode7setDataEPv @1276
    _ZN3irr3gui16CGUITreeViewNode7setIconEPKw @1277
    _ZN3irr3gui16CGUITreeViewNode7setTextEPKw @1278
    _ZN3irr3gui16CGUITreeViewNode8setData2EPNS_17IReferenceCountedE @1279
    _ZN3irr3gui16CGUITreeViewNodeC1EPNS0_12CGUITreeViewEPS1_ @1280
    _ZN3irr3gui16CGUITreeViewNodeC2EPNS0_12CGUITreeViewEPS1_ @1281
    _ZN3irr3gui16CGUITreeViewNodeD0Ev @1282
    _ZN3irr3gui16CGUITreeViewNodeD1Ev @1283
    _ZN3irr3gui16CGUITreeViewNodeD2Ev @1284
    _ZN3irr3gui16IGUITreeViewNodeD0Ev @1285
    _ZN3irr3gui16IGUITreeViewNodeD1Ev @1286
    _ZN3irr3gui18CGUIFileOpenDialog11fillListBoxEv @1287
    _ZN3irr3gui18CGUIFileOpenDialog15sendCancelEventEv @1288
    _ZN3irr3gui18CGUIFileOpenDialog16getDirectoryNameEv @1289
    _ZN3irr3gui18CGUIFileOpenDialog17sendSelectedEventENS0_15EGUI_EVENT_TYPEE @1290
    _ZN3irr3gui18CGUIFileOpenDialog4drawEv @1291
    _ZN3irr3gui18CGUIFileOpenDialog7OnEventERKNS_6SEventE @1292
    _ZN3irr3gui18CGUIFileOpenDialogC1EPKwPNS0_15IGUIEnvironmentEPNS0_11IGUIElementEi @1293
    _ZN3irr3gui18CGUIFileOpenDialogC2EPKwPNS0_15IGUIEnvironmentEPNS0_11IGUIElementEi @1294
    _ZN3irr3gui18CGUIFileOpenDialogD0Ev @1295
    _ZN3irr3gui18CGUIFileOpenDialogD1Ev @1296
    _ZN3irr3gui18CGUIFileOpenDialogD2Ev @1297
    _ZN3irr3gui18IGUIElementFactoryD0Ev @1298
    _ZN3irr3gui18IGUIElementFactoryD1Ev @1299
    _ZN3irr3gui18IGUIFileOpenDialogD0Ev @1300
    _ZN3irr3gui18IGUIFileOpenDialogD1Ev @1301
    _ZN3irr3gui18IGUIFileOpenDialogD2Ev @1302
    _ZN3irr3gui19BuiltInFontDataSizeE @1303 DATA
    _ZN3irr3gui20createGUIEnvironmentEPNS_2io11IFileSystemEPNS_5video12IVideoDriverEPNS_11IOSOperatorE @1304
    _ZN3irr3gui21CGUIColorSelectDialog14buildColorRingERKNS_4core11dimension2dIjEEiRKNS_5video6SColorE @1305
    _ZN3irr3gui21CGUIColorSelectDialog15sendCancelEventEv @1306
    _ZN3irr3gui21CGUIColorSelectDialog17sendSelectedEventEv @1307
    _ZN3irr3gui21CGUIColorSelectDialog4drawEv @1308
    _ZN3irr3gui21CGUIColorSelectDialog7OnEventERKNS_6SEventE @1309
    _ZN3irr3gui21CGUIColorSelectDialogC1EPKwPNS0_15IGUIEnvironmentEPNS0_11IGUIElementEi @1310
    _ZN3irr3gui21CGUIColorSelectDialogC2EPKwPNS0_15IGUIEnvironmentEPNS0_11IGUIElementEi @1311
    _ZN3irr3gui21CGUIColorSelectDialogD0Ev @1312
    _ZN3irr3gui21CGUIColorSelectDialogD1Ev @1313
    _ZN3irr3gui21CGUIColorSelectDialogD2Ev @1314
    _ZN3irr3gui21IGUIColorSelectDialogD0Ev @1315
    _ZN3irr3gui21IGUIColorSelectDialogD1Ev @1316
    _ZN3irr3gui21IGUIColorSelectDialogD2Ev @1317
    _ZN3irr3gui22IRR_XML_FORMAT_GUI_ENVE @1318 DATA
    _ZN3irr3gui25CDefaultGUIElementFactory13addGUIElementENS0_17EGUI_ELEMENT_TYPEEPNS0_11IGUIElementE @1319
    _ZN3irr3gui25CDefaultGUIElementFactory13addGUIElementEPKcPNS0_11IGUIElementE @1320
    _ZN3irr3gui25CDefaultGUIElementFactoryC1EPNS0_15IGUIEnvironmentE @1321
    _ZN3irr3gui25CDefaultGUIElementFactoryC2EPNS0_15IGUIEnvironmentE @1322
    _ZN3irr3gui25CDefaultGUIElementFactoryD0Ev @1323
    _ZN3irr3gui25CDefaultGUIElementFactoryD1Ev @1324
    _ZN3irr3gui26IRR_XML_FORMAT_GUI_ELEMENTE @1325 DATA
    _ZN3irr3gui36IRR_XML_FORMAT_GUI_ELEMENT_ATTR_TYPEE @1326 DATA
    _ZN3irr3gui7CGUITab12setTextColorENS_5video6SColorE @1327
    _ZN3irr3gui7CGUITab17refreshSkinColorsEv @1328
    _ZN3irr3gui7CGUITab17setDrawBackgroundEb @1329
    _ZN3irr3gui7CGUITab18setBackgroundColorENS_5video6SColorE @1330
    _ZN3irr3gui7CGUITab21deserializeAttributesEPNS_2io11IAttributesEPNS2_26SAttributeReadWriteOptionsE @1331
    _ZN3irr3gui7CGUITab4drawEv @1332
    _ZN3irr3gui7CGUITab9setNumberEi @1333
    _ZN3irr3gui7CGUITabC1EiPNS0_15IGUIEnvironmentEPNS0_11IGUIElementERKNS_4core4rectIiEEi @1334
    _ZN3irr3gui7CGUITabC2EiPNS0_15IGUIEnvironmentEPNS0_11IGUIElementERKNS_4core4rectIiEEi @1335
    _ZN3irr3gui7CGUITabD0Ev @1336
    _ZN3irr3gui7CGUITabD1Ev @1337
    _ZN3irr3gui7IGUITabD0Ev @1338
    _ZN3irr3gui7IGUITabD1Ev @1339
    _ZN3irr3gui7IGUITabD2Ev @1340
    _ZN3irr3gui8CGUIFont11loadTextureEPNS_5video6IImageERKNS_4core6stringIcNS5_12irrAllocatorIcEEEE @1341
    _ZN3irr3gui8CGUIFont12setMaxHeightEv @1342
    _ZN3irr3gui8CGUIFont13readPositionsEPNS_5video6IImageERi @1343
    _ZN3irr3gui8CGUIFont15setKerningWidthEi @1344
    _ZN3irr3gui8CGUIFont16setKerningHeightEi @1345
    _ZN3irr3gui8CGUIFont22setInvisibleCharactersEPKw @1346
    _ZN3irr3gui8CGUIFont4drawERKNS_4core6stringIwNS2_12irrAllocatorIwEEEERKNS2_4rectIiEENS_5video6SColorEbbPSB_ @1347
    _ZN3irr3gui8CGUIFont4loadEPNS_2io13IIrrXMLReaderIwNS_17IReferenceCountedEEE @1348
    _ZN3irr3gui8CGUIFont4loadEPNS_2io9IReadFileE @1349
    _ZN3irr3gui8CGUIFont4loadERKNS_4core6stringIcNS2_12irrAllocatorIcEEEE @1350
    _ZN3irr3gui8CGUIFontC1EPNS0_15IGUIEnvironmentERKNS_4core6stringIcNS4_12irrAllocatorIcEEEE @1351
    _ZN3irr3gui8CGUIFontC2EPNS0_15IGUIEnvironmentERKNS_4core6stringIcNS4_12irrAllocatorIcEEEE @1352
    _ZN3irr3gui8CGUIFontD0Ev @1353
    _ZN3irr3gui8CGUIFontD1Ev @1354
    _ZN3irr3gui8CGUIFontD2Ev @1355
    _ZN3irr3gui8CGUIMenu15recalculateSizeEv @1356
    _ZN3irr3gui8CGUIMenu22updateAbsolutePositionEv @1357
    _ZN3irr3gui8CGUIMenu4drawEv @1358
    _ZN3irr3gui8CGUIMenu7OnEventERKNS_6SEventE @1359
    _ZN3irr3gui8CGUIMenuC1EPNS0_15IGUIEnvironmentEPNS0_11IGUIElementEiNS_4core4rectIiEE @1360
    _ZN3irr3gui8CGUIMenuC2EPNS0_15IGUIEnvironmentEPNS0_11IGUIElementEiNS_4core4rectIiEE @1361
    _ZN3irr3gui8CGUIMenuD0Ev @1362
    _ZN3irr3gui8CGUIMenuD1Ev @1363
    _ZN3irr3gui8CGUISkin13draw3DTabBodyEPNS0_11IGUIElementEbbRKNS_4core4rectIiEEPS7_iNS0_14EGUI_ALIGNMENTE @1364
    _ZN3irr3gui8CGUISkin13draw3DToolBarEPNS0_11IGUIElementERKNS_4core4rectIiEEPS7_ @1365
    _ZN3irr3gui8CGUISkin13setSpriteBankEPNS0_14IGUISpriteBankE @1366
    _ZN3irr3gui8CGUISkin14draw3DMenuPaneEPNS0_11IGUIElementERKNS_4core4rectIiEEPS7_ @1367
    _ZN3irr3gui8CGUISkin14setDefaultTextENS0_17EGUI_DEFAULT_TEXTEPKw @1368
    _ZN3irr3gui8CGUISkin15draw2DRectangleEPNS0_11IGUIElementERKNS_5video6SColorERKNS_4core4rectIiEEPSB_ @1369
    _ZN3irr3gui8CGUISkin15draw3DTabButtonEPNS0_11IGUIElementEbRKNS_4core4rectIiEEPS7_NS0_14EGUI_ALIGNMENTE @1370
    _ZN3irr3gui8CGUISkin16draw3DSunkenPaneEPNS0_11IGUIElementENS_5video6SColorEbbRKNS_4core4rectIiEEPS9_ @1371
    _ZN3irr3gui8CGUISkin21deserializeAttributesEPNS_2io11IAttributesEPNS2_26SAttributeReadWriteOptionsE @1372
    _ZN3irr3gui8CGUISkin22draw3DWindowBackgroundEPNS0_11IGUIElementEbNS_5video6SColorERKNS_4core4rectIiEEPS9_PS8_ @1373
    _ZN3irr3gui8CGUISkin23draw3DButtonPanePressedEPNS0_11IGUIElementERKNS_4core4rectIiEEPS7_ @1374
    _ZN3irr3gui8CGUISkin24draw3DButtonPaneStandardEPNS0_11IGUIElementERKNS_4core4rectIiEEPS7_ @1375
    _ZN3irr3gui8CGUISkin7setFontEPNS0_8IGUIFontENS0_17EGUI_DEFAULT_FONTE @1376
    _ZN3irr3gui8CGUISkin7setIconENS0_17EGUI_DEFAULT_ICONEj @1377
    _ZN3irr3gui8CGUISkin7setSizeENS0_17EGUI_DEFAULT_SIZEEi @1378
    _ZN3irr3gui8CGUISkin8drawIconEPNS0_11IGUIElementENS0_17EGUI_DEFAULT_ICONENS_4core8vector2dIiEEjjbPKNS5_4rectIiEE @1379
    _ZN3irr3gui8CGUISkin8setColorENS0_18EGUI_DEFAULT_COLORENS_5video6SColorE @1380
    _ZN3irr3gui8CGUISkinC1ENS0_14EGUI_SKIN_TYPEEPNS_5video12IVideoDriverE @1381
    _ZN3irr3gui8CGUISkinC2ENS0_14EGUI_SKIN_TYPEEPNS_5video12IVideoDriverE @1382
    _ZN3irr3gui8CGUISkinD0Ev @1383
    _ZN3irr3gui8CGUISkinD1Ev @1384
    _ZN3irr3gui8CGUISkinD2Ev @1385
    _ZN3irr3gui8IGUIFontD0Ev @1386
    _ZN3irr3gui8IGUIFontD1Ev @1387
    _ZN3irr3gui8IGUISkinD0Ev @1388
    _ZN3irr3gui8IGUISkinD1Ev @1389
    _ZN3irr3gui9CGUIImage13setScaleImageEb @1390
    _ZN3irr3gui9CGUIImage18setUseAlphaChannelEb @1391
    _ZN3irr3gui9CGUIImage21deserializeAttributesEPNS_2io11IAttributesEPNS2_26SAttributeReadWriteOptionsE @1392
    _ZN3irr3gui9CGUIImage4drawEv @1393
    _ZN3irr3gui9CGUIImage8setColorENS_5video6SColorE @1394
    _ZN3irr3gui9CGUIImage8setImageEPNS_5video8ITextureE @1395
    _ZN3irr3gui9CGUIImageC1EPNS0_15IGUIEnvironmentEPNS0_11IGUIElementEiNS_4core4rectIiEE @1396
    _ZN3irr3gui9CGUIImageC2EPNS0_15IGUIEnvironmentEPNS0_11IGUIElementEiNS_4core4rectIiEE @1397
    _ZN3irr3gui9CGUIImageD0Ev @1398
    _ZN3irr3gui9CGUIImageD1Ev @1399
    _ZN3irr3gui9CGUIImageD2Ev @1400
    _ZN3irr3gui9CGUITable11setCellDataEjjPv @1401
    _ZN3irr3gui9CGUITable11setCellTextEjjRKNS_4core6stringIwNS2_12irrAllocatorIwEEEE @1402
    _ZN3irr3gui9CGUITable11setCellTextEjjRKNS_4core6stringIwNS2_12irrAllocatorIwEEEENS_5video6SColorE @1403
    _ZN3irr3gui9CGUITable11setSelectedEi @1404
    _ZN3irr3gui9CGUITable12removeColumnEj @1405
    _ZN3irr3gui9CGUITable12setCellColorEjjNS_5video6SColorE @1406
    _ZN3irr3gui9CGUITable12setDrawFlagsEi @1407
    _ZN3irr3gui9CGUITable14setColumnWidthEjj @1408
    _ZN3irr3gui9CGUITable15checkScrollbarsEv @1409
    _ZN3irr3gui9CGUITable15dragColumnStartEii @1410
    _ZN3irr3gui9CGUITable15refreshControlsEv @1411
    _ZN3irr3gui9CGUITable15setActiveColumnEib @1412
    _ZN3irr3gui9CGUITable16dragColumnUpdateEi @1413
    _ZN3irr3gui9CGUITable17recalculateWidthsEv @1414
    _ZN3irr3gui9CGUITable17setColumnOrderingEjNS0_20EGUI_COLUMN_ORDERINGE @1415
    _ZN3irr3gui9CGUITable18recalculateHeightsEv @1416
    _ZN3irr3gui9CGUITable18selectColumnHeaderEii @1417
    _ZN3irr3gui9CGUITable19setResizableColumnsEb @1418
    _ZN3irr3gui9CGUITable21deserializeAttributesEPNS_2io11IAttributesEPNS2_26SAttributeReadWriteOptionsE @1419
    _ZN3irr3gui9CGUITable3RowD1Ev @1420
    _ZN3irr3gui9CGUITable4CellC1ERKS2_ @1421
    _ZN3irr3gui9CGUITable4CellD1Ev @1422
    _ZN3irr3gui9CGUITable4drawEv @1423
    _ZN3irr3gui9CGUITable5clearEv @1424
    _ZN3irr3gui9CGUITable6addRowEj @1425
    _ZN3irr3gui9CGUITable7OnEventERKNS_6SEventE @1426
    _ZN3irr3gui9CGUITable8swapRowsEjj @1427
    _ZN3irr3gui9CGUITable9addColumnEPKwi @1428
    _ZN3irr3gui9CGUITable9breakTextERKNS_4core6stringIwNS2_12irrAllocatorIwEEEERS6_j @1429
    _ZN3irr3gui9CGUITable9clearRowsEv @1430
    _ZN3irr3gui9CGUITable9orderRowsEiNS0_18EGUI_ORDERING_MODEE @1431
    _ZN3irr3gui9CGUITable9removeRowEj @1432
    _ZN3irr3gui9CGUITable9selectNewEib @1433
    _ZN3irr3gui9CGUITableC1EPNS0_15IGUIEnvironmentEPNS0_11IGUIElementEiRKNS_4core4rectIiEEbbb @1434
    _ZN3irr3gui9CGUITableC2EPNS0_15IGUIEnvironmentEPNS0_11IGUIElementEiRKNS_4core4rectIiEEbbb @1435
    _ZN3irr3gui9CGUITableD0Ev @1436
    _ZN3irr3gui9CGUITableD1Ev @1437
    _ZN3irr3gui9CGUITableD2Ev @1438
    _ZN3irr3gui9IGUIImageD0Ev @1439
    _ZN3irr3gui9IGUIImageD1Ev @1440
    _ZN3irr3gui9IGUIImageD2Ev @1441
    _ZN3irr3gui9IGUITableC2EPNS0_15IGUIEnvironmentEPNS0_11IGUIElementEiNS_4core4rectIiEE @1442
    _ZN3irr3gui9IGUITableD0Ev @1443
    _ZN3irr3gui9IGUITableD1Ev @1444
    _ZN3irr3gui9IGUITableD2Ev @1445
    _ZN3irr4core10quaternion5slerpES1_S1_f @1446
    _ZN3irr4core10quaternionC1ERKNS0_8vector3dIfEE @1447
    _ZN3irr4core10rle_decodeEPhiS1_i @1448
    _ZN3irr4core10rle_encodeEPhiS1_i @1449
    _ZN3irr4core12flush_outbufEPhi @1450
    _ZN3irr4core12irrAllocatorINS0_10triangle3dIfEEE12internal_newEj @1451
    _ZN3irr4core12irrAllocatorINS0_10triangle3dIfEEE15internal_deleteEPv @1452
    _ZN3irr4core12irrAllocatorINS0_10triangle3dIfEEED0Ev @1453
    _ZN3irr4core12irrAllocatorINS0_10triangle3dIfEEED1Ev @1454
    _ZN3irr4core12irrAllocatorINS0_4listIPNS_3gui11IGUIElementEE10SKListNodeEE12internal_newEj @1455
    _ZN3irr4core12irrAllocatorINS0_4listIPNS_3gui11IGUIElementEE10SKListNodeEE15internal_deleteEPv @1456
    _ZN3irr4core12irrAllocatorINS0_4listIPNS_3gui11IGUIElementEE10SKListNodeEED0Ev @1457
    _ZN3irr4core12irrAllocatorINS0_4listIPNS_3gui11IGUIElementEE10SKListNodeEED1Ev @1458
    _ZN3irr4core12irrAllocatorINS0_4listIPNS_3gui16CGUITreeViewNodeEE10SKListNodeEE12internal_newEj @1459
    _ZN3irr4core12irrAllocatorINS0_4listIPNS_3gui16CGUITreeViewNodeEE10SKListNodeEE15internal_deleteEPv @1460
    _ZN3irr4core12irrAllocatorINS0_4listIPNS_3gui16CGUITreeViewNodeEE10SKListNodeEED0Ev @1461
    _ZN3irr4core12irrAllocatorINS0_4listIPNS_3gui16CGUITreeViewNodeEE10SKListNodeEED1Ev @1462
    _ZN3irr4core12irrAllocatorINS0_4listIPNS_5scene10ISceneNodeEE10SKListNodeEE12internal_newEj @1463
    _ZN3irr4core12irrAllocatorINS0_4listIPNS_5scene10ISceneNodeEE10SKListNodeEE15internal_deleteEPv @1464
    _ZN3irr4core12irrAllocatorINS0_4listIPNS_5scene10ISceneNodeEE10SKListNodeEED0Ev @1465
    _ZN3irr4core12irrAllocatorINS0_4listIPNS_5scene10ISceneNodeEE10SKListNodeEED1Ev @1466
    _ZN3irr4core12irrAllocatorINS0_4listIPNS_5scene17IParticleAffectorEE10SKListNodeEE12internal_newEj @1467
    _ZN3irr4core12irrAllocatorINS0_4listIPNS_5scene17IParticleAffectorEE10SKListNodeEE15internal_deleteEPv @1468
    _ZN3irr4core12irrAllocatorINS0_4listIPNS_5scene17IParticleAffectorEE10SKListNodeEED0Ev @1469
    _ZN3irr4core12irrAllocatorINS0_4listIPNS_5scene17IParticleAffectorEE10SKListNodeEED1Ev @1470
    _ZN3irr4core12irrAllocatorINS0_4listIPNS_5scene18ISceneNodeAnimatorEE10SKListNodeEE12internal_newEj @1471
    _ZN3irr4core12irrAllocatorINS0_4listIPNS_5scene18ISceneNodeAnimatorEE10SKListNodeEE15internal_deleteEPv @1472
    _ZN3irr4core12irrAllocatorINS0_4listIPNS_5scene18ISceneNodeAnimatorEE10SKListNodeEED0Ev @1473
    _ZN3irr4core12irrAllocatorINS0_4listIPNS_5scene18ISceneNodeAnimatorEE10SKListNodeEED1Ev @1474
    _ZN3irr4core12irrAllocatorINS0_4rectIiEEE12internal_newEj @1475
    _ZN3irr4core12irrAllocatorINS0_4rectIiEEE15internal_deleteEPv @1476
    _ZN3irr4core12irrAllocatorINS0_4rectIiEEED0Ev @1477
    _ZN3irr4core12irrAllocatorINS0_4rectIiEEED1Ev @1478
    _ZN3irr4core12irrAllocatorINS0_5arrayINS0_8vector2dIfEENS1_IS4_EEEEE12internal_newEj @1479
    _ZN3irr4core12irrAllocatorINS0_5arrayINS0_8vector2dIfEENS1_IS4_EEEEE15internal_deleteEPv @1480
    _ZN3irr4core12irrAllocatorINS0_5arrayINS0_8vector2dIfEENS1_IS4_EEEEED0Ev @1481
    _ZN3irr4core12irrAllocatorINS0_5arrayINS0_8vector2dIfEENS1_IS4_EEEEED1Ev @1482
    _ZN3irr4core12irrAllocatorINS0_5arrayIPNS_5scene11IMeshBufferENS1_IS5_EEEEE12internal_newEj @1483
    _ZN3irr4core12irrAllocatorINS0_5arrayIPNS_5scene11IMeshBufferENS1_IS5_EEEEE15internal_deleteEPv @1484
    _ZN3irr4core12irrAllocatorINS0_5arrayIPNS_5scene11IMeshBufferENS1_IS5_EEEEE9constructEPS7_RKS7_ @1485
    _ZN3irr4core12irrAllocatorINS0_5arrayIPNS_5scene11IMeshBufferENS1_IS5_EEEEED0Ev @1486
    _ZN3irr4core12irrAllocatorINS0_5arrayIPNS_5scene11IMeshBufferENS1_IS5_EEEEED1Ev @1487
    _ZN3irr4core12irrAllocatorINS0_5arrayIbNS1_IbEEEEE12internal_newEj @1488
    _ZN3irr4core12irrAllocatorINS0_5arrayIbNS1_IbEEEEE15internal_deleteEPv @1489
    _ZN3irr4core12irrAllocatorINS0_5arrayIbNS1_IbEEEEED0Ev @1490
    _ZN3irr4core12irrAllocatorINS0_5arrayIbNS1_IbEEEEED1Ev @1491
    _ZN3irr4core12irrAllocatorINS0_5arrayIfNS1_IfEEEEE12internal_newEj @1492
    _ZN3irr4core12irrAllocatorINS0_5arrayIfNS1_IfEEEEE15internal_deleteEPv @1493
    _ZN3irr4core12irrAllocatorINS0_5arrayIfNS1_IfEEEEED0Ev @1494
    _ZN3irr4core12irrAllocatorINS0_5arrayIfNS1_IfEEEEED1Ev @1495
    _ZN3irr4core12irrAllocatorINS0_5arrayIjNS1_IjEEEEE12internal_newEj @1496
    _ZN3irr4core12irrAllocatorINS0_5arrayIjNS1_IjEEEEE15internal_deleteEPv @1497
    _ZN3irr4core12irrAllocatorINS0_5arrayIjNS1_IjEEEEED0Ev @1498
    _ZN3irr4core12irrAllocatorINS0_5arrayIjNS1_IjEEEEED1Ev @1499
    _ZN3irr4core12irrAllocatorINS0_6stringIcNS1_IcEEEEE12internal_newEj @1500
    _ZN3irr4core12irrAllocatorINS0_6stringIcNS1_IcEEEEE15internal_deleteEPv @1501
    _ZN3irr4core12irrAllocatorINS0_6stringIcNS1_IcEEEEE9constructEPS4_RKS4_ @1502
    _ZN3irr4core12irrAllocatorINS0_6stringIcNS1_IcEEEEED0Ev @1503
    _ZN3irr4core12irrAllocatorINS0_6stringIcNS1_IcEEEEED1Ev @1504
    _ZN3irr4core12irrAllocatorINS0_6stringImNS1_ImEEEEE12internal_newEj @1505
    _ZN3irr4core12irrAllocatorINS0_6stringImNS1_ImEEEEE15internal_deleteEPv @1506
    _ZN3irr4core12irrAllocatorINS0_6stringImNS1_ImEEEEED0Ev @1507
    _ZN3irr4core12irrAllocatorINS0_6stringImNS1_ImEEEEED1Ev @1508
    _ZN3irr4core12irrAllocatorINS0_6stringItNS1_ItEEEEE12internal_newEj @1509
    _ZN3irr4core12irrAllocatorINS0_6stringItNS1_ItEEEEE15internal_deleteEPv @1510
    _ZN3irr4core12irrAllocatorINS0_6stringItNS1_ItEEEEED0Ev @1511
    _ZN3irr4core12irrAllocatorINS0_6stringItNS1_ItEEEEED1Ev @1512
    _ZN3irr4core12irrAllocatorINS0_6stringIwNS1_IwEEEEE12internal_newEj @1513
    _ZN3irr4core12irrAllocatorINS0_6stringIwNS1_IwEEEEE15internal_deleteEPv @1514
    _ZN3irr4core12irrAllocatorINS0_6stringIwNS1_IwEEEEED0Ev @1515
    _ZN3irr4core12irrAllocatorINS0_6stringIwNS1_IwEEEEED1Ev @1516
    _ZN3irr4core12irrAllocatorINS0_8CMatrix4IfEEE12internal_newEj @1517
    _ZN3irr4core12irrAllocatorINS0_8CMatrix4IfEEE15internal_deleteEPv @1518
    _ZN3irr4core12irrAllocatorINS0_8CMatrix4IfEEED0Ev @1519
    _ZN3irr4core12irrAllocatorINS0_8CMatrix4IfEEED1Ev @1520
    _ZN3irr4core12irrAllocatorINS0_8aabbox3dIfEEE12internal_newEj @1521
    _ZN3irr4core12irrAllocatorINS0_8aabbox3dIfEEE15internal_deleteEPv @1522
    _ZN3irr4core12irrAllocatorINS0_8aabbox3dIfEEED0Ev @1523
    _ZN3irr4core12irrAllocatorINS0_8aabbox3dIfEEED1Ev @1524
    _ZN3irr4core12irrAllocatorINS0_8vector2dIfEEE12internal_newEj @1525
    _ZN3irr4core12irrAllocatorINS0_8vector2dIfEEE15internal_deleteEPv @1526
    _ZN3irr4core12irrAllocatorINS0_8vector2dIfEEED0Ev @1527
    _ZN3irr4core12irrAllocatorINS0_8vector2dIfEEED1Ev @1528
    _ZN3irr4core12irrAllocatorINS0_8vector2dIiEEE12internal_newEj @1529
    _ZN3irr4core12irrAllocatorINS0_8vector2dIiEEE15internal_deleteEPv @1530
    _ZN3irr4core12irrAllocatorINS0_8vector2dIiEEED0Ev @1531
    _ZN3irr4core12irrAllocatorINS0_8vector2dIiEEED1Ev @1532
    _ZN3irr4core12irrAllocatorINS0_8vector3dIfEEE12internal_newEj @1533
    _ZN3irr4core12irrAllocatorINS0_8vector3dIfEEE15internal_deleteEPv @1534
    _ZN3irr4core12irrAllocatorINS0_8vector3dIfEEED0Ev @1535
    _ZN3irr4core12irrAllocatorINS0_8vector3dIfEEED1Ev @1536
    _ZN3irr4core12irrAllocatorINS_15CIrrDeviceWin3212JoystickInfoEE12internal_newEj @1537
    _ZN3irr4core12irrAllocatorINS_15CIrrDeviceWin3212JoystickInfoEE15internal_deleteEPv @1538
    _ZN3irr4core12irrAllocatorINS_15CIrrDeviceWin3212JoystickInfoEED0Ev @1539
    _ZN3irr4core12irrAllocatorINS_15CIrrDeviceWin3212JoystickInfoEED1Ev @1540
    _ZN3irr4core12irrAllocatorINS_17CIrrDeviceConsole16SPostPresentTextEE12internal_newEj @1541
    _ZN3irr4core12irrAllocatorINS_17CIrrDeviceConsole16SPostPresentTextEE15internal_deleteEPv @1542
    _ZN3irr4core12irrAllocatorINS_17CIrrDeviceConsole16SPostPresentTextEED0Ev @1543
    _ZN3irr4core12irrAllocatorINS_17CIrrDeviceConsole16SPostPresentTextEED1Ev @1544
    _ZN3irr4core12irrAllocatorINS_2io13SZipFileEntryEE12internal_newEj @1545
    _ZN3irr4core12irrAllocatorINS_2io13SZipFileEntryEE15internal_deleteEPv @1546
    _ZN3irr4core12irrAllocatorINS_2io13SZipFileEntryEED0Ev @1547
    _ZN3irr4core12irrAllocatorINS_2io13SZipFileEntryEED1Ev @1548
    _ZN3irr4core12irrAllocatorINS_2io14CXMLReaderImplIcNS2_8IXMLBaseEE10SAttributeEE12internal_newEj @1549
    _ZN3irr4core12irrAllocatorINS_2io14CXMLReaderImplIcNS2_8IXMLBaseEE10SAttributeEE15internal_deleteEPv @1550
    _ZN3irr4core12irrAllocatorINS_2io14CXMLReaderImplIcNS2_8IXMLBaseEE10SAttributeEED0Ev @1551
    _ZN3irr4core12irrAllocatorINS_2io14CXMLReaderImplIcNS2_8IXMLBaseEE10SAttributeEED1Ev @1552
    _ZN3irr4core12irrAllocatorINS_2io14CXMLReaderImplIcNS_17IReferenceCountedEE10SAttributeEE12internal_newEj @1553
    _ZN3irr4core12irrAllocatorINS_2io14CXMLReaderImplIcNS_17IReferenceCountedEE10SAttributeEE15internal_deleteEPv @1554
    _ZN3irr4core12irrAllocatorINS_2io14CXMLReaderImplIcNS_17IReferenceCountedEE10SAttributeEED0Ev @1555
    _ZN3irr4core12irrAllocatorINS_2io14CXMLReaderImplIcNS_17IReferenceCountedEE10SAttributeEED1Ev @1556
    _ZN3irr4core12irrAllocatorINS_2io14CXMLReaderImplImNS2_8IXMLBaseEE10SAttributeEE12internal_newEj @1557
    _ZN3irr4core12irrAllocatorINS_2io14CXMLReaderImplImNS2_8IXMLBaseEE10SAttributeEE15internal_deleteEPv @1558
    _ZN3irr4core12irrAllocatorINS_2io14CXMLReaderImplImNS2_8IXMLBaseEE10SAttributeEED0Ev @1559
    _ZN3irr4core12irrAllocatorINS_2io14CXMLReaderImplImNS2_8IXMLBaseEE10SAttributeEED1Ev @1560
    _ZN3irr4core12irrAllocatorINS_2io14CXMLReaderImplItNS2_8IXMLBaseEE10SAttributeEE12internal_newEj @1561
    _ZN3irr4core12irrAllocatorINS_2io14CXMLReaderImplItNS2_8IXMLBaseEE10SAttributeEE15internal_deleteEPv @1562
    _ZN3irr4core12irrAllocatorINS_2io14CXMLReaderImplItNS2_8IXMLBaseEE10SAttributeEED0Ev @1563
    _ZN3irr4core12irrAllocatorINS_2io14CXMLReaderImplItNS2_8IXMLBaseEE10SAttributeEED1Ev @1564
    _ZN3irr4core12irrAllocatorINS_2io14CXMLReaderImplIwNS_17IReferenceCountedEE10SAttributeEE12internal_newEj @1565
    _ZN3irr4core12irrAllocatorINS_2io14CXMLReaderImplIwNS_17IReferenceCountedEE10SAttributeEE15internal_deleteEPv @1566
    _ZN3irr4core12irrAllocatorINS_2io14CXMLReaderImplIwNS_17IReferenceCountedEE10SAttributeEED0Ev @1567
    _ZN3irr4core12irrAllocatorINS_2io14CXMLReaderImplIwNS_17IReferenceCountedEE10SAttributeEED1Ev @1568
    _ZN3irr4core12irrAllocatorINS_2io14SFileListEntryEE12internal_newEj @1569
    _ZN3irr4core12irrAllocatorINS_2io14SFileListEntryEE15internal_deleteEPv @1570
    _ZN3irr4core12irrAllocatorINS_2io14SFileListEntryEED0Ev @1571
    _ZN3irr4core12irrAllocatorINS_2io14SFileListEntryEED1Ev @1572
    _ZN3irr4core12irrAllocatorINS_3gui10SGUISpriteEE12internal_newEj @1573
    _ZN3irr4core12irrAllocatorINS_3gui10SGUISpriteEE15internal_deleteEPv @1574
    _ZN3irr4core12irrAllocatorINS_3gui10SGUISpriteEED0Ev @1575
    _ZN3irr4core12irrAllocatorINS_3gui10SGUISpriteEED1Ev @1576
    _ZN3irr4core12irrAllocatorINS_3gui11CGUIListBox8ListItemEE12internal_newEj @1577
    _ZN3irr4core12irrAllocatorINS_3gui11CGUIListBox8ListItemEE15internal_deleteEPv @1578
    _ZN3irr4core12irrAllocatorINS_3gui11CGUIListBox8ListItemEED0Ev @1579
    _ZN3irr4core12irrAllocatorINS_3gui11CGUIListBox8ListItemEED1Ev @1580
    _ZN3irr4core12irrAllocatorINS_3gui12CGUIComboBox10SComboDataEE12internal_newEj @1581
    _ZN3irr4core12irrAllocatorINS_3gui12CGUIComboBox10SComboDataEE15internal_deleteEPv @1582
    _ZN3irr4core12irrAllocatorINS_3gui12CGUIComboBox10SComboDataEED0Ev @1583
    _ZN3irr4core12irrAllocatorINS_3gui12CGUIComboBox10SComboDataEED1Ev @1584
    _ZN3irr4core12irrAllocatorINS_3gui14CGUISpriteBank10SDrawBatchEE12internal_newEj @1585
    _ZN3irr4core12irrAllocatorINS_3gui14CGUISpriteBank10SDrawBatchEE15internal_deleteEPv @1586
    _ZN3irr4core12irrAllocatorINS_3gui14CGUISpriteBank10SDrawBatchEED0Ev @1587
    _ZN3irr4core12irrAllocatorINS_3gui14CGUISpriteBank10SDrawBatchEED1Ev @1588
    _ZN3irr4core12irrAllocatorINS_3gui15CGUIContextMenu5SItemEE12internal_newEj @1589
    _ZN3irr4core12irrAllocatorINS_3gui15CGUIContextMenu5SItemEE15internal_deleteEPv @1590
    _ZN3irr4core12irrAllocatorINS_3gui15CGUIContextMenu5SItemEED0Ev @1591
    _ZN3irr4core12irrAllocatorINS_3gui15CGUIContextMenu5SItemEED1Ev @1592
    _ZN3irr4core12irrAllocatorINS_3gui15CGUIEnvironment11SSpriteBankEE12internal_newEj @1593
    _ZN3irr4core12irrAllocatorINS_3gui15CGUIEnvironment11SSpriteBankEE15internal_deleteEPv @1594
    _ZN3irr4core12irrAllocatorINS_3gui15CGUIEnvironment11SSpriteBankEED0Ev @1595
    _ZN3irr4core12irrAllocatorINS_3gui15CGUIEnvironment11SSpriteBankEED1Ev @1596
    _ZN3irr4core12irrAllocatorINS_3gui15CGUIEnvironment5SFontEE12internal_newEj @1597
    _ZN3irr4core12irrAllocatorINS_3gui15CGUIEnvironment5SFontEE15internal_deleteEPv @1598
    _ZN3irr4core12irrAllocatorINS_3gui15CGUIEnvironment5SFontEED0Ev @1599
    _ZN3irr4core12irrAllocatorINS_3gui15CGUIEnvironment5SFontEED1Ev @1600
    _ZN3irr4core12irrAllocatorINS_3gui15SGUISpriteFrameEE12internal_newEj @1601
    _ZN3irr4core12irrAllocatorINS_3gui15SGUISpriteFrameEE15internal_deleteEPv @1602
    _ZN3irr4core12irrAllocatorINS_3gui15SGUISpriteFrameEED0Ev @1603
    _ZN3irr4core12irrAllocatorINS_3gui15SGUISpriteFrameEED1Ev @1604
    _ZN3irr4core12irrAllocatorINS_3gui21CGUIColorSelectDialog12SBatteryItemEE12internal_newEj @1605
    _ZN3irr4core12irrAllocatorINS_3gui21CGUIColorSelectDialog12SBatteryItemEE15internal_deleteEPv @1606
    _ZN3irr4core12irrAllocatorINS_3gui21CGUIColorSelectDialog12SBatteryItemEED0Ev @1607
    _ZN3irr4core12irrAllocatorINS_3gui21CGUIColorSelectDialog12SBatteryItemEED1Ev @1608
    _ZN3irr4core12irrAllocatorINS_3gui8CGUIFont9SFontAreaEE12internal_newEj @1609
    _ZN3irr4core12irrAllocatorINS_3gui8CGUIFont9SFontAreaEE15internal_deleteEPv @1610
    _ZN3irr4core12irrAllocatorINS_3gui8CGUIFont9SFontAreaEED0Ev @1611
    _ZN3irr4core12irrAllocatorINS_3gui8CGUIFont9SFontAreaEED1Ev @1612
    _ZN3irr4core12irrAllocatorINS_3gui9CGUITable3RowEE12internal_newEj @1613
    _ZN3irr4core12irrAllocatorINS_3gui9CGUITable3RowEE15internal_deleteEPv @1614
    _ZN3irr4core12irrAllocatorINS_3gui9CGUITable3RowEED0Ev @1615
    _ZN3irr4core12irrAllocatorINS_3gui9CGUITable3RowEED1Ev @1616
    _ZN3irr4core12irrAllocatorINS_3gui9CGUITable4CellEE12internal_newEj @1617
    _ZN3irr4core12irrAllocatorINS_3gui9CGUITable4CellEE15internal_deleteEPv @1618
    _ZN3irr4core12irrAllocatorINS_3gui9CGUITable4CellEED0Ev @1619
    _ZN3irr4core12irrAllocatorINS_3gui9CGUITable4CellEED1Ev @1620
    _ZN3irr4core12irrAllocatorINS_3gui9CGUITable6ColumnEE12internal_newEj @1621
    _ZN3irr4core12irrAllocatorINS_3gui9CGUITable6ColumnEE15internal_deleteEPv @1622
    _ZN3irr4core12irrAllocatorINS_3gui9CGUITable6ColumnEED0Ev @1623
    _ZN3irr4core12irrAllocatorINS_3gui9CGUITable6ColumnEED1Ev @1624
    _ZN3irr4core12irrAllocatorINS_5scene10CMeshCache9MeshEntryEE12internal_newEj @1625
    _ZN3irr4core12irrAllocatorINS_5scene10CMeshCache9MeshEntryEE15internal_deleteEPv @1626
    _ZN3irr4core12irrAllocatorINS_5scene10CMeshCache9MeshEntryEED0Ev @1627
    _ZN3irr4core12irrAllocatorINS_5scene10CMeshCache9MeshEntryEED1Ev @1628
    _ZN3irr4core12irrAllocatorINS_5scene10SMD3VertexEE12internal_newEj @1629
    _ZN3irr4core12irrAllocatorINS_5scene10SMD3VertexEE15internal_deleteEPv @1630
    _ZN3irr4core12irrAllocatorINS_5scene10SMD3VertexEED0Ev @1631
    _ZN3irr4core12irrAllocatorINS_5scene10SMD3VertexEED1Ev @1632
    _ZN3irr4core12irrAllocatorINS_5scene10SMyTVertexEE12internal_newEj @1633
    _ZN3irr4core12irrAllocatorINS_5scene10SMyTVertexEE15internal_deleteEPv @1634
    _ZN3irr4core12irrAllocatorINS_5scene10SMyTVertexEED0Ev @1635
    _ZN3irr4core12irrAllocatorINS_5scene10SMyTVertexEED1Ev @1636
    _ZN3irr4core12irrAllocatorINS_5scene12CQ3LevelMesh10STexShaderEE12internal_newEj @1637
    _ZN3irr4core12irrAllocatorINS_5scene12CQ3LevelMesh10STexShaderEE15internal_deleteEPv @1638
    _ZN3irr4core12irrAllocatorINS_5scene12CQ3LevelMesh10STexShaderEED0Ev @1639
    _ZN3irr4core12irrAllocatorINS_5scene12CQ3LevelMesh10STexShaderEED1Ev @1640
    _ZN3irr4core12irrAllocatorINS_5scene12CQ3LevelMesh20S3DVertex2TCoords_64EE12internal_newEj @1641
    _ZN3irr4core12irrAllocatorINS_5scene12CQ3LevelMesh20S3DVertex2TCoords_64EE15internal_deleteEPv @1642
    _ZN3irr4core12irrAllocatorINS_5scene12CQ3LevelMesh20S3DVertex2TCoords_64EED0Ev @1643
    _ZN3irr4core12irrAllocatorINS_5scene12CQ3LevelMesh20S3DVertex2TCoords_64EED1Ev @1644
    _ZN3irr4core12irrAllocatorINS_5scene12ISkinnedMesh12SPositionKeyEE12internal_newEj @1645
    _ZN3irr4core12irrAllocatorINS_5scene12ISkinnedMesh12SPositionKeyEE15internal_deleteEPv @1646
    _ZN3irr4core12irrAllocatorINS_5scene12ISkinnedMesh12SPositionKeyEED0Ev @1647
    _ZN3irr4core12irrAllocatorINS_5scene12ISkinnedMesh12SPositionKeyEED1Ev @1648
    _ZN3irr4core12irrAllocatorINS_5scene12ISkinnedMesh12SRotationKeyEE12internal_newEj @1649
    _ZN3irr4core12irrAllocatorINS_5scene12ISkinnedMesh12SRotationKeyEE15internal_deleteEPv @1650
    _ZN3irr4core12irrAllocatorINS_5scene12ISkinnedMesh12SRotationKeyEED0Ev @1651
    _ZN3irr4core12irrAllocatorINS_5scene12ISkinnedMesh12SRotationKeyEED1Ev @1652
    _ZN3irr4core12irrAllocatorINS_5scene12ISkinnedMesh7SWeightEE12internal_newEj @1653
    _ZN3irr4core12irrAllocatorINS_5scene12ISkinnedMesh7SWeightEE15internal_deleteEPv @1654
    _ZN3irr4core12irrAllocatorINS_5scene12ISkinnedMesh7SWeightEED0Ev @1655
    _ZN3irr4core12irrAllocatorINS_5scene12ISkinnedMesh7SWeightEED1Ev @1656
    _ZN3irr4core12irrAllocatorINS_5scene12ISkinnedMesh9SScaleKeyEE12internal_newEj @1657
    _ZN3irr4core12irrAllocatorINS_5scene12ISkinnedMesh9SScaleKeyEE15internal_deleteEPv @1658
    _ZN3irr4core12irrAllocatorINS_5scene12ISkinnedMesh9SScaleKeyEED0Ev @1659
    _ZN3irr4core12irrAllocatorINS_5scene12ISkinnedMesh9SScaleKeyEED1Ev @1660
    _ZN3irr4core12irrAllocatorINS_5scene12SMD3TexCoordEE12internal_newEj @1661
    _ZN3irr4core12irrAllocatorINS_5scene12SMD3TexCoordEE15internal_deleteEPv @1662
    _ZN3irr4core12irrAllocatorINS_5scene12SMD3TexCoordEED0Ev @1663
    _ZN3irr4core12irrAllocatorINS_5scene12SMD3TexCoordEED1Ev @1664
    _ZN3irr4core12irrAllocatorINS_5scene13CSceneManager16DefaultNodeEntryEE12internal_newEj @1665
    _ZN3irr4core12irrAllocatorINS_5scene13CSceneManager16DefaultNodeEntryEE15internal_deleteEPv @1666
    _ZN3irr4core12irrAllocatorINS_5scene13CSceneManager16DefaultNodeEntryEED0Ev @1667
    _ZN3irr4core12irrAllocatorINS_5scene13CSceneManager16DefaultNodeEntryEED1Ev @1668
    _ZN3irr4core12irrAllocatorINS_5scene13CSceneManager17DistanceNodeEntryEE12internal_newEj @1669
    _ZN3irr4core12irrAllocatorINS_5scene13CSceneManager17DistanceNodeEntryEE15internal_deleteEPv @1670
    _ZN3irr4core12irrAllocatorINS_5scene13CSceneManager17DistanceNodeEntryEED0Ev @1671
    _ZN3irr4core12irrAllocatorINS_5scene13CSceneManager17DistanceNodeEntryEED1Ev @1672
    _ZN3irr4core12irrAllocatorINS_5scene13CSceneManager20TransparentNodeEntryEE12internal_newEj @1673
    _ZN3irr4core12irrAllocatorINS_5scene13CSceneManager20TransparentNodeEntryEE15internal_deleteEPv @1674
    _ZN3irr4core12irrAllocatorINS_5scene13CSceneManager20TransparentNodeEntryEED0Ev @1675
    _ZN3irr4core12irrAllocatorINS_5scene13CSceneManager20TransparentNodeEntryEED1Ev @1676
    _ZN3irr4core12irrAllocatorINS_5scene13SColladaImageEE12internal_newEj @1677
    _ZN3irr4core12irrAllocatorINS_5scene13SColladaImageEE15internal_deleteEPv @1678
    _ZN3irr4core12irrAllocatorINS_5scene13SColladaImageEED0Ev @1679
    _ZN3irr4core12irrAllocatorINS_5scene13SColladaImageEED1Ev @1680
    _ZN3irr4core12irrAllocatorINS_5scene13SColladaInputEE12internal_newEj @1681
    _ZN3irr4core12irrAllocatorINS_5scene13SColladaInputEE15internal_deleteEPv @1682
    _ZN3irr4core12irrAllocatorINS_5scene13SColladaInputEED0Ev @1683
    _ZN3irr4core12irrAllocatorINS_5scene13SColladaInputEED1Ev @1684
    _ZN3irr4core12irrAllocatorINS_5scene13SColladaParamEE12internal_newEj @1685
    _ZN3irr4core12irrAllocatorINS_5scene13SColladaParamEE15internal_deleteEPv @1686
    _ZN3irr4core12irrAllocatorINS_5scene13SColladaParamEED0Ev @1687
    _ZN3irr4core12irrAllocatorINS_5scene13SColladaParamEED1Ev @1688
    _ZN3irr4core12irrAllocatorINS_5scene14SColladaEffectEE12internal_newEj @1689
    _ZN3irr4core12irrAllocatorINS_5scene14SColladaEffectEE15internal_deleteEPv @1690
    _ZN3irr4core12irrAllocatorINS_5scene14SColladaEffectEE9constructEPS3_RKS3_ @1691
    _ZN3irr4core12irrAllocatorINS_5scene14SColladaEffectEED0Ev @1692
    _ZN3irr4core12irrAllocatorINS_5scene14SColladaEffectEED1Ev @1693
    _ZN3irr4core12irrAllocatorINS_5scene15SColladaTextureEE12internal_newEj @1694
    _ZN3irr4core12irrAllocatorINS_5scene15SColladaTextureEE15internal_deleteEPv @1695
    _ZN3irr4core12irrAllocatorINS_5scene15SColladaTextureEED0Ev @1696
    _ZN3irr4core12irrAllocatorINS_5scene15SColladaTextureEED1Ev @1697
    _ZN3irr4core12irrAllocatorINS_5scene16CAnimatedMeshMD214SAnimationDataEE12internal_newEj @1698
    _ZN3irr4core12irrAllocatorINS_5scene16CAnimatedMeshMD214SAnimationDataEE15internal_deleteEPv @1699
    _ZN3irr4core12irrAllocatorINS_5scene16CAnimatedMeshMD214SAnimationDataEE9constructEPS4_RKS4_ @1700
    _ZN3irr4core12irrAllocatorINS_5scene16CAnimatedMeshMD214SAnimationDataEED0Ev @1701
    _ZN3irr4core12irrAllocatorINS_5scene16CAnimatedMeshMD214SAnimationDataEED1Ev @1702
    _ZN3irr4core12irrAllocatorINS_5scene16CAnimatedMeshMD218SKeyFrameTransformEE12internal_newEj @1703
    _ZN3irr4core12irrAllocatorINS_5scene16CAnimatedMeshMD218SKeyFrameTransformEE15internal_deleteEPv @1704
    _ZN3irr4core12irrAllocatorINS_5scene16CAnimatedMeshMD218SKeyFrameTransformEED0Ev @1705
    _ZN3irr4core12irrAllocatorINS_5scene16CAnimatedMeshMD218SKeyFrameTransformEED1Ev @1706
    _ZN3irr4core12irrAllocatorINS_5scene16CAnimatedMeshMD28SMD2VertEE12internal_newEj @1707
    _ZN3irr4core12irrAllocatorINS_5scene16CAnimatedMeshMD28SMD2VertEE15internal_deleteEPv @1708
    _ZN3irr4core12irrAllocatorINS_5scene16CAnimatedMeshMD28SMD2VertEED0Ev @1709
    _ZN3irr4core12irrAllocatorINS_5scene16CAnimatedMeshMD28SMD2VertEED1Ev @1710
    _ZN3irr4core12irrAllocatorINS_5scene16CXMeshFileLoader18SXTemplateMaterialEE12internal_newEj @1711
    _ZN3irr4core12irrAllocatorINS_5scene16CXMeshFileLoader18SXTemplateMaterialEE15internal_deleteEPv @1712
    _ZN3irr4core12irrAllocatorINS_5scene16CXMeshFileLoader18SXTemplateMaterialEE9constructEPS4_RKS4_ @1713
    _ZN3irr4core12irrAllocatorINS_5scene16CXMeshFileLoader18SXTemplateMaterialEED0Ev @1714
    _ZN3irr4core12irrAllocatorINS_5scene16CXMeshFileLoader18SXTemplateMaterialEED1Ev @1715
    _ZN3irr4core12irrAllocatorINS_5scene16SColladaMaterialEE12internal_newEj @1716
    _ZN3irr4core12irrAllocatorINS_5scene16SColladaMaterialEE15internal_deleteEPv @1717
    _ZN3irr4core12irrAllocatorINS_5scene16SColladaMaterialEED0Ev @1718
    _ZN3irr4core12irrAllocatorINS_5scene16SColladaMaterialEED1Ev @1719
    _ZN3irr4core12irrAllocatorINS_5scene17SMD3QuaternionTagEE12internal_newEj @1720
    _ZN3irr4core12irrAllocatorINS_5scene17SMD3QuaternionTagEE15internal_deleteEPv @1721
    _ZN3irr4core12irrAllocatorINS_5scene17SMD3QuaternionTagEED0Ev @1722
    _ZN3irr4core12irrAllocatorINS_5scene17SMD3QuaternionTagEED1Ev @1723
    _ZN3irr4core12irrAllocatorINS_5scene18C3DSMeshFileLoader14SMaterialGroupEE12internal_newEj @1724
    _ZN3irr4core12irrAllocatorINS_5scene18C3DSMeshFileLoader14SMaterialGroupEE15internal_deleteEPv @1725
    _ZN3irr4core12irrAllocatorINS_5scene18C3DSMeshFileLoader14SMaterialGroupEED0Ev @1726
    _ZN3irr4core12irrAllocatorINS_5scene18C3DSMeshFileLoader14SMaterialGroupEED1Ev @1727
    _ZN3irr4core12irrAllocatorINS_5scene18C3DSMeshFileLoader16SCurrentMaterialEE12internal_newEj @1728
    _ZN3irr4core12irrAllocatorINS_5scene18C3DSMeshFileLoader16SCurrentMaterialEE15internal_deleteEPv @1729
    _ZN3irr4core12irrAllocatorINS_5scene18C3DSMeshFileLoader16SCurrentMaterialEED0Ev @1730
    _ZN3irr4core12irrAllocatorINS_5scene18C3DSMeshFileLoader16SCurrentMaterialEED1Ev @1731
    _ZN3irr4core12irrAllocatorINS_5scene18CB3DMeshFileLoader11SB3dTextureEE12internal_newEj @1732
    _ZN3irr4core12irrAllocatorINS_5scene18CB3DMeshFileLoader11SB3dTextureEE15internal_deleteEPv @1733
    _ZN3irr4core12irrAllocatorINS_5scene18CB3DMeshFileLoader11SB3dTextureEED0Ev @1734
    _ZN3irr4core12irrAllocatorINS_5scene18CB3DMeshFileLoader11SB3dTextureEED1Ev @1735
    _ZN3irr4core12irrAllocatorINS_5scene18CB3DMeshFileLoader12SB3dMaterialEE12internal_newEj @1736
    _ZN3irr4core12irrAllocatorINS_5scene18CB3DMeshFileLoader12SB3dMaterialEE15internal_deleteEPv @1737
    _ZN3irr4core12irrAllocatorINS_5scene18CB3DMeshFileLoader12SB3dMaterialEED0Ev @1738
    _ZN3irr4core12irrAllocatorINS_5scene18CB3DMeshFileLoader12SB3dMaterialEED1Ev @1739
    _ZN3irr4core12irrAllocatorINS_5scene18CB3DMeshFileLoader9SB3dChunkEE12internal_newEj @1740
    _ZN3irr4core12irrAllocatorINS_5scene18CB3DMeshFileLoader9SB3dChunkEE15internal_deleteEPv @1741
    _ZN3irr4core12irrAllocatorINS_5scene18CB3DMeshFileLoader9SB3dChunkEED0Ev @1742
    _ZN3irr4core12irrAllocatorINS_5scene18CB3DMeshFileLoader9SB3dChunkEED1Ev @1743
    _ZN3irr4core12irrAllocatorINS_5scene18CPLYMeshFileLoader12SPLYPropertyEE12internal_newEj @1744
    _ZN3irr4core12irrAllocatorINS_5scene18CPLYMeshFileLoader12SPLYPropertyEE15internal_deleteEPv @1745
    _ZN3irr4core12irrAllocatorINS_5scene18CPLYMeshFileLoader12SPLYPropertyEE9constructEPS4_RKS4_ @1746
    _ZN3irr4core12irrAllocatorINS_5scene18CPLYMeshFileLoader12SPLYPropertyEED0Ev @1747
    _ZN3irr4core12irrAllocatorINS_5scene18CPLYMeshFileLoader12SPLYPropertyEED1Ev @1748
    _ZN3irr4core12irrAllocatorINS_5scene19CMY3DMeshFileLoader16SMyMaterialEntryEE12internal_newEj @1749
    _ZN3irr4core12irrAllocatorINS_5scene19CMY3DMeshFileLoader16SMyMaterialEntryEE15internal_deleteEPv @1750
    _ZN3irr4core12irrAllocatorINS_5scene19CMY3DMeshFileLoader16SMyMaterialEntryEED0Ev @1751
    _ZN3irr4core12irrAllocatorINS_5scene19CMY3DMeshFileLoader16SMyMaterialEntryEED1Ev @1752
    _ZN3irr4core12irrAllocatorINS_5scene19CMY3DMeshFileLoader18SMyMeshBufferEntryEE12internal_newEj @1753
    _ZN3irr4core12irrAllocatorINS_5scene19CMY3DMeshFileLoader18SMyMeshBufferEntryEE15internal_deleteEPv @1754
    _ZN3irr4core12irrAllocatorINS_5scene19CMY3DMeshFileLoader18SMyMeshBufferEntryEED0Ev @1755
    _ZN3irr4core12irrAllocatorINS_5scene19CMY3DMeshFileLoader18SMyMeshBufferEntryEED1Ev @1756
    _ZN3irr4core12irrAllocatorINS_5scene19COgreMeshFileLoader11OgreSubMeshEE12internal_newEj @1757
    _ZN3irr4core12irrAllocatorINS_5scene19COgreMeshFileLoader11OgreSubMeshEE15internal_deleteEPv @1758
    _ZN3irr4core12irrAllocatorINS_5scene19COgreMeshFileLoader11OgreSubMeshEED0Ev @1759
    _ZN3irr4core12irrAllocatorINS_5scene19COgreMeshFileLoader11OgreSubMeshEED1Ev @1760
    _ZN3irr4core12irrAllocatorINS_5scene19COgreMeshFileLoader12OgreKeyframeEE12internal_newEj @1761
    _ZN3irr4core12irrAllocatorINS_5scene19COgreMeshFileLoader12OgreKeyframeEE15internal_deleteEPv @1762
    _ZN3irr4core12irrAllocatorINS_5scene19COgreMeshFileLoader12OgreKeyframeEED0Ev @1763
    _ZN3irr4core12irrAllocatorINS_5scene19COgreMeshFileLoader12OgreKeyframeEED1Ev @1764
    _ZN3irr4core12irrAllocatorINS_5scene19COgreMeshFileLoader12OgreMaterialEE12internal_newEj @1765
    _ZN3irr4core12irrAllocatorINS_5scene19COgreMeshFileLoader12OgreMaterialEE15internal_deleteEPv @1766
    _ZN3irr4core12irrAllocatorINS_5scene19COgreMeshFileLoader12OgreMaterialEED0Ev @1767
    _ZN3irr4core12irrAllocatorINS_5scene19COgreMeshFileLoader12OgreMaterialEED1Ev @1768
    _ZN3irr4core12irrAllocatorINS_5scene19COgreMeshFileLoader13OgreAnimationEE12internal_newEj @1769
    _ZN3irr4core12irrAllocatorINS_5scene19COgreMeshFileLoader13OgreAnimationEE15internal_deleteEPv @1770
    _ZN3irr4core12irrAllocatorINS_5scene19COgreMeshFileLoader13OgreAnimationEED0Ev @1771
    _ZN3irr4core12irrAllocatorINS_5scene19COgreMeshFileLoader13OgreAnimationEED1Ev @1772
    _ZN3irr4core12irrAllocatorINS_5scene19COgreMeshFileLoader13OgreTechniqueEE12internal_newEj @1773
    _ZN3irr4core12irrAllocatorINS_5scene19COgreMeshFileLoader13OgreTechniqueEE15internal_deleteEPv @1774
    _ZN3irr4core12irrAllocatorINS_5scene19COgreMeshFileLoader13OgreTechniqueEED0Ev @1775
    _ZN3irr4core12irrAllocatorINS_5scene19COgreMeshFileLoader13OgreTechniqueEED1Ev @1776
    _ZN3irr4core12irrAllocatorINS_5scene19COgreMeshFileLoader16OgreTextureAliasEE12internal_newEj @1777
    _ZN3irr4core12irrAllocatorINS_5scene19COgreMeshFileLoader16OgreTextureAliasEE15internal_deleteEPv @1778
    _ZN3irr4core12irrAllocatorINS_5scene19COgreMeshFileLoader16OgreTextureAliasEED0Ev @1779
    _ZN3irr4core12irrAllocatorINS_5scene19COgreMeshFileLoader16OgreTextureAliasEED1Ev @1780
    _ZN3irr4core12irrAllocatorINS_5scene19COgreMeshFileLoader16OgreVertexBufferEE12internal_newEj @1781
    _ZN3irr4core12irrAllocatorINS_5scene19COgreMeshFileLoader16OgreVertexBufferEE15internal_deleteEPv @1782
    _ZN3irr4core12irrAllocatorINS_5scene19COgreMeshFileLoader16OgreVertexBufferEED0Ev @1783
    _ZN3irr4core12irrAllocatorINS_5scene19COgreMeshFileLoader16OgreVertexBufferEED1Ev @1784
    _ZN3irr4core12irrAllocatorINS_5scene19COgreMeshFileLoader17OgreVertexElementEE12internal_newEj @1785
    _ZN3irr4core12irrAllocatorINS_5scene19COgreMeshFileLoader17OgreVertexElementEE15internal_deleteEPv @1786
    _ZN3irr4core12irrAllocatorINS_5scene19COgreMeshFileLoader17OgreVertexElementEED0Ev @1787
    _ZN3irr4core12irrAllocatorINS_5scene19COgreMeshFileLoader17OgreVertexElementEED1Ev @1788
    _ZN3irr4core12irrAllocatorINS_5scene19COgreMeshFileLoader18OgreBoneAssignmentEE12internal_newEj @1789
    _ZN3irr4core12irrAllocatorINS_5scene19COgreMeshFileLoader18OgreBoneAssignmentEE15internal_deleteEPv @1790
    _ZN3irr4core12irrAllocatorINS_5scene19COgreMeshFileLoader18OgreBoneAssignmentEED0Ev @1791
    _ZN3irr4core12irrAllocatorINS_5scene19COgreMeshFileLoader18OgreBoneAssignmentEED1Ev @1792
    _ZN3irr4core12irrAllocatorINS_5scene19COgreMeshFileLoader8OgreBoneEE12internal_newEj @1793
    _ZN3irr4core12irrAllocatorINS_5scene19COgreMeshFileLoader8OgreBoneEE15internal_deleteEPv @1794
    _ZN3irr4core12irrAllocatorINS_5scene19COgreMeshFileLoader8OgreBoneEED0Ev @1795
    _ZN3irr4core12irrAllocatorINS_5scene19COgreMeshFileLoader8OgreBoneEED1Ev @1796
    _ZN3irr4core12irrAllocatorINS_5scene19COgreMeshFileLoader8OgreMeshEE12internal_newEj @1797
    _ZN3irr4core12irrAllocatorINS_5scene19COgreMeshFileLoader8OgreMeshEE15internal_deleteEPv @1798
    _ZN3irr4core12irrAllocatorINS_5scene19COgreMeshFileLoader8OgreMeshEED0Ev @1799
    _ZN3irr4core12irrAllocatorINS_5scene19COgreMeshFileLoader8OgreMeshEED1Ev @1800
    _ZN3irr4core12irrAllocatorINS_5scene19COgreMeshFileLoader8OgrePassEE12internal_newEj @1801
    _ZN3irr4core12irrAllocatorINS_5scene19COgreMeshFileLoader8OgrePassEE15internal_deleteEPv @1802
    _ZN3irr4core12irrAllocatorINS_5scene19COgreMeshFileLoader8OgrePassEED0Ev @1803
    _ZN3irr4core12irrAllocatorINS_5scene19COgreMeshFileLoader8OgrePassEED1Ev @1804
    _ZN3irr4core12irrAllocatorINS_5scene22CQuake3ShaderSceneNode10SQ3TextureEE12internal_newEj @1805
    _ZN3irr4core12irrAllocatorINS_5scene22CQuake3ShaderSceneNode10SQ3TextureEE15internal_deleteEPv @1806
    _ZN3irr4core12irrAllocatorINS_5scene22CQuake3ShaderSceneNode10SQ3TextureEED0Ev @1807
    _ZN3irr4core12irrAllocatorINS_5scene22CQuake3ShaderSceneNode10SQ3TextureEED1Ev @1808
    _ZN3irr4core12irrAllocatorINS_5scene22CShadowVolumeSceneNode13SShadowVolumeEE12internal_newEj @1809
    _ZN3irr4core12irrAllocatorINS_5scene22CShadowVolumeSceneNode13SShadowVolumeEE15internal_deleteEPv @1810
    _ZN3irr4core12irrAllocatorINS_5scene22CShadowVolumeSceneNode13SShadowVolumeEED0Ev @1811
    _ZN3irr4core12irrAllocatorINS_5scene22CShadowVolumeSceneNode13SShadowVolumeEED1Ev @1812
    _ZN3irr4core12irrAllocatorINS_5scene23CBillboardTextSceneNode11SSymbolInfoEE12internal_newEj @1813
    _ZN3irr4core12irrAllocatorINS_5scene23CBillboardTextSceneNode11SSymbolInfoEE15internal_deleteEPv @1814
    _ZN3irr4core12irrAllocatorINS_5scene23CBillboardTextSceneNode11SSymbolInfoEED0Ev @1815
    _ZN3irr4core12irrAllocatorINS_5scene23CBillboardTextSceneNode11SSymbolInfoEED1Ev @1816
    _ZN3irr4core12irrAllocatorINS_5scene24CDefaultSceneNodeFactory18SSceneNodeTypePairEE12internal_newEj @1817
    _ZN3irr4core12irrAllocatorINS_5scene24CDefaultSceneNodeFactory18SSceneNodeTypePairEE15internal_deleteEPv @1818
    _ZN3irr4core12irrAllocatorINS_5scene24CDefaultSceneNodeFactory18SSceneNodeTypePairEED0Ev @1819
    _ZN3irr4core12irrAllocatorINS_5scene24CDefaultSceneNodeFactory18SSceneNodeTypePairEED1Ev @1820
    _ZN3irr4core12irrAllocatorINS_5scene24CTerrainTriangleSelector23SGeoMipMapTrianglePatchEE12internal_newEj @1821
    _ZN3irr4core12irrAllocatorINS_5scene24CTerrainTriangleSelector23SGeoMipMapTrianglePatchEE15internal_deleteEPv @1822
    _ZN3irr4core12irrAllocatorINS_5scene24CTerrainTriangleSelector23SGeoMipMapTrianglePatchEED0Ev @1823
    _ZN3irr4core12irrAllocatorINS_5scene24CTerrainTriangleSelector23SGeoMipMapTrianglePatchEED1Ev @1824
    _ZN3irr4core12irrAllocatorINS_5scene27CSceneNodeAnimatorCameraFPS10SCamKeyMapEE12internal_newEj @1825
    _ZN3irr4core12irrAllocatorINS_5scene27CSceneNodeAnimatorCameraFPS10SCamKeyMapEE15internal_deleteEPv @1826
    _ZN3irr4core12irrAllocatorINS_5scene27CSceneNodeAnimatorCameraFPS10SCamKeyMapEED0Ev @1827
    _ZN3irr4core12irrAllocatorINS_5scene27CSceneNodeAnimatorCameraFPS10SCamKeyMapEED1Ev @1828
    _ZN3irr4core12irrAllocatorINS_5scene4LineEE12internal_newEj @1829
    _ZN3irr4core12irrAllocatorINS_5scene4LineEE15internal_deleteEPv @1830
    _ZN3irr4core12irrAllocatorINS_5scene4LineEED0Ev @1831
    _ZN3irr4core12irrAllocatorINS_5scene4LineEED1Ev @1832
    _ZN3irr4core12irrAllocatorINS_5scene6SGroupEE12internal_newEj @1833
    _ZN3irr4core12irrAllocatorINS_5scene6SGroupEE15internal_deleteEPv @1834
    _ZN3irr4core12irrAllocatorINS_5scene6SGroupEED0Ev @1835
    _ZN3irr4core12irrAllocatorINS_5scene6SGroupEED1Ev @1836
    _ZN3irr4core12irrAllocatorINS_5scene6VertexEE12internal_newEj @1837
    _ZN3irr4core12irrAllocatorINS_5scene6VertexEE15internal_deleteEPv @1838
    _ZN3irr4core12irrAllocatorINS_5scene6VertexEED0Ev @1839
    _ZN3irr4core12irrAllocatorINS_5scene6VertexEED1Ev @1840
    _ZN3irr4core12irrAllocatorINS_5scene6quake37IShaderEE12internal_newEj @1841
    _ZN3irr4core12irrAllocatorINS_5scene6quake37IShaderEE15internal_deleteEPv @1842
    _ZN3irr4core12irrAllocatorINS_5scene6quake37IShaderEED0Ev @1843
    _ZN3irr4core12irrAllocatorINS_5scene6quake37IShaderEED1Ev @1844
    _ZN3irr4core12irrAllocatorINS_5scene6quake39SVarGroupEE12internal_newEj @1845
    _ZN3irr4core12irrAllocatorINS_5scene6quake39SVarGroupEE15internal_deleteEPv @1846
    _ZN3irr4core12irrAllocatorINS_5scene6quake39SVarGroupEED0Ev @1847
    _ZN3irr4core12irrAllocatorINS_5scene6quake39SVarGroupEED1Ev @1848
    _ZN3irr4core12irrAllocatorINS_5scene6quake39SVariableEE12internal_newEj @1849
    _ZN3irr4core12irrAllocatorINS_5scene6quake39SVariableEE15internal_deleteEPv @1850
    _ZN3irr4core12irrAllocatorINS_5scene6quake39SVariableEED0Ev @1851
    _ZN3irr4core12irrAllocatorINS_5scene6quake39SVariableEED1Ev @1852
    _ZN3irr4core12irrAllocatorINS_5scene7SMyFaceEE12internal_newEj @1853
    _ZN3irr4core12irrAllocatorINS_5scene7SMyFaceEE15internal_deleteEPv @1854
    _ZN3irr4core12irrAllocatorINS_5scene7SMyFaceEED0Ev @1855
    _ZN3irr4core12irrAllocatorINS_5scene7SMyFaceEED1Ev @1856
    _ZN3irr4core12irrAllocatorINS_5scene7SSourceEE12internal_newEj @1857
    _ZN3irr4core12irrAllocatorINS_5scene7SSourceEE15internal_deleteEPv @1858
    _ZN3irr4core12irrAllocatorINS_5scene7SSourceEED0Ev @1859
    _ZN3irr4core12irrAllocatorINS_5scene7SSourceEED1Ev @1860
    _ZN3irr4core12irrAllocatorINS_5scene8SPolygonEE12internal_newEj @1861
    _ZN3irr4core12irrAllocatorINS_5scene8SPolygonEE15internal_deleteEPv @1862
    _ZN3irr4core12irrAllocatorINS_5scene8SPolygonEED0Ev @1863
    _ZN3irr4core12irrAllocatorINS_5scene8SPolygonEED1Ev @1864
    _ZN3irr4core12irrAllocatorINS_5scene8TriangleEE12internal_newEj @1865
    _ZN3irr4core12irrAllocatorINS_5scene8TriangleEE15internal_deleteEPv @1866
    _ZN3irr4core12irrAllocatorINS_5scene8TriangleEED0Ev @1867
    _ZN3irr4core12irrAllocatorINS_5scene8TriangleEED1Ev @1868
    _ZN3irr4core12irrAllocatorINS_5scene8sortaxisEE12internal_newEj @1869
    _ZN3irr4core12irrAllocatorINS_5scene8sortaxisEE15internal_deleteEPv @1870
    _ZN3irr4core12irrAllocatorINS_5scene8sortaxisEED0Ev @1871
    _ZN3irr4core12irrAllocatorINS_5scene8sortaxisEED1Ev @1872
    _ZN3irr4core12irrAllocatorINS_5scene9SAccessorEE12internal_newEj @1873
    _ZN3irr4core12irrAllocatorINS_5scene9SAccessorEE15internal_deleteEPv @1874
    _ZN3irr4core12irrAllocatorINS_5scene9SAccessorEE9constructEPS3_RKS3_ @1875
    _ZN3irr4core12irrAllocatorINS_5scene9SAccessorEED0Ev @1876
    _ZN3irr4core12irrAllocatorINS_5scene9SAccessorEED1Ev @1877
    _ZN3irr4core12irrAllocatorINS_5scene9SMyVertexEE12internal_newEj @1878
    _ZN3irr4core12irrAllocatorINS_5scene9SMyVertexEE15internal_deleteEPv @1879
    _ZN3irr4core12irrAllocatorINS_5scene9SMyVertexEED0Ev @1880
    _ZN3irr4core12irrAllocatorINS_5scene9SMyVertexEED1Ev @1881
    _ZN3irr4core12irrAllocatorINS_5scene9SParticleEE12internal_newEj @1882
    _ZN3irr4core12irrAllocatorINS_5scene9SParticleEE15internal_deleteEPv @1883
    _ZN3irr4core12irrAllocatorINS_5scene9SParticleEED0Ev @1884
    _ZN3irr4core12irrAllocatorINS_5scene9SParticleEED1Ev @1885
    _ZN3irr4core12irrAllocatorINS_5video11CNullDriver17SMaterialRendererEE12internal_newEj @1886
    _ZN3irr4core12irrAllocatorINS_5video11CNullDriver17SMaterialRendererEE15internal_deleteEPv @1887
    _ZN3irr4core12irrAllocatorINS_5video11CNullDriver17SMaterialRendererEED0Ev @1888
    _ZN3irr4core12irrAllocatorINS_5video11CNullDriver17SMaterialRendererEED1Ev @1889
    _ZN3irr4core12irrAllocatorINS_5video11CNullDriver8SSurfaceEE12internal_newEj @1890
    _ZN3irr4core12irrAllocatorINS_5video11CNullDriver8SSurfaceEE15internal_deleteEPv @1891
    _ZN3irr4core12irrAllocatorINS_5video11CNullDriver8SSurfaceEED0Ev @1892
    _ZN3irr4core12irrAllocatorINS_5video11CNullDriver8SSurfaceEED1Ev @1893
    _ZN3irr4core12irrAllocatorINS_5video13COpenGLDriver14RequestedLightEE12internal_newEj @1894
    _ZN3irr4core12irrAllocatorINS_5video13COpenGLDriver14RequestedLightEE15internal_deleteEPv @1895
    _ZN3irr4core12irrAllocatorINS_5video13COpenGLDriver14RequestedLightEED0Ev @1896
    _ZN3irr4core12irrAllocatorINS_5video13COpenGLDriver14RequestedLightEED1Ev @1897
    _ZN3irr4core12irrAllocatorINS_5video13COpenGLDriver14SUserClipPlaneEE12internal_newEj @1898
    _ZN3irr4core12irrAllocatorINS_5video13COpenGLDriver14SUserClipPlaneEE15internal_deleteEPv @1899
    _ZN3irr4core12irrAllocatorINS_5video13COpenGLDriver14SUserClipPlaneEED0Ev @1900
    _ZN3irr4core12irrAllocatorINS_5video13COpenGLDriver14SUserClipPlaneEED1Ev @1901
    _ZN3irr4core12irrAllocatorINS_5video14CVideoModeList10SVideoModeEE12internal_newEj @1902
    _ZN3irr4core12irrAllocatorINS_5video14CVideoModeList10SVideoModeEE15internal_deleteEPv @1903
    _ZN3irr4core12irrAllocatorINS_5video14CVideoModeList10SVideoModeEED0Ev @1904
    _ZN3irr4core12irrAllocatorINS_5video14CVideoModeList10SVideoModeEED1Ev @1905
    _ZN3irr4core12irrAllocatorINS_5video17S3DVertex2TCoordsEE12internal_newEj @1906
    _ZN3irr4core12irrAllocatorINS_5video17S3DVertex2TCoordsEE15internal_deleteEPv @1907
    _ZN3irr4core12irrAllocatorINS_5video17S3DVertex2TCoordsEED0Ev @1908
    _ZN3irr4core12irrAllocatorINS_5video17S3DVertex2TCoordsEED1Ev @1909
    _ZN3irr4core12irrAllocatorINS_5video17S3DVertexTangentsEE12internal_newEj @1910
    _ZN3irr4core12irrAllocatorINS_5video17S3DVertexTangentsEE15internal_deleteEPv @1911
    _ZN3irr4core12irrAllocatorINS_5video17S3DVertexTangentsEED0Ev @1912
    _ZN3irr4core12irrAllocatorINS_5video17S3DVertexTangentsEED1Ev @1913
    _ZN3irr4core12irrAllocatorINS_5video19SBurningShaderLightEE12internal_newEj @1914
    _ZN3irr4core12irrAllocatorINS_5video19SBurningShaderLightEE15internal_deleteEPv @1915
    _ZN3irr4core12irrAllocatorINS_5video19SBurningShaderLightEED0Ev @1916
    _ZN3irr4core12irrAllocatorINS_5video19SBurningShaderLightEED1Ev @1917
    _ZN3irr4core12irrAllocatorINS_5video25COpenGLSLMaterialRenderer12SUniformInfoEE12internal_newEj @1918
    _ZN3irr4core12irrAllocatorINS_5video25COpenGLSLMaterialRenderer12SUniformInfoEE15internal_deleteEPv @1919
    _ZN3irr4core12irrAllocatorINS_5video25COpenGLSLMaterialRenderer12SUniformInfoEED0Ev @1920
    _ZN3irr4core12irrAllocatorINS_5video25COpenGLSLMaterialRenderer12SUniformInfoEED1Ev @1921
    _ZN3irr4core12irrAllocatorINS_5video6SLightEE12internal_newEj @1922
    _ZN3irr4core12irrAllocatorINS_5video6SLightEE15internal_deleteEPv @1923
    _ZN3irr4core12irrAllocatorINS_5video6SLightEED0Ev @1924
    _ZN3irr4core12irrAllocatorINS_5video6SLightEED1Ev @1925
    _ZN3irr4core12irrAllocatorINS_5video9S2DVertexEE12internal_newEj @1926
    _ZN3irr4core12irrAllocatorINS_5video9S2DVertexEE15internal_deleteEPv @1927
    _ZN3irr4core12irrAllocatorINS_5video9S2DVertexEED0Ev @1928
    _ZN3irr4core12irrAllocatorINS_5video9S2DVertexEED1Ev @1929
    _ZN3irr4core12irrAllocatorINS_5video9S3DVertexEE12internal_newEj @1930
    _ZN3irr4core12irrAllocatorINS_5video9S3DVertexEE15internal_deleteEPv @1931
    _ZN3irr4core12irrAllocatorINS_5video9S3DVertexEED0Ev @1932
    _ZN3irr4core12irrAllocatorINS_5video9S3DVertexEED1Ev @1933
    _ZN3irr4core12irrAllocatorINS_5video9SMaterialEE12internal_newEj @1934
    _ZN3irr4core12irrAllocatorINS_5video9SMaterialEE15internal_deleteEPv @1935
    _ZN3irr4core12irrAllocatorINS_5video9SMaterialEED0Ev @1936
    _ZN3irr4core12irrAllocatorINS_5video9SMaterialEED1Ev @1937
    _ZN3irr4core12irrAllocatorINS_6OctreeINS_5video17S3DVertex2TCoordsEE10SMeshChunkEE12internal_newEj @1938
    _ZN3irr4core12irrAllocatorINS_6OctreeINS_5video17S3DVertex2TCoordsEE10SMeshChunkEE15internal_deleteEPv @1939
    _ZN3irr4core12irrAllocatorINS_6OctreeINS_5video17S3DVertex2TCoordsEE10SMeshChunkEED0Ev @1940
    _ZN3irr4core12irrAllocatorINS_6OctreeINS_5video17S3DVertex2TCoordsEE10SMeshChunkEED1Ev @1941
    _ZN3irr4core12irrAllocatorINS_6OctreeINS_5video17S3DVertex2TCoordsEE11SIndexChunkEE12internal_newEj @1942
    _ZN3irr4core12irrAllocatorINS_6OctreeINS_5video17S3DVertex2TCoordsEE11SIndexChunkEE15internal_deleteEPv @1943
    _ZN3irr4core12irrAllocatorINS_6OctreeINS_5video17S3DVertex2TCoordsEE11SIndexChunkEED0Ev @1944
    _ZN3irr4core12irrAllocatorINS_6OctreeINS_5video17S3DVertex2TCoordsEE11SIndexChunkEED1Ev @1945
    _ZN3irr4core12irrAllocatorINS_6OctreeINS_5video17S3DVertexTangentsEE10SMeshChunkEE12internal_newEj @1946
    _ZN3irr4core12irrAllocatorINS_6OctreeINS_5video17S3DVertexTangentsEE10SMeshChunkEE15internal_deleteEPv @1947
    _ZN3irr4core12irrAllocatorINS_6OctreeINS_5video17S3DVertexTangentsEE10SMeshChunkEED0Ev @1948
    _ZN3irr4core12irrAllocatorINS_6OctreeINS_5video17S3DVertexTangentsEE10SMeshChunkEED1Ev @1949
    _ZN3irr4core12irrAllocatorINS_6OctreeINS_5video17S3DVertexTangentsEE11SIndexChunkEE12internal_newEj @1950
    _ZN3irr4core12irrAllocatorINS_6OctreeINS_5video17S3DVertexTangentsEE11SIndexChunkEE15internal_deleteEPv @1951
    _ZN3irr4core12irrAllocatorINS_6OctreeINS_5video17S3DVertexTangentsEE11SIndexChunkEED0Ev @1952
    _ZN3irr4core12irrAllocatorINS_6OctreeINS_5video17S3DVertexTangentsEE11SIndexChunkEED1Ev @1953
    _ZN3irr4core12irrAllocatorINS_6OctreeINS_5video9S3DVertexEE10SMeshChunkEE12internal_newEj @1954
    _ZN3irr4core12irrAllocatorINS_6OctreeINS_5video9S3DVertexEE10SMeshChunkEE15internal_deleteEPv @1955
    _ZN3irr4core12irrAllocatorINS_6OctreeINS_5video9S3DVertexEE10SMeshChunkEED0Ev @1956
    _ZN3irr4core12irrAllocatorINS_6OctreeINS_5video9S3DVertexEE10SMeshChunkEED1Ev @1957
    _ZN3irr4core12irrAllocatorINS_6OctreeINS_5video9S3DVertexEE11SIndexChunkEE12internal_newEj @1958
    _ZN3irr4core12irrAllocatorINS_6OctreeINS_5video9S3DVertexEE11SIndexChunkEE15internal_deleteEPv @1959
    _ZN3irr4core12irrAllocatorINS_6OctreeINS_5video9S3DVertexEE11SIndexChunkEED0Ev @1960
    _ZN3irr4core12irrAllocatorINS_6OctreeINS_5video9S3DVertexEE11SIndexChunkEED1Ev @1961
    _ZN3irr4core12irrAllocatorIPKNS0_8aabbox3dIfEEE12internal_newEj @1962
    _ZN3irr4core12irrAllocatorIPKNS0_8aabbox3dIfEEE15internal_deleteEPv @1963
    _ZN3irr4core12irrAllocatorIPKNS0_8aabbox3dIfEEED0Ev @1964
    _ZN3irr4core12irrAllocatorIPKNS0_8aabbox3dIfEEED1Ev @1965
    _ZN3irr4core12irrAllocatorIPNS_2io10IAttributeEE12internal_newEj @1966
    _ZN3irr4core12irrAllocatorIPNS_2io10IAttributeEE15internal_deleteEPv @1967
    _ZN3irr4core12irrAllocatorIPNS_2io10IAttributeEED0Ev @1968
    _ZN3irr4core12irrAllocatorIPNS_2io10IAttributeEED1Ev @1969
    _ZN3irr4core12irrAllocatorIPNS_2io12IFileArchiveEE12internal_newEj @1970
    _ZN3irr4core12irrAllocatorIPNS_2io12IFileArchiveEE15internal_deleteEPv @1971
    _ZN3irr4core12irrAllocatorIPNS_2io12IFileArchiveEED0Ev @1972
    _ZN3irr4core12irrAllocatorIPNS_2io12IFileArchiveEED1Ev @1973
    _ZN3irr4core12irrAllocatorIPNS_2io14IArchiveLoaderEE12internal_newEj @1974
    _ZN3irr4core12irrAllocatorIPNS_2io14IArchiveLoaderEE15internal_deleteEPv @1975
    _ZN3irr4core12irrAllocatorIPNS_2io14IArchiveLoaderEED0Ev @1976
    _ZN3irr4core12irrAllocatorIPNS_2io14IArchiveLoaderEED1Ev @1977
    _ZN3irr4core12irrAllocatorIPNS_3gui18IGUIElementFactoryEE12internal_newEj @1978
    _ZN3irr4core12irrAllocatorIPNS_3gui18IGUIElementFactoryEE15internal_deleteEPv @1979
    _ZN3irr4core12irrAllocatorIPNS_3gui18IGUIElementFactoryEED0Ev @1980
    _ZN3irr4core12irrAllocatorIPNS_3gui18IGUIElementFactoryEED1Ev @1981
    _ZN3irr4core12irrAllocatorIPNS_3gui7CGUITabEE12internal_newEj @1982
    _ZN3irr4core12irrAllocatorIPNS_3gui7CGUITabEE15internal_deleteEPv @1983
    _ZN3irr4core12irrAllocatorIPNS_3gui7CGUITabEED0Ev @1984
    _ZN3irr4core12irrAllocatorIPNS_3gui7CGUITabEED1Ev @1985
    _ZN3irr4core12irrAllocatorIPNS_5scene10ISceneNodeEE12internal_newEj @1986
    _ZN3irr4core12irrAllocatorIPNS_5scene10ISceneNodeEE15internal_deleteEPv @1987
    _ZN3irr4core12irrAllocatorIPNS_5scene10ISceneNodeEED0Ev @1988
    _ZN3irr4core12irrAllocatorIPNS_5scene10ISceneNodeEED1Ev @1989
    _ZN3irr4core12irrAllocatorIPNS_5scene11IMeshBufferEE12internal_newEj @1990
    _ZN3irr4core12irrAllocatorIPNS_5scene11IMeshBufferEE15internal_deleteEPv @1991
    _ZN3irr4core12irrAllocatorIPNS_5scene11IMeshBufferEED0Ev @1992
    _ZN3irr4core12irrAllocatorIPNS_5scene11IMeshBufferEED1Ev @1993
    _ZN3irr4core12irrAllocatorIPNS_5scene11IMeshLoaderEE12internal_newEj @1994
    _ZN3irr4core12irrAllocatorIPNS_5scene11IMeshLoaderEE15internal_deleteEPv @1995
    _ZN3irr4core12irrAllocatorIPNS_5scene11IMeshLoaderEED0Ev @1996
    _ZN3irr4core12irrAllocatorIPNS_5scene11IMeshLoaderEED1Ev @1997
    _ZN3irr4core12irrAllocatorIPNS_5scene12ISkinnedMesh6SJointEE12internal_newEj @1998
    _ZN3irr4core12irrAllocatorIPNS_5scene12ISkinnedMesh6SJointEE15internal_deleteEPv @1999
    _ZN3irr4core12irrAllocatorIPNS_5scene12ISkinnedMesh6SJointEED0Ev @2000
    _ZN3irr4core12irrAllocatorIPNS_5scene12ISkinnedMesh6SJointEED1Ev @2001
    _ZN3irr4core12irrAllocatorIPNS_5scene14IBoneSceneNodeEE12internal_newEj @2002
    _ZN3irr4core12irrAllocatorIPNS_5scene14IBoneSceneNodeEE15internal_deleteEPv @2003
    _ZN3irr4core12irrAllocatorIPNS_5scene14IBoneSceneNodeEED0Ev @2004
    _ZN3irr4core12irrAllocatorIPNS_5scene14IBoneSceneNodeEED1Ev @2005
    _ZN3irr4core12irrAllocatorIPNS_5scene14IColladaPrefabEE12internal_newEj @2006
    _ZN3irr4core12irrAllocatorIPNS_5scene14IColladaPrefabEE15internal_deleteEPv @2007
    _ZN3irr4core12irrAllocatorIPNS_5scene14IColladaPrefabEED0Ev @2008
    _ZN3irr4core12irrAllocatorIPNS_5scene14IColladaPrefabEED1Ev @2009
    _ZN3irr4core12irrAllocatorIPNS_5scene14SMD3MeshBufferEE12internal_newEj @2010
    _ZN3irr4core12irrAllocatorIPNS_5scene14SMD3MeshBufferEE15internal_deleteEPv @2011
    _ZN3irr4core12irrAllocatorIPNS_5scene14SMD3MeshBufferEED0Ev @2012
    _ZN3irr4core12irrAllocatorIPNS_5scene14SMD3MeshBufferEED1Ev @2013
    _ZN3irr4core12irrAllocatorIPNS_5scene15ILightSceneNodeEE12internal_newEj @2014
    _ZN3irr4core12irrAllocatorIPNS_5scene15ILightSceneNodeEE15internal_deleteEPv @2015
    _ZN3irr4core12irrAllocatorIPNS_5scene15ILightSceneNodeEED0Ev @2016
    _ZN3irr4core12irrAllocatorIPNS_5scene15ILightSceneNodeEED1Ev @2017
    _ZN3irr4core12irrAllocatorIPNS_5scene15SSkinMeshBufferEE12internal_newEj @2018
    _ZN3irr4core12irrAllocatorIPNS_5scene15SSkinMeshBufferEE15internal_deleteEPv @2019
    _ZN3irr4core12irrAllocatorIPNS_5scene15SSkinMeshBufferEED0Ev @2020
    _ZN3irr4core12irrAllocatorIPNS_5scene15SSkinMeshBufferEED1Ev @2021
    _ZN3irr4core12irrAllocatorIPNS_5scene16CXMeshFileLoader6SXMeshEE12internal_newEj @2022
    _ZN3irr4core12irrAllocatorIPNS_5scene16CXMeshFileLoader6SXMeshEE15internal_deleteEPv @2023
    _ZN3irr4core12irrAllocatorIPNS_5scene16CXMeshFileLoader6SXMeshEED0Ev @2024
    _ZN3irr4core12irrAllocatorIPNS_5scene16CXMeshFileLoader6SXMeshEED1Ev @2025
    _ZN3irr4core12irrAllocatorIPNS_5scene17ISceneNodeFactoryEE12internal_newEj @2026
    _ZN3irr4core12irrAllocatorIPNS_5scene17ISceneNodeFactoryEE15internal_deleteEPv @2027
    _ZN3irr4core12irrAllocatorIPNS_5scene17ISceneNodeFactoryEED0Ev @2028
    _ZN3irr4core12irrAllocatorIPNS_5scene17ISceneNodeFactoryEED1Ev @2029
    _ZN3irr4core12irrAllocatorIPNS_5scene17ITriangleSelectorEE12internal_newEj @2030
    _ZN3irr4core12irrAllocatorIPNS_5scene17ITriangleSelectorEE15internal_deleteEPv @2031
    _ZN3irr4core12irrAllocatorIPNS_5scene17ITriangleSelectorEED0Ev @2032
    _ZN3irr4core12irrAllocatorIPNS_5scene17ITriangleSelectorEED1Ev @2033
    _ZN3irr4core12irrAllocatorIPNS_5scene18CLWOMeshFileLoader12tLWOMaterialEE12internal_newEj @2034
    _ZN3irr4core12irrAllocatorIPNS_5scene18CLWOMeshFileLoader12tLWOMaterialEE15internal_deleteEPv @2035
    _ZN3irr4core12irrAllocatorIPNS_5scene18CLWOMeshFileLoader12tLWOMaterialEED0Ev @2036
    _ZN3irr4core12irrAllocatorIPNS_5scene18CLWOMeshFileLoader12tLWOMaterialEED1Ev @2037
    _ZN3irr4core12irrAllocatorIPNS_5scene18COBJMeshFileLoader7SObjMtlEE12internal_newEj @2038
    _ZN3irr4core12irrAllocatorIPNS_5scene18COBJMeshFileLoader7SObjMtlEE15internal_deleteEPv @2039
    _ZN3irr4core12irrAllocatorIPNS_5scene18COBJMeshFileLoader7SObjMtlEED0Ev @2040
    _ZN3irr4core12irrAllocatorIPNS_5scene18COBJMeshFileLoader7SObjMtlEED1Ev @2041
    _ZN3irr4core12irrAllocatorIPNS_5scene18CPLYMeshFileLoader11SPLYElementEE12internal_newEj @2042
    _ZN3irr4core12irrAllocatorIPNS_5scene18CPLYMeshFileLoader11SPLYElementEE15internal_deleteEPv @2043
    _ZN3irr4core12irrAllocatorIPNS_5scene18CPLYMeshFileLoader11SPLYElementEED0Ev @2044
    _ZN3irr4core12irrAllocatorIPNS_5scene18CPLYMeshFileLoader11SPLYElementEED1Ev @2045
    _ZN3irr4core12irrAllocatorIPNS_5scene25ISceneNodeAnimatorFactoryEE12internal_newEj @2046
    _ZN3irr4core12irrAllocatorIPNS_5scene25ISceneNodeAnimatorFactoryEE15internal_deleteEPv @2047
    _ZN3irr4core12irrAllocatorIPNS_5scene25ISceneNodeAnimatorFactoryEED0Ev @2048
    _ZN3irr4core12irrAllocatorIPNS_5scene25ISceneNodeAnimatorFactoryEED1Ev @2049
    _ZN3irr4core12irrAllocatorIPNS_5scene4MeshEE12internal_newEj @2050
    _ZN3irr4core12irrAllocatorIPNS_5scene4MeshEE15internal_deleteEPv @2051
    _ZN3irr4core12irrAllocatorIPNS_5scene4MeshEED0Ev @2052
    _ZN3irr4core12irrAllocatorIPNS_5scene4MeshEED1Ev @2053
    _ZN3irr4core12irrAllocatorIPNS_5scene5GroupEE12internal_newEj @2054
    _ZN3irr4core12irrAllocatorIPNS_5scene5GroupEE15internal_deleteEPv @2055
    _ZN3irr4core12irrAllocatorIPNS_5scene5GroupEED0Ev @2056
    _ZN3irr4core12irrAllocatorIPNS_5scene5GroupEED1Ev @2057
    _ZN3irr4core12irrAllocatorIPNS_5scene5IMeshEE12internal_newEj @2058
    _ZN3irr4core12irrAllocatorIPNS_5scene5IMeshEE15internal_deleteEPv @2059
    _ZN3irr4core12irrAllocatorIPNS_5scene5IMeshEED0Ev @2060
    _ZN3irr4core12irrAllocatorIPNS_5scene5IMeshEED1Ev @2061
    _ZN3irr4core12irrAllocatorIPNS_5scene6EntityEE12internal_newEj @2062
    _ZN3irr4core12irrAllocatorIPNS_5scene6EntityEE15internal_deleteEPv @2063
    _ZN3irr4core12irrAllocatorIPNS_5scene6EntityEED0Ev @2064
    _ZN3irr4core12irrAllocatorIPNS_5scene6EntityEED1Ev @2065
    _ZN3irr4core12irrAllocatorIPNS_5scene7SurfaceEE12internal_newEj @2066
    _ZN3irr4core12irrAllocatorIPNS_5scene7SurfaceEE15internal_deleteEPv @2067
    _ZN3irr4core12irrAllocatorIPNS_5scene7SurfaceEED0Ev @2068
    _ZN3irr4core12irrAllocatorIPNS_5scene7SurfaceEED1Ev @2069
    _ZN3irr4core12irrAllocatorIPNS_5scene8LightMapEE12internal_newEj @2070
    _ZN3irr4core12irrAllocatorIPNS_5scene8LightMapEE15internal_deleteEPv @2071
    _ZN3irr4core12irrAllocatorIPNS_5scene8LightMapEED0Ev @2072
    _ZN3irr4core12irrAllocatorIPNS_5scene8LightMapEED1Ev @2073
    _ZN3irr4core12irrAllocatorIPNS_5scene8VisGroupEE12internal_newEj @2074
    _ZN3irr4core12irrAllocatorIPNS_5scene8VisGroupEE15internal_deleteEPv @2075
    _ZN3irr4core12irrAllocatorIPNS_5scene8VisGroupEED0Ev @2076
    _ZN3irr4core12irrAllocatorIPNS_5scene8VisGroupEED1Ev @2077
    _ZN3irr4core12irrAllocatorIPNS_5video12IImageLoaderEE12internal_newEj @2078
    _ZN3irr4core12irrAllocatorIPNS_5video12IImageLoaderEE15internal_deleteEPv @2079
    _ZN3irr4core12irrAllocatorIPNS_5video12IImageLoaderEED0Ev @2080
    _ZN3irr4core12irrAllocatorIPNS_5video12IImageLoaderEED1Ev @2081
    _ZN3irr4core12irrAllocatorIPNS_5video12IImageWriterEE12internal_newEj @2082
    _ZN3irr4core12irrAllocatorIPNS_5video12IImageWriterEE15internal_deleteEPv @2083
    _ZN3irr4core12irrAllocatorIPNS_5video12IImageWriterEED0Ev @2084
    _ZN3irr4core12irrAllocatorIPNS_5video12IImageWriterEED1Ev @2085
    _ZN3irr4core12irrAllocatorIPNS_5video13SDepthSurfaceEE12internal_newEj @2086
    _ZN3irr4core12irrAllocatorIPNS_5video13SDepthSurfaceEE15internal_deleteEPv @2087
    _ZN3irr4core12irrAllocatorIPNS_5video13SDepthSurfaceEED0Ev @2088
    _ZN3irr4core12irrAllocatorIPNS_5video13SDepthSurfaceEED1Ev @2089
    _ZN3irr4core12irrAllocatorIPNS_5video8ITextureEE12internal_newEj @2090
    _ZN3irr4core12irrAllocatorIPNS_5video8ITextureEE15internal_deleteEPv @2091
    _ZN3irr4core12irrAllocatorIPNS_5video8ITextureEED0Ev @2092
    _ZN3irr4core12irrAllocatorIPNS_5video8ITextureEED1Ev @2093
    _ZN3irr4core12irrAllocatorIPNS_5video9SMaterialEE12internal_newEj @2094
    _ZN3irr4core12irrAllocatorIPNS_5video9SMaterialEE15internal_deleteEPv @2095
    _ZN3irr4core12irrAllocatorIPNS_5video9SMaterialEED0Ev @2096
    _ZN3irr4core12irrAllocatorIPNS_5video9SMaterialEED1Ev @2097
    _ZN3irr4core12irrAllocatorIbE12internal_newEj @2098
    _ZN3irr4core12irrAllocatorIbE15internal_deleteEPv @2099
    _ZN3irr4core12irrAllocatorIbED0Ev @2100
    _ZN3irr4core12irrAllocatorIbED1Ev @2101
    _ZN3irr4core12irrAllocatorIcE12internal_newEj @2102
    _ZN3irr4core12irrAllocatorIcE15internal_deleteEPv @2103
    _ZN3irr4core12irrAllocatorIcE8allocateEj @2104
    _ZN3irr4core12irrAllocatorIcED0Ev @2105
    _ZN3irr4core12irrAllocatorIcED1Ev @2106
    _ZN3irr4core12irrAllocatorIdE12internal_newEj @2107
    _ZN3irr4core12irrAllocatorIdE15internal_deleteEPv @2108
    _ZN3irr4core12irrAllocatorIdED0Ev @2109
    _ZN3irr4core12irrAllocatorIdED1Ev @2110
    _ZN3irr4core12irrAllocatorIfE12internal_newEj @2111
    _ZN3irr4core12irrAllocatorIfE15internal_deleteEPv @2112
    _ZN3irr4core12irrAllocatorIfED0Ev @2113
    _ZN3irr4core12irrAllocatorIfED1Ev @2114
    _ZN3irr4core12irrAllocatorIhE12internal_newEj @2115
    _ZN3irr4core12irrAllocatorIhE15internal_deleteEPv @2116
    _ZN3irr4core12irrAllocatorIhED0Ev @2117
    _ZN3irr4core12irrAllocatorIhED1Ev @2118
    _ZN3irr4core12irrAllocatorIiE12internal_newEj @2119
    _ZN3irr4core12irrAllocatorIiE15internal_deleteEPv @2120
    _ZN3irr4core12irrAllocatorIiED0Ev @2121
    _ZN3irr4core12irrAllocatorIiED1Ev @2122
    _ZN3irr4core12irrAllocatorIjE12internal_newEj @2123
    _ZN3irr4core12irrAllocatorIjE15internal_deleteEPv @2124
    _ZN3irr4core12irrAllocatorIjED0Ev @2125
    _ZN3irr4core12irrAllocatorIjED1Ev @2126
    _ZN3irr4core12irrAllocatorImE12internal_newEj @2127
    _ZN3irr4core12irrAllocatorImE15internal_deleteEPv @2128
    _ZN3irr4core12irrAllocatorImE8allocateEj @2129
    _ZN3irr4core12irrAllocatorImED0Ev @2130
    _ZN3irr4core12irrAllocatorImED1Ev @2131
    _ZN3irr4core12irrAllocatorIsE12internal_newEj @2132
    _ZN3irr4core12irrAllocatorIsE15internal_deleteEPv @2133
    _ZN3irr4core12irrAllocatorIsED0Ev @2134
    _ZN3irr4core12irrAllocatorIsED1Ev @2135
    _ZN3irr4core12irrAllocatorItE12internal_newEj @2136
    _ZN3irr4core12irrAllocatorItE15internal_deleteEPv @2137
    _ZN3irr4core12irrAllocatorItE8allocateEj @2138
    _ZN3irr4core12irrAllocatorItED0Ev @2139
    _ZN3irr4core12irrAllocatorItED1Ev @2140
    _ZN3irr4core12irrAllocatorIwE12internal_newEj @2141
    _ZN3irr4core12irrAllocatorIwE15internal_deleteEPv @2142
    _ZN3irr4core12irrAllocatorIwE8allocateEj @2143
    _ZN3irr4core12irrAllocatorIwED0Ev @2144
    _ZN3irr4core12irrAllocatorIwED1Ev @2145
    _ZN3irr4core12process_compEPhiS1_i @2146
    _ZN3irr4core14IdentityMatrixE @2147 DATA
    _ZN3irr4core14fast_atof_moveEPKcRf @2148
    _ZN3irr4core14process_uncompEhPhi @2149
    _ZN3irr4core16hasFileExtensionERKNS0_6stringIcNS0_12irrAllocatorIcEEEES6_S6_S6_ @2150
    _ZN3irr4core3mapINS0_6stringIcNS0_12irrAllocatorIcEEEEjE10rotateLeftEPNS6_6RBTreeIS5_jEE @2151
    _ZN3irr4core3mapINS0_6stringIcNS0_12irrAllocatorIcEEEEjE11rotateRightEPNS6_6RBTreeIS5_jEE @2152
    _ZN3irr4core3mapINS0_6stringIcNS0_12irrAllocatorIcEEEEjE5clearEv @2153
    _ZN3irr4core3mapINS_5video9S3DVertexEiED1Ev @2154
    _ZN3irr4core3mapIPKNS_5scene11IMeshBufferEPNS_5video11CNullDriver13SHWBufferLinkEED1Ev @2155
    _ZN3irr4core3mapIwiED1Ev @2156
    _ZN3irr4core4listIPNS_3gui11IGUIElementEED1Ev @2157
    _ZN3irr4core4listIPNS_3gui16CGUITreeViewNodeEED1Ev @2158
    _ZN3irr4core4listIPNS_5scene10ISceneNodeEED1Ev @2159
    _ZN3irr4core4listIPNS_5scene17IParticleAffectorEED1Ev @2160
    _ZN3irr4core4listIPNS_5scene18ISceneNodeAnimatorEED1Ev @2161
    _ZN3irr4core5arrayINS0_10triangle3dIfEENS0_12irrAllocatorIS3_EEED1Ev @2162
    _ZN3irr4core5arrayINS0_4rectIiEENS0_12irrAllocatorIS3_EEED1Ev @2163
    _ZN3irr4core5arrayINS0_6stringIcNS0_12irrAllocatorIcEEEENS3_IS5_EEE10reallocateEj @2164
    _ZN3irr4core5arrayINS0_6stringIcNS0_12irrAllocatorIcEEEENS3_IS5_EEE5clearEv @2165
    _ZN3irr4core5arrayINS0_6stringIcNS0_12irrAllocatorIcEEEENS3_IS5_EEE9push_backERKS5_ @2166
    _ZN3irr4core5arrayINS0_6stringIcNS0_12irrAllocatorIcEEEENS3_IS5_EEED1Ev @2167
    _ZN3irr4core5arrayINS0_6stringIcNS0_12irrAllocatorIcEEEENS3_IS5_EEEaSERKS7_ @2168
    _ZN3irr4core5arrayINS0_6stringImNS0_12irrAllocatorImEEEENS3_IS5_EEE9push_backERKS5_ @2169
    _ZN3irr4core5arrayINS0_6stringImNS0_12irrAllocatorImEEEENS3_IS5_EEED1Ev @2170
    _ZN3irr4core5arrayINS0_6stringItNS0_12irrAllocatorItEEEENS3_IS5_EEE9push_backERKS5_ @2171
    _ZN3irr4core5arrayINS0_6stringItNS0_12irrAllocatorItEEEENS3_IS5_EEED1Ev @2172
    _ZN3irr4core5arrayINS0_6stringIwNS0_12irrAllocatorIwEEEENS3_IS5_EEE9push_backERKS5_ @2173
    _ZN3irr4core5arrayINS0_6stringIwNS0_12irrAllocatorIwEEEENS3_IS5_EEED1Ev @2174
    _ZN3irr4core5arrayINS0_6stringIwNS0_12irrAllocatorIwEEEENS3_IS5_EEEaSERKS7_ @2175
    _ZN3irr4core5arrayINS0_8CMatrix4IfEENS0_12irrAllocatorIS3_EEE9push_backERKS3_ @2176
    _ZN3irr4core5arrayINS0_8CMatrix4IfEENS0_12irrAllocatorIS3_EEED1Ev @2177
    _ZN3irr4core5arrayINS0_8aabbox3dIfEENS0_12irrAllocatorIS3_EEED1Ev @2178
    _ZN3irr4core5arrayINS0_8vector2dIfEENS0_12irrAllocatorIS3_EEE10reallocateEj @2179
    _ZN3irr4core5arrayINS0_8vector2dIfEENS0_12irrAllocatorIS3_EEE9push_backERKS3_ @2180
    _ZN3irr4core5arrayINS0_8vector2dIfEENS0_12irrAllocatorIS3_EEED1Ev @2181
    _ZN3irr4core5arrayINS0_8vector2dIfEENS0_12irrAllocatorIS3_EEEaSERKS6_ @2182
    _ZN3irr4core5arrayINS0_8vector2dIiEENS0_12irrAllocatorIS3_EEED1Ev @2183
    _ZN3irr4core5arrayINS0_8vector3dIfEENS0_12irrAllocatorIS3_EEE5clearEv @2184
    _ZN3irr4core5arrayINS0_8vector3dIfEENS0_12irrAllocatorIS3_EEE9push_backERKS3_ @2185
    _ZN3irr4core5arrayINS0_8vector3dIfEENS0_12irrAllocatorIS3_EEED1Ev @2186
    _ZN3irr4core5arrayINS1_INS0_8vector2dIfEENS0_12irrAllocatorIS3_EEEENS4_IS6_EEE5clearEv @2187
    _ZN3irr4core5arrayINS1_INS0_8vector2dIfEENS0_12irrAllocatorIS3_EEEENS4_IS6_EEE9push_backERKS6_ @2188
    _ZN3irr4core5arrayINS1_INS0_8vector2dIfEENS0_12irrAllocatorIS3_EEEENS4_IS6_EEED1Ev @2189
    _ZN3irr4core5arrayINS1_IPNS_5scene11IMeshBufferENS0_12irrAllocatorIS4_EEEENS5_IS7_EEED1Ev @2190
    _ZN3irr4core5arrayINS1_IbNS0_12irrAllocatorIbEEEENS2_IS4_EEED1Ev @2191
    _ZN3irr4core5arrayINS1_IfNS0_12irrAllocatorIfEEEENS2_IS4_EEED1Ev @2192
    _ZN3irr4core5arrayINS1_IjNS0_12irrAllocatorIjEEEENS2_IS4_EEE5clearEv @2193
    _ZN3irr4core5arrayINS1_IjNS0_12irrAllocatorIjEEEENS2_IS4_EEE9push_backERKS4_ @2194
    _ZN3irr4core5arrayINS1_IjNS0_12irrAllocatorIjEEEENS2_IS4_EEED1Ev @2195
    _ZN3irr4core5arrayINS_15CIrrDeviceWin3212JoystickInfoENS0_12irrAllocatorIS3_EEED1Ev @2196
    _ZN3irr4core5arrayINS_17CIrrDeviceConsole16SPostPresentTextENS0_12irrAllocatorIS3_EEED1Ev @2197
    _ZN3irr4core5arrayINS_2io13SZipFileEntryENS0_12irrAllocatorIS3_EEED1Ev @2198
    _ZN3irr4core5arrayINS_2io14CXMLReaderImplIcNS2_8IXMLBaseEE10SAttributeENS0_12irrAllocatorIS6_EEE5clearEv @2199
    _ZN3irr4core5arrayINS_2io14CXMLReaderImplIcNS_17IReferenceCountedEE10SAttributeENS0_12irrAllocatorIS6_EEE5clearEv @2200
    _ZN3irr4core5arrayINS_2io14CXMLReaderImplImNS2_8IXMLBaseEE10SAttributeENS0_12irrAllocatorIS6_EEE5clearEv @2201
    _ZN3irr4core5arrayINS_2io14CXMLReaderImplItNS2_8IXMLBaseEE10SAttributeENS0_12irrAllocatorIS6_EEE5clearEv @2202
    _ZN3irr4core5arrayINS_2io14CXMLReaderImplIwNS_17IReferenceCountedEE10SAttributeENS0_12irrAllocatorIS6_EEE5clearEv @2203
    _ZN3irr4core5arrayINS_2io14SFileListEntryENS0_12irrAllocatorIS3_EEED1Ev @2204
    _ZN3irr4core5arrayINS_3gui10SGUISpriteENS0_12irrAllocatorIS3_EEE9push_backERKS3_ @2205
    _ZN3irr4core5arrayINS_3gui10SGUISpriteENS0_12irrAllocatorIS3_EEED1Ev @2206
    _ZN3irr4core5arrayINS_3gui11CGUIListBox8ListItemENS0_12irrAllocatorIS4_EEE6insertERKS4_j @2207
    _ZN3irr4core5arrayINS_3gui11CGUIListBox8ListItemENS0_12irrAllocatorIS4_EEED1Ev @2208
    _ZN3irr4core5arrayINS_3gui12CGUIComboBox10SComboDataENS0_12irrAllocatorIS4_EEED1Ev @2209
    _ZN3irr4core5arrayINS_3gui14CGUISpriteBank10SDrawBatchENS0_12irrAllocatorIS4_EEED1Ev @2210
    _ZN3irr4core5arrayINS_3gui15CGUIContextMenu5SItemENS0_12irrAllocatorIS4_EEE6insertERKS4_j @2211
    _ZN3irr4core5arrayINS_3gui15CGUIContextMenu5SItemENS0_12irrAllocatorIS4_EEED1Ev @2212
    _ZN3irr4core5arrayINS_3gui15CGUIEnvironment11SSpriteBankENS0_12irrAllocatorIS4_EEE13binary_searchERKS4_ @2213
    _ZN3irr4core5arrayINS_3gui15CGUIEnvironment11SSpriteBankENS0_12irrAllocatorIS4_EEED1Ev @2214
    _ZN3irr4core5arrayINS_3gui15CGUIEnvironment5SFontENS0_12irrAllocatorIS4_EEE13binary_searchERKS4_ @2215
    _ZN3irr4core5arrayINS_3gui15CGUIEnvironment5SFontENS0_12irrAllocatorIS4_EEE9push_backERKS4_ @2216
    _ZN3irr4core5arrayINS_3gui15CGUIEnvironment5SFontENS0_12irrAllocatorIS4_EEED1Ev @2217
    _ZN3irr4core5arrayINS_3gui21CGUIColorSelectDialog12SBatteryItemENS0_12irrAllocatorIS4_EEED1Ev @2218
    _ZN3irr4core5arrayINS_3gui8CGUIFont9SFontAreaENS0_12irrAllocatorIS4_EEED1Ev @2219
    _ZN3irr4core5arrayINS_3gui9CGUITable3RowENS0_12irrAllocatorIS4_EEE6insertERKS4_j @2220
    _ZN3irr4core5arrayINS_3gui9CGUITable3RowENS0_12irrAllocatorIS4_EEED1Ev @2221
    _ZN3irr4core5arrayINS_3gui9CGUITable4CellENS0_12irrAllocatorIS4_EEE10reallocateEj @2222
    _ZN3irr4core5arrayINS_3gui9CGUITable4CellENS0_12irrAllocatorIS4_EEE6insertERKS4_j @2223
    _ZN3irr4core5arrayINS_3gui9CGUITable4CellENS0_12irrAllocatorIS4_EEEaSERKS7_ @2224
    _ZN3irr4core5arrayINS_3gui9CGUITable6ColumnENS0_12irrAllocatorIS4_EEE6insertERKS4_j @2225
    _ZN3irr4core5arrayINS_3gui9CGUITable6ColumnENS0_12irrAllocatorIS4_EEED1Ev @2226
    _ZN3irr4core5arrayINS_5scene10CMeshCache9MeshEntryENS0_12irrAllocatorIS4_EEE4sortEv @2227
    _ZN3irr4core5arrayINS_5scene10CMeshCache9MeshEntryENS0_12irrAllocatorIS4_EEED1Ev @2228
    _ZN3irr4core5arrayINS_5scene10SMD3VertexENS0_12irrAllocatorIS3_EEED1Ev @2229
    _ZN3irr4core5arrayINS_5scene10SMyTVertexENS0_12irrAllocatorIS3_EEE8set_usedEj @2230
    _ZN3irr4core5arrayINS_5scene10SMyTVertexENS0_12irrAllocatorIS3_EEED1Ev @2231
    _ZN3irr4core5arrayINS_5scene12CQ3LevelMesh10STexShaderENS0_12irrAllocatorIS4_EEE10reallocateEj @2232
    _ZN3irr4core5arrayINS_5scene12CQ3LevelMesh10STexShaderENS0_12irrAllocatorIS4_EEED1Ev @2233
    _ZN3irr4core5arrayINS_5scene12CQ3LevelMesh20S3DVertex2TCoords_64ENS0_12irrAllocatorIS4_EEE8set_usedEj @2234
    _ZN3irr4core5arrayINS_5scene12CQ3LevelMesh20S3DVertex2TCoords_64ENS0_12irrAllocatorIS4_EEED1Ev @2235
    _ZN3irr4core5arrayINS_5scene12ISkinnedMesh12SPositionKeyENS0_12irrAllocatorIS4_EEE10reallocateEj @2236
    _ZN3irr4core5arrayINS_5scene12ISkinnedMesh12SPositionKeyENS0_12irrAllocatorIS4_EEED1Ev @2237
    _ZN3irr4core5arrayINS_5scene12ISkinnedMesh12SRotationKeyENS0_12irrAllocatorIS4_EEE10reallocateEj @2238
    _ZN3irr4core5arrayINS_5scene12ISkinnedMesh12SRotationKeyENS0_12irrAllocatorIS4_EEE6insertERKS4_j @2239
    _ZN3irr4core5arrayINS_5scene12ISkinnedMesh12SRotationKeyENS0_12irrAllocatorIS4_EEED1Ev @2240
    _ZN3irr4core5arrayINS_5scene12ISkinnedMesh7SWeightENS0_12irrAllocatorIS4_EEED1Ev @2241
    _ZN3irr4core5arrayINS_5scene12ISkinnedMesh9SScaleKeyENS0_12irrAllocatorIS4_EEE10reallocateEj @2242
    _ZN3irr4core5arrayINS_5scene12ISkinnedMesh9SScaleKeyENS0_12irrAllocatorIS4_EEED1Ev @2243
    _ZN3irr4core5arrayINS_5scene13CSceneManager16DefaultNodeEntryENS0_12irrAllocatorIS4_EEE9push_backERKS4_ @2244
    _ZN3irr4core5arrayINS_5scene13CSceneManager16DefaultNodeEntryENS0_12irrAllocatorIS4_EEED1Ev @2245
    _ZN3irr4core5arrayINS_5scene13CSceneManager17DistanceNodeEntryENS0_12irrAllocatorIS4_EEED1Ev @2246
    _ZN3irr4core5arrayINS_5scene13CSceneManager20TransparentNodeEntryENS0_12irrAllocatorIS4_EEE9push_backERKS4_ @2247
    _ZN3irr4core5arrayINS_5scene13CSceneManager20TransparentNodeEntryENS0_12irrAllocatorIS4_EEED1Ev @2248
    _ZN3irr4core5arrayINS_5scene13SColladaImageENS0_12irrAllocatorIS3_EEED1Ev @2249
    _ZN3irr4core5arrayINS_5scene13SColladaInputENS0_12irrAllocatorIS3_EEED1Ev @2250
    _ZN3irr4core5arrayINS_5scene13SColladaParamENS0_12irrAllocatorIS3_EEED1Ev @2251
    _ZN3irr4core5arrayINS_5scene13SColladaParamENS0_12irrAllocatorIS3_EEEaSERKS6_ @2252
    _ZN3irr4core5arrayINS_5scene14SColladaEffectENS0_12irrAllocatorIS3_EEED1Ev @2253
    _ZN3irr4core5arrayINS_5scene15SColladaTextureENS0_12irrAllocatorIS3_EEED1Ev @2254
    _ZN3irr4core5arrayINS_5scene16CAnimatedMeshMD214SAnimationDataENS0_12irrAllocatorIS4_EEED1Ev @2255
    _ZN3irr4core5arrayINS_5scene16CAnimatedMeshMD218SKeyFrameTransformENS0_12irrAllocatorIS4_EEED1Ev @2256
    _ZN3irr4core5arrayINS_5scene16SColladaMaterialENS0_12irrAllocatorIS3_EEED1Ev @2257
    _ZN3irr4core5arrayINS_5scene17SMD3QuaternionTagENS0_12irrAllocatorIS3_EEE9push_backERKS3_ @2258
    _ZN3irr4core5arrayINS_5scene18C3DSMeshFileLoader14SMaterialGroupENS0_12irrAllocatorIS4_EEE9push_backERKS4_ @2259
    _ZN3irr4core5arrayINS_5scene18C3DSMeshFileLoader14SMaterialGroupENS0_12irrAllocatorIS4_EEED1Ev @2260
    _ZN3irr4core5arrayINS_5scene18C3DSMeshFileLoader16SCurrentMaterialENS0_12irrAllocatorIS4_EEE9push_backERKS4_ @2261
    _ZN3irr4core5arrayINS_5scene18C3DSMeshFileLoader16SCurrentMaterialENS0_12irrAllocatorIS4_EEED1Ev @2262
    _ZN3irr4core5arrayINS_5scene18CB3DMeshFileLoader11SB3dTextureENS0_12irrAllocatorIS4_EEED1Ev @2263
    _ZN3irr4core5arrayINS_5scene18CB3DMeshFileLoader12SB3dMaterialENS0_12irrAllocatorIS4_EEED1Ev @2264
    _ZN3irr4core5arrayINS_5scene18CB3DMeshFileLoader9SB3dChunkENS0_12irrAllocatorIS4_EEE9push_backERKS4_ @2265
    _ZN3irr4core5arrayINS_5scene18CB3DMeshFileLoader9SB3dChunkENS0_12irrAllocatorIS4_EEED1Ev @2266
    _ZN3irr4core5arrayINS_5scene19CMY3DMeshFileLoader16SMyMaterialEntryENS0_12irrAllocatorIS4_EEE6insertERKS4_j @2267
    _ZN3irr4core5arrayINS_5scene19CMY3DMeshFileLoader16SMyMaterialEntryENS0_12irrAllocatorIS4_EEED1Ev @2268
    _ZN3irr4core5arrayINS_5scene19CMY3DMeshFileLoader18SMyMeshBufferEntryENS0_12irrAllocatorIS4_EEED1Ev @2269
    _ZN3irr4core5arrayINS_5scene19COgreMeshFileLoader11OgreSubMeshENS0_12irrAllocatorIS4_EEED1Ev @2270
    _ZN3irr4core5arrayINS_5scene19COgreMeshFileLoader12OgreMaterialENS0_12irrAllocatorIS4_EEED1Ev @2271
    _ZN3irr4core5arrayINS_5scene19COgreMeshFileLoader13OgreAnimationENS0_12irrAllocatorIS4_EEE5clearEv @2272
    _ZN3irr4core5arrayINS_5scene19COgreMeshFileLoader16OgreTextureAliasENS0_12irrAllocatorIS4_EEED1Ev @2273
    _ZN3irr4core5arrayINS_5scene19COgreMeshFileLoader16OgreVertexBufferENS0_12irrAllocatorIS4_EEED1Ev @2274
    _ZN3irr4core5arrayINS_5scene19COgreMeshFileLoader17OgreVertexElementENS0_12irrAllocatorIS4_EEED1Ev @2275
    _ZN3irr4core5arrayINS_5scene19COgreMeshFileLoader18OgreBoneAssignmentENS0_12irrAllocatorIS4_EEE9push_backERKS4_ @2276
    _ZN3irr4core5arrayINS_5scene19COgreMeshFileLoader8OgreBoneENS0_12irrAllocatorIS4_EEE5clearEv @2277
    _ZN3irr4core5arrayINS_5scene19COgreMeshFileLoader8OgreMeshENS0_12irrAllocatorIS4_EEED1Ev @2278
    _ZN3irr4core5arrayINS_5scene22CQuake3ShaderSceneNode10SQ3TextureENS0_12irrAllocatorIS4_EEED1Ev @2279
    _ZN3irr4core5arrayINS_5scene22CShadowVolumeSceneNode13SShadowVolumeENS0_12irrAllocatorIS4_EEED1Ev @2280
    _ZN3irr4core5arrayINS_5scene23CBillboardTextSceneNode11SSymbolInfoENS0_12irrAllocatorIS4_EEED1Ev @2281
    _ZN3irr4core5arrayINS_5scene24CDefaultSceneNodeFactory18SSceneNodeTypePairENS0_12irrAllocatorIS4_EEE9push_backERKS4_ @2282
    _ZN3irr4core5arrayINS_5scene24CDefaultSceneNodeFactory18SSceneNodeTypePairENS0_12irrAllocatorIS4_EEED1Ev @2283
    _ZN3irr4core5arrayINS_5scene27CSceneNodeAnimatorCameraFPS10SCamKeyMapENS0_12irrAllocatorIS4_EEED1Ev @2284
    _ZN3irr4core5arrayINS_5scene4LineENS0_12irrAllocatorIS3_EEE5clearEv @2285
    _ZN3irr4core5arrayINS_5scene6SGroupENS0_12irrAllocatorIS3_EEE10reallocateEj @2286
    _ZN3irr4core5arrayINS_5scene6SGroupENS0_12irrAllocatorIS3_EEED1Ev @2287
    _ZN3irr4core5arrayINS_5scene6VertexENS0_12irrAllocatorIS3_EEE5clearEv @2288
    _ZN3irr4core5arrayINS_5scene6quake37IShaderENS0_12irrAllocatorIS4_EEE5clearEv @2289
    _ZN3irr4core5arrayINS_5scene6quake37IShaderENS0_12irrAllocatorIS4_EEE9push_backERKS4_ @2290
    _ZN3irr4core5arrayINS_5scene6quake37IShaderENS0_12irrAllocatorIS4_EEED1Ev @2291
    _ZN3irr4core5arrayINS_5scene6quake39SVarGroupENS0_12irrAllocatorIS4_EEE9push_backERKS4_ @2292
    _ZN3irr4core5arrayINS_5scene6quake39SVariableENS0_12irrAllocatorIS4_EEE5clearEv @2293
    _ZN3irr4core5arrayINS_5scene6quake39SVariableENS0_12irrAllocatorIS4_EEE9push_backERKS4_ @2294
    _ZN3irr4core5arrayINS_5scene6quake39SVariableENS0_12irrAllocatorIS4_EEEaSERKS7_ @2295
    _ZN3irr4core5arrayINS_5scene7SMyFaceENS0_12irrAllocatorIS3_EEE8set_usedEj @2296
    _ZN3irr4core5arrayINS_5scene7SMyFaceENS0_12irrAllocatorIS3_EEED1Ev @2297
    _ZN3irr4core5arrayINS_5scene7SSourceENS0_12irrAllocatorIS3_EEED1Ev @2298
    _ZN3irr4core5arrayINS_5scene8SPolygonENS0_12irrAllocatorIS3_EEE10reallocateEj @2299
    _ZN3irr4core5arrayINS_5scene8SPolygonENS0_12irrAllocatorIS3_EEED1Ev @2300
    _ZN3irr4core5arrayINS_5scene8TriangleENS0_12irrAllocatorIS3_EEE5clearEv @2301
    _ZN3irr4core5arrayINS_5scene8sortaxisENS0_12irrAllocatorIS3_EEED1Ev @2302
    _ZN3irr4core5arrayINS_5scene9SMyVertexENS0_12irrAllocatorIS3_EEED1Ev @2303
    _ZN3irr4core5arrayINS_5scene9SParticleENS0_12irrAllocatorIS3_EEED1Ev @2304
    _ZN3irr4core5arrayINS_5video11CNullDriver17SMaterialRendererENS0_12irrAllocatorIS4_EEED1Ev @2305
    _ZN3irr4core5arrayINS_5video11CNullDriver8SSurfaceENS0_12irrAllocatorIS4_EEED1Ev @2306
    _ZN3irr4core5arrayINS_5video13COpenGLDriver14RequestedLightENS0_12irrAllocatorIS4_EEED1Ev @2307
    _ZN3irr4core5arrayINS_5video13COpenGLDriver14SUserClipPlaneENS0_12irrAllocatorIS4_EEED1Ev @2308
    _ZN3irr4core5arrayINS_5video17S3DVertex2TCoordsENS0_12irrAllocatorIS3_EEE10reallocateEj @2309
    _ZN3irr4core5arrayINS_5video17S3DVertex2TCoordsENS0_12irrAllocatorIS3_EEE9push_backERKS3_ @2310
    _ZN3irr4core5arrayINS_5video17S3DVertex2TCoordsENS0_12irrAllocatorIS3_EEED1Ev @2311
    _ZN3irr4core5arrayINS_5video17S3DVertexTangentsENS0_12irrAllocatorIS3_EEE10reallocateEj @2312
    _ZN3irr4core5arrayINS_5video17S3DVertexTangentsENS0_12irrAllocatorIS3_EEE9push_backERKS3_ @2313
    _ZN3irr4core5arrayINS_5video17S3DVertexTangentsENS0_12irrAllocatorIS3_EEED1Ev @2314
    _ZN3irr4core5arrayINS_5video25COpenGLSLMaterialRenderer12SUniformInfoENS0_12irrAllocatorIS4_EEED1Ev @2315
    _ZN3irr4core5arrayINS_5video6SLightENS0_12irrAllocatorIS3_EEED1Ev @2316
    _ZN3irr4core5arrayINS_5video9S2DVertexENS0_12irrAllocatorIS3_EEE8set_usedEj @2317
    _ZN3irr4core5arrayINS_5video9S2DVertexENS0_12irrAllocatorIS3_EEED1Ev @2318
    _ZN3irr4core5arrayINS_5video9S3DVertexENS0_12irrAllocatorIS3_EEE10reallocateEj @2319
    _ZN3irr4core5arrayINS_5video9S3DVertexENS0_12irrAllocatorIS3_EEE9push_backERKS3_ @2320
    _ZN3irr4core5arrayINS_5video9S3DVertexENS0_12irrAllocatorIS3_EEED1Ev @2321
    _ZN3irr4core5arrayINS_5video9SMaterialENS0_12irrAllocatorIS3_EEE10reallocateEj @2322
    _ZN3irr4core5arrayINS_5video9SMaterialENS0_12irrAllocatorIS3_EEE9push_backERKS3_ @2323
    _ZN3irr4core5arrayINS_5video9SMaterialENS0_12irrAllocatorIS3_EEED1Ev @2324
    _ZN3irr4core5arrayINS_6OctreeINS_5video17S3DVertex2TCoordsEE10SMeshChunkENS0_12irrAllocatorIS6_EEE10reallocateEj @2325
    _ZN3irr4core5arrayINS_6OctreeINS_5video17S3DVertex2TCoordsEE10SMeshChunkENS0_12irrAllocatorIS6_EEE5clearEv @2326
    _ZN3irr4core5arrayINS_6OctreeINS_5video17S3DVertex2TCoordsEE10SMeshChunkENS0_12irrAllocatorIS6_EEED1Ev @2327
    _ZN3irr4core5arrayINS_6OctreeINS_5video17S3DVertex2TCoordsEE11SIndexChunkENS0_12irrAllocatorIS6_EEE10reallocateEj @2328
    _ZN3irr4core5arrayINS_6OctreeINS_5video17S3DVertex2TCoordsEE11SIndexChunkENS0_12irrAllocatorIS6_EEE9push_backERKS6_ @2329
    _ZN3irr4core5arrayINS_6OctreeINS_5video17S3DVertex2TCoordsEE11SIndexChunkENS0_12irrAllocatorIS6_EEED1Ev @2330
    _ZN3irr4core5arrayINS_6OctreeINS_5video17S3DVertexTangentsEE10SMeshChunkENS0_12irrAllocatorIS6_EEE5clearEv @2331
    _ZN3irr4core5arrayINS_6OctreeINS_5video17S3DVertexTangentsEE10SMeshChunkENS0_12irrAllocatorIS6_EEED1Ev @2332
    _ZN3irr4core5arrayINS_6OctreeINS_5video17S3DVertexTangentsEE11SIndexChunkENS0_12irrAllocatorIS6_EEE10reallocateEj @2333
    _ZN3irr4core5arrayINS_6OctreeINS_5video17S3DVertexTangentsEE11SIndexChunkENS0_12irrAllocatorIS6_EEE9push_backERKS6_ @2334
    _ZN3irr4core5arrayINS_6OctreeINS_5video17S3DVertexTangentsEE11SIndexChunkENS0_12irrAllocatorIS6_EEED1Ev @2335
    _ZN3irr4core5arrayINS_6OctreeINS_5video9S3DVertexEE10SMeshChunkENS0_12irrAllocatorIS6_EEE5clearEv @2336
    _ZN3irr4core5arrayINS_6OctreeINS_5video9S3DVertexEE10SMeshChunkENS0_12irrAllocatorIS6_EEED1Ev @2337
    _ZN3irr4core5arrayINS_6OctreeINS_5video9S3DVertexEE11SIndexChunkENS0_12irrAllocatorIS6_EEE10reallocateEj @2338
    _ZN3irr4core5arrayINS_6OctreeINS_5video9S3DVertexEE11SIndexChunkENS0_12irrAllocatorIS6_EEE9push_backERKS6_ @2339
    _ZN3irr4core5arrayINS_6OctreeINS_5video9S3DVertexEE11SIndexChunkENS0_12irrAllocatorIS6_EEED1Ev @2340
    _ZN3irr4core5arrayIPKNS0_8aabbox3dIfEENS0_12irrAllocatorIS5_EEE9push_backERKS5_ @2341
    _ZN3irr4core5arrayIPKNS0_8aabbox3dIfEENS0_12irrAllocatorIS5_EEED1Ev @2342
    _ZN3irr4core5arrayIPNS_2io10IAttributeENS0_12irrAllocatorIS4_EEE9push_backERKS4_ @2343
    _ZN3irr4core5arrayIPNS_2io10IAttributeENS0_12irrAllocatorIS4_EEED1Ev @2344
    _ZN3irr4core5arrayIPNS_2io12IFileArchiveENS0_12irrAllocatorIS4_EEED1Ev @2345
    _ZN3irr4core5arrayIPNS_2io14IArchiveLoaderENS0_12irrAllocatorIS4_EEED1Ev @2346
    _ZN3irr4core5arrayIPNS_3gui18IGUIElementFactoryENS0_12irrAllocatorIS4_EEED1Ev @2347
    _ZN3irr4core5arrayIPNS_3gui7CGUITabENS0_12irrAllocatorIS4_EEED1Ev @2348
    _ZN3irr4core5arrayIPNS_5scene10ISceneNodeENS0_12irrAllocatorIS4_EEE9push_backERKS4_ @2349
    _ZN3irr4core5arrayIPNS_5scene10ISceneNodeENS0_12irrAllocatorIS4_EEED1Ev @2350
    _ZN3irr4core5arrayIPNS_5scene11IMeshBufferENS0_12irrAllocatorIS4_EEE9push_backERKS4_ @2351
    _ZN3irr4core5arrayIPNS_5scene11IMeshBufferENS0_12irrAllocatorIS4_EEED1Ev @2352
    _ZN3irr4core5arrayIPNS_5scene11IMeshBufferENS0_12irrAllocatorIS4_EEEaSERKS7_ @2353
    _ZN3irr4core5arrayIPNS_5scene11IMeshLoaderENS0_12irrAllocatorIS4_EEE9push_backERKS4_ @2354
    _ZN3irr4core5arrayIPNS_5scene11IMeshLoaderENS0_12irrAllocatorIS4_EEED1Ev @2355
    _ZN3irr4core5arrayIPNS_5scene12ISkinnedMesh6SJointENS0_12irrAllocatorIS5_EEED1Ev @2356
    _ZN3irr4core5arrayIPNS_5scene14IBoneSceneNodeENS0_12irrAllocatorIS4_EEED1Ev @2357
    _ZN3irr4core5arrayIPNS_5scene14IColladaPrefabENS0_12irrAllocatorIS4_EEE9push_backERKS4_ @2358
    _ZN3irr4core5arrayIPNS_5scene14IColladaPrefabENS0_12irrAllocatorIS4_EEED1Ev @2359
    _ZN3irr4core5arrayIPNS_5scene14SMD3MeshBufferENS0_12irrAllocatorIS4_EEED1Ev @2360
    _ZN3irr4core5arrayIPNS_5scene15ILightSceneNodeENS0_12irrAllocatorIS4_EEED1Ev @2361
    _ZN3irr4core5arrayIPNS_5scene15SSkinMeshBufferENS0_12irrAllocatorIS4_EEED1Ev @2362
    _ZN3irr4core5arrayIPNS_5scene16CXMeshFileLoader6SXMeshENS0_12irrAllocatorIS5_EEE9push_backERKS5_ @2363
    _ZN3irr4core5arrayIPNS_5scene16CXMeshFileLoader6SXMeshENS0_12irrAllocatorIS5_EEED1Ev @2364
    _ZN3irr4core5arrayIPNS_5scene17ISceneNodeFactoryENS0_12irrAllocatorIS4_EEED1Ev @2365
    _ZN3irr4core5arrayIPNS_5scene17ITriangleSelectorENS0_12irrAllocatorIS4_EEED1Ev @2366
    _ZN3irr4core5arrayIPNS_5scene18CLWOMeshFileLoader12tLWOMaterialENS0_12irrAllocatorIS5_EEE5clearEv @2367
    _ZN3irr4core5arrayIPNS_5scene18CLWOMeshFileLoader12tLWOMaterialENS0_12irrAllocatorIS5_EEED1Ev @2368
    _ZN3irr4core5arrayIPNS_5scene18COBJMeshFileLoader7SObjMtlENS0_12irrAllocatorIS5_EEE9push_backERKS5_ @2369
    _ZN3irr4core5arrayIPNS_5scene18COBJMeshFileLoader7SObjMtlENS0_12irrAllocatorIS5_EEED1Ev @2370
    _ZN3irr4core5arrayIPNS_5scene18CPLYMeshFileLoader11SPLYElementENS0_12irrAllocatorIS5_EEED1Ev @2371
    _ZN3irr4core5arrayIPNS_5scene25ISceneNodeAnimatorFactoryENS0_12irrAllocatorIS4_EEED1Ev @2372
    _ZN3irr4core5arrayIPNS_5scene4MeshENS0_12irrAllocatorIS4_EEE5clearEv @2373
    _ZN3irr4core5arrayIPNS_5scene5GroupENS0_12irrAllocatorIS4_EEE5clearEv @2374
    _ZN3irr4core5arrayIPNS_5scene5IMeshENS0_12irrAllocatorIS4_EEED1Ev @2375
    _ZN3irr4core5arrayIPNS_5scene6EntityENS0_12irrAllocatorIS4_EEE5clearEv @2376
    _ZN3irr4core5arrayIPNS_5scene7SurfaceENS0_12irrAllocatorIS4_EEE5clearEv @2377
    _ZN3irr4core5arrayIPNS_5scene8LightMapENS0_12irrAllocatorIS4_EEE5clearEv @2378
    _ZN3irr4core5arrayIPNS_5scene8VisGroupENS0_12irrAllocatorIS4_EEE5clearEv @2379
    _ZN3irr4core5arrayIPNS_5video12IImageLoaderENS0_12irrAllocatorIS4_EEE9push_backERKS4_ @2380
    _ZN3irr4core5arrayIPNS_5video12IImageLoaderENS0_12irrAllocatorIS4_EEED1Ev @2381
    _ZN3irr4core5arrayIPNS_5video12IImageWriterENS0_12irrAllocatorIS4_EEE9push_backERKS4_ @2382
    _ZN3irr4core5arrayIPNS_5video12IImageWriterENS0_12irrAllocatorIS4_EEED1Ev @2383
    _ZN3irr4core5arrayIPNS_5video13SDepthSurfaceENS0_12irrAllocatorIS4_EEED1Ev @2384
    _ZN3irr4core5arrayIPNS_5video8ITextureENS0_12irrAllocatorIS4_EEE10reallocateEj @2385
    _ZN3irr4core5arrayIPNS_5video8ITextureENS0_12irrAllocatorIS4_EEE5clearEv @2386
    _ZN3irr4core5arrayIPNS_5video8ITextureENS0_12irrAllocatorIS4_EEED1Ev @2387
    _ZN3irr4core5arrayIbNS0_12irrAllocatorIbEEED1Ev @2388
    _ZN3irr4core5arrayIfNS0_12irrAllocatorIfEEE10reallocateEj @2389
    _ZN3irr4core5arrayIfNS0_12irrAllocatorIfEEE9push_backERKf @2390
    _ZN3irr4core5arrayIfNS0_12irrAllocatorIfEEED1Ev @2391
    _ZN3irr4core5arrayIfNS0_12irrAllocatorIfEEEaSERKS4_ @2392
    _ZN3irr4core5arrayIhNS0_12irrAllocatorIhEEED1Ev @2393
    _ZN3irr4core5arrayIiNS0_12irrAllocatorIiEEE10reallocateEj @2394
    _ZN3irr4core5arrayIiNS0_12irrAllocatorIiEEE5clearEv @2395
    _ZN3irr4core5arrayIiNS0_12irrAllocatorIiEEE9push_backERKi @2396
    _ZN3irr4core5arrayIiNS0_12irrAllocatorIiEEED1Ev @2397
    _ZN3irr4core5arrayIjNS0_12irrAllocatorIjEEE10reallocateEj @2398
    _ZN3irr4core5arrayIjNS0_12irrAllocatorIjEEE9push_backERKj @2399
    _ZN3irr4core5arrayIjNS0_12irrAllocatorIjEEED1Ev @2400
    _ZN3irr4core5arrayIjNS0_12irrAllocatorIjEEEaSERKS4_ @2401
    _ZN3irr4core5arrayItNS0_12irrAllocatorItEEE10reallocateEj @2402
    _ZN3irr4core5arrayItNS0_12irrAllocatorItEEE5clearEv @2403
    _ZN3irr4core5arrayItNS0_12irrAllocatorItEEE9push_backERKt @2404
    _ZN3irr4core5arrayItNS0_12irrAllocatorItEEED1Ev @2405
    _ZN3irr4core5arrayItNS0_12irrAllocatorItEEEaSERKS4_ @2406
    _ZN3irr4core6stringIcNS0_12irrAllocatorIcEEE10reallocateEj @2407
    _ZN3irr4core6stringIcNS0_12irrAllocatorIcEEE4trimERKS4_ @2408
    _ZN3irr4core6stringIcNS0_12irrAllocatorIcEEE6appendEPKc @2409
    _ZN3irr4core6stringIcNS0_12irrAllocatorIcEEE6appendERKS4_ @2410
    _ZN3irr4core6stringIcNS0_12irrAllocatorIcEEE6appendEc @2411
    _ZN3irr4core6stringIcNS0_12irrAllocatorIcEEEC1ERKS4_ @2412
    _ZN3irr4core6stringIcNS0_12irrAllocatorIcEEEC1Ei @2413
    _ZN3irr4core6stringIcNS0_12irrAllocatorIcEEEC1Ej @2414
    _ZN3irr4core6stringIcNS0_12irrAllocatorIcEEEC1Ev @2415
    _ZN3irr4core6stringIcNS0_12irrAllocatorIcEEEC1IcEEPKT_ @2416
    _ZN3irr4core6stringIcNS0_12irrAllocatorIcEEEC1IcEEPKT_j @2417
    _ZN3irr4core6stringIcNS0_12irrAllocatorIcEEEC1ImEEPKT_ @2418
    _ZN3irr4core6stringIcNS0_12irrAllocatorIcEEEC1ItEEPKT_ @2419
    _ZN3irr4core6stringIcNS0_12irrAllocatorIcEEEC1IwEEPKT_ @2420
    _ZN3irr4core6stringIcNS0_12irrAllocatorIcEEED1Ev @2421
    _ZN3irr4core6stringIcNS0_12irrAllocatorIcEEEaSERKS4_ @2422
    _ZN3irr4core6stringIcNS0_12irrAllocatorIcEEEaSIcEERS4_PKT_ @2423
    _ZN3irr4core6stringIcNS0_12irrAllocatorIcEEEaSIwEERS4_PKT_ @2424
    _ZN3irr4core6stringIcNS0_12irrAllocatorIcEEEpLEPKc @2425
    _ZN3irr4core6stringIcNS0_12irrAllocatorIcEEEpLEj @2426
    _ZN3irr4core6stringImNS0_12irrAllocatorImEEE10reallocateEj @2427
    _ZN3irr4core6stringImNS0_12irrAllocatorImEEEC1ERKS4_ @2428
    _ZN3irr4core6stringImNS0_12irrAllocatorImEEEC1ImEEPKT_j @2429
    _ZN3irr4core6stringImNS0_12irrAllocatorImEEED1Ev @2430
    _ZN3irr4core6stringImNS0_12irrAllocatorImEEEaSERKS4_ @2431
    _ZN3irr4core6stringImNS0_12irrAllocatorImEEEaSIcEERS4_PKT_ @2432
    _ZN3irr4core6stringItNS0_12irrAllocatorItEEE10reallocateEj @2433
    _ZN3irr4core6stringItNS0_12irrAllocatorItEEEC1ERKS4_ @2434
    _ZN3irr4core6stringItNS0_12irrAllocatorItEEEC1ItEEPKT_j @2435
    _ZN3irr4core6stringItNS0_12irrAllocatorItEEED1Ev @2436
    _ZN3irr4core6stringItNS0_12irrAllocatorItEEEaSERKS4_ @2437
    _ZN3irr4core6stringItNS0_12irrAllocatorItEEEaSIcEERS4_PKT_ @2438
    _ZN3irr4core6stringIwNS0_12irrAllocatorIwEEE10reallocateEj @2439
    _ZN3irr4core6stringIwNS0_12irrAllocatorIwEEE6appendERKS4_ @2440
    _ZN3irr4core6stringIwNS0_12irrAllocatorIwEEE6appendEw @2441
    _ZN3irr4core6stringIwNS0_12irrAllocatorIwEEEC1ERKS4_ @2442
    _ZN3irr4core6stringIwNS0_12irrAllocatorIwEEEC1Ed @2443
    _ZN3irr4core6stringIwNS0_12irrAllocatorIwEEEC1Ei @2444
    _ZN3irr4core6stringIwNS0_12irrAllocatorIwEEEC1Ej @2445
    _ZN3irr4core6stringIwNS0_12irrAllocatorIwEEEC1Ev @2446
    _ZN3irr4core6stringIwNS0_12irrAllocatorIwEEEC1IcEEPKT_ @2447
    _ZN3irr4core6stringIwNS0_12irrAllocatorIwEEEC1IwEEPKT_ @2448
    _ZN3irr4core6stringIwNS0_12irrAllocatorIwEEEC1IwEEPKT_j @2449
    _ZN3irr4core6stringIwNS0_12irrAllocatorIwEEED1Ev @2450
    _ZN3irr4core6stringIwNS0_12irrAllocatorIwEEEaSERKS4_ @2451
    _ZN3irr4core6stringIwNS0_12irrAllocatorIwEEEaSIcEERS4_PKT_ @2452
    _ZN3irr4core6stringIwNS0_12irrAllocatorIwEEEaSIwEERS4_PKT_ @2453
    _ZN3irr4core6stringIwNS0_12irrAllocatorIwEEEpLEf @2454
    _ZN3irr4core6stringIwNS0_12irrAllocatorIwEEEpLEi @2455
    _ZN3irr4core8CMatrix4IfE11makeInverseEv @2456
    _ZN3irr4core8CMatrix4IfE18setRotationDegreesERKNS0_8vector3dIfEE @2457
    _ZN3irr4core8CMatrix4IfE18setRotationRadiansERKNS0_8vector3dIfEE @2458
    _ZN3irr4core8CMatrix4IfE20setbyproduct_nocheckERKS2_S4_ @2459
    _ZN3irr4core8CMatrix4IfE24setTextureRotationCenterEf @2460
    _ZN3irr4core8CMatrix4IfEC1ENS2_12eConstructorE @2461
    _ZN3irr4core8CMatrix4IfEC1ERKS2_NS2_12eConstructorE @2462
    _ZN3irr4core8CMatrix4IfEaSERKS2_ @2463
    _ZN3irr4core8CMatrix4IfEmLERKS2_ @2464
    _ZN3irr4core8aabbox3dIfE14addInternalBoxERKS2_ @2465
    _ZN3irr4core8get_byteEPhS1_iS1_i @2466
    _ZN3irr4core8heapsinkINS0_6stringIcNS0_12irrAllocatorIcEEEEEEvPT_ii @2467
    _ZN3irr4core8put_byteEhPhi @2468
    _ZN3irr4core8vector3dIfE10rotateXYByEdRKS2_ @2469
    _ZN3irr4core8vector3dIfE10rotateXZByEdRKS2_ @2470
    _ZN3irr4core8vector3dIfE9normalizeEv @2471
    _ZN3irr4core9fast_atofEPKc @2472
    _ZN3irr5scene10CCSMLoader10createMeshEPNS_2io9IReadFileE @2473
    _ZN3irr5scene10CCSMLoader13createCSMMeshEPNS_2io9IReadFileE @2474
    _ZN3irr5scene10CCSMLoader18createIrrlichtMeshEPKNS0_7CSMFileERKNS_4core6stringIcNS5_12irrAllocatorIcEEEESB_ @2475
    _ZN3irr5scene10CCSMLoaderC1EPNS0_13ISceneManagerEPNS_2io11IFileSystemE @2476
    _ZN3irr5scene10CCSMLoaderC2EPNS0_13ISceneManagerEPNS_2io11IFileSystemE @2477
    _ZN3irr5scene10CCSMLoaderD0Ev @2478
    _ZN3irr5scene10CCSMLoaderD1Ev @2479
    _ZN3irr5scene10CDMFLoader10createMeshEPNS_2io9IReadFileE @2480
    _ZN3irr5scene10CDMFLoader8findFileEbRKNS_4core6stringIcNS2_12irrAllocatorIcEEEES8_RS6_ @2481
    _ZN3irr5scene10CDMFLoaderC1EPNS0_13ISceneManagerEPNS_2io11IFileSystemE @2482
    _ZN3irr5scene10CDMFLoaderC2EPNS0_13ISceneManagerEPNS_2io11IFileSystemE @2483
    _ZN3irr5scene10CDMFLoaderD0Ev @2484
    _ZN3irr5scene10CDMFLoaderD1Ev @2485
    _ZN3irr5scene10CMeshCache10removeMeshEPKNS0_13IAnimatedMeshE @2486
    _ZN3irr5scene10CMeshCache10removeMeshEPKNS0_5IMeshE @2487
    _ZN3irr5scene10CMeshCache10renameMeshEPKNS0_13IAnimatedMeshERKNS_4core6stringIcNS5_12irrAllocatorIcEEEE @2488
    _ZN3irr5scene10CMeshCache10renameMeshEPKNS0_5IMeshERKNS_4core6stringIcNS5_12irrAllocatorIcEEEE @2489
    _ZN3irr5scene10CMeshCache10renameMeshEjRKNS_4core6stringIcNS2_12irrAllocatorIcEEEE @2490
    _ZN3irr5scene10CMeshCache12isMeshLoadedERKNS_4core6stringIcNS2_12irrAllocatorIcEEEE @2491
    _ZN3irr5scene10CMeshCache13getMeshByNameERKNS_4core6stringIcNS2_12irrAllocatorIcEEEE @2492
    _ZN3irr5scene10CMeshCache14getMeshByIndexEj @2493
    _ZN3irr5scene10CMeshCache17clearUnusedMeshesEv @2494
    _ZN3irr5scene10CMeshCache5clearEv @2495
    _ZN3irr5scene10CMeshCache7addMeshERKNS_4core6stringIcNS2_12irrAllocatorIcEEEEPNS0_13IAnimatedMeshE @2496
    _ZN3irr5scene10CMeshCacheD0Ev @2497
    _ZN3irr5scene10CMeshCacheD1Ev @2498
    _ZN3irr5scene10CMeshCacheD2Ev @2499
    _ZN3irr5scene10COCTLoader10createMeshEPNS_2io9IReadFileE @2500
    _ZN3irr5scene10COCTLoader13OCTLoadLightsEPNS_2io9IReadFileEPNS0_10ISceneNodeEffb @2501
    _ZN3irr5scene10COCTLoaderC1EPNS0_13ISceneManagerEPNS_2io11IFileSystemE @2502
    _ZN3irr5scene10COCTLoaderC2EPNS0_13ISceneManagerEPNS_2io11IFileSystemE @2503
    _ZN3irr5scene10COCTLoaderD0Ev @2504
    _ZN3irr5scene10COCTLoaderD1Ev @2505
    _ZN3irr5scene10COCTLoaderD2Ev @2506
    _ZN3irr5scene10CameraData4loadEPNS0_16BinaryFileReaderE @2507
    _ZN3irr5scene10CameraData5clearEv @2508
    _ZN3irr5scene10IMeshCacheD0Ev @2509
    _ZN3irr5scene10IMeshCacheD1Ev @2510
    _ZN3irr5scene10ISceneNode10setVisibleEb @2511
    _ZN3irr5scene10ISceneNode11addAnimatorEPNS0_18ISceneNodeAnimatorE @2512
    _ZN3irr5scene10ISceneNode11getMaterialEj @2513
    _ZN3irr5scene10ISceneNode11removeChildEPS1_ @2514
    _ZN3irr5scene10ISceneNode11setPositionERKNS_4core8vector3dIfEE @2515
    _ZN3irr5scene10ISceneNode11setRotationERKNS_4core8vector3dIfEE @2516
    _ZN3irr5scene10ISceneNode14removeAnimatorEPNS0_18ISceneNodeAnimatorE @2517
    _ZN3irr5scene10ISceneNode15removeAnimatorsEv @2518
    _ZN3irr5scene10ISceneNode15setSceneManagerEPNS0_13ISceneManagerE @2519
    _ZN3irr5scene10ISceneNode19OnRegisterSceneNodeEv @2520
    _ZN3irr5scene10ISceneNode19setDebugDataVisibleEi @2521
    _ZN3irr5scene10ISceneNode19setTriangleSelectorEPNS0_17ITriangleSelectorE @2522
    _ZN3irr5scene10ISceneNode21deserializeAttributesEPNS_2io11IAttributesEPNS2_26SAttributeReadWriteOptionsE @2523
    _ZN3irr5scene10ISceneNode22updateAbsolutePositionEv @2524
    _ZN3irr5scene10ISceneNode5cloneEPS1_PNS0_13ISceneManagerE @2525
    _ZN3irr5scene10ISceneNode5setIDEi @2526
    _ZN3irr5scene10ISceneNode6removeEv @2527
    _ZN3irr5scene10ISceneNode7setNameEPKc @2528
    _ZN3irr5scene10ISceneNode7setNameERKNS_4core6stringIcNS2_12irrAllocatorIcEEEE @2529
    _ZN3irr5scene10ISceneNode8addChildEPS1_ @2530
    _ZN3irr5scene10ISceneNode8setScaleERKNS_4core8vector3dIfEE @2531
    _ZN3irr5scene10ISceneNode9OnAnimateEj @2532
    _ZN3irr5scene10ISceneNode9removeAllEv @2533
    _ZN3irr5scene10ISceneNode9setParentEPS1_ @2534
    _ZN3irr5scene10ISceneNodeC2EPS1_PNS0_13ISceneManagerEiRKNS_4core8vector3dIfEES9_S9_ @2535
    _ZN3irr5scene10ISceneNodeD0Ev @2536
    _ZN3irr5scene10ISceneNodeD1Ev @2537
    _ZN3irr5scene10ISceneNodeD2Ev @2538
    _ZN3irr5scene11CMeshBufferINS_5video17S3DVertex2TCoordsEE10getIndicesEv @2539
    _ZN3irr5scene11CMeshBufferINS_5video17S3DVertex2TCoordsEE10getTCoordsEj @2540
    _ZN3irr5scene11CMeshBufferINS_5video17S3DVertex2TCoordsEE11getMaterialEv @2541
    _ZN3irr5scene11CMeshBufferINS_5video17S3DVertex2TCoordsEE11getPositionEj @2542
    _ZN3irr5scene11CMeshBufferINS_5video17S3DVertex2TCoordsEE11getVerticesEv @2543
    _ZN3irr5scene11CMeshBufferINS_5video17S3DVertex2TCoordsEE14setBoundingBoxERKNS_4core8aabbox3dIfEE @2544
    _ZN3irr5scene11CMeshBufferINS_5video17S3DVertex2TCoordsEE22recalculateBoundingBoxEv @2545
    _ZN3irr5scene11CMeshBufferINS_5video17S3DVertex2TCoordsEE22setHardwareMappingHintENS0_18E_HARDWARE_MAPPINGENS0_13E_BUFFER_TYPEE @2546
    _ZN3irr5scene11CMeshBufferINS_5video17S3DVertex2TCoordsEE6appendEPKNS0_11IMeshBufferE @2547
    _ZN3irr5scene11CMeshBufferINS_5video17S3DVertex2TCoordsEE6appendEPKvjPKtj @2548
    _ZN3irr5scene11CMeshBufferINS_5video17S3DVertex2TCoordsEE8setDirtyENS0_13E_BUFFER_TYPEE @2549
    _ZN3irr5scene11CMeshBufferINS_5video17S3DVertex2TCoordsEE9getNormalEj @2550
    _ZN3irr5scene11CMeshBufferINS_5video17S3DVertex2TCoordsEED0Ev @2551
    _ZN3irr5scene11CMeshBufferINS_5video17S3DVertex2TCoordsEED1Ev @2552
    _ZN3irr5scene11CMeshBufferINS_5video17S3DVertexTangentsEE10getIndicesEv @2553
    _ZN3irr5scene11CMeshBufferINS_5video17S3DVertexTangentsEE10getTCoordsEj @2554
    _ZN3irr5scene11CMeshBufferINS_5video17S3DVertexTangentsEE11getMaterialEv @2555
    _ZN3irr5scene11CMeshBufferINS_5video17S3DVertexTangentsEE11getPositionEj @2556
    _ZN3irr5scene11CMeshBufferINS_5video17S3DVertexTangentsEE11getVerticesEv @2557
    _ZN3irr5scene11CMeshBufferINS_5video17S3DVertexTangentsEE14setBoundingBoxERKNS_4core8aabbox3dIfEE @2558
    _ZN3irr5scene11CMeshBufferINS_5video17S3DVertexTangentsEE22recalculateBoundingBoxEv @2559
    _ZN3irr5scene11CMeshBufferINS_5video17S3DVertexTangentsEE22setHardwareMappingHintENS0_18E_HARDWARE_MAPPINGENS0_13E_BUFFER_TYPEE @2560
    _ZN3irr5scene11CMeshBufferINS_5video17S3DVertexTangentsEE6appendEPKNS0_11IMeshBufferE @2561
    _ZN3irr5scene11CMeshBufferINS_5video17S3DVertexTangentsEE6appendEPKvjPKtj @2562
    _ZN3irr5scene11CMeshBufferINS_5video17S3DVertexTangentsEE8setDirtyENS0_13E_BUFFER_TYPEE @2563
    _ZN3irr5scene11CMeshBufferINS_5video17S3DVertexTangentsEE9getNormalEj @2564
    _ZN3irr5scene11CMeshBufferINS_5video17S3DVertexTangentsEED0Ev @2565
    _ZN3irr5scene11CMeshBufferINS_5video17S3DVertexTangentsEED1Ev @2566
    _ZN3irr5scene11CMeshBufferINS_5video9S3DVertexEE10getIndicesEv @2567
    _ZN3irr5scene11CMeshBufferINS_5video9S3DVertexEE10getTCoordsEj @2568
    _ZN3irr5scene11CMeshBufferINS_5video9S3DVertexEE11getMaterialEv @2569
    _ZN3irr5scene11CMeshBufferINS_5video9S3DVertexEE11getPositionEj @2570
    _ZN3irr5scene11CMeshBufferINS_5video9S3DVertexEE11getVerticesEv @2571
    _ZN3irr5scene11CMeshBufferINS_5video9S3DVertexEE14setBoundingBoxERKNS_4core8aabbox3dIfEE @2572
    _ZN3irr5scene11CMeshBufferINS_5video9S3DVertexEE22recalculateBoundingBoxEv @2573
    _ZN3irr5scene11CMeshBufferINS_5video9S3DVertexEE22setHardwareMappingHintENS0_18E_HARDWARE_MAPPINGENS0_13E_BUFFER_TYPEE @2574
    _ZN3irr5scene11CMeshBufferINS_5video9S3DVertexEE6appendEPKNS0_11IMeshBufferE @2575
    _ZN3irr5scene11CMeshBufferINS_5video9S3DVertexEE6appendEPKvjPKtj @2576
    _ZN3irr5scene11CMeshBufferINS_5video9S3DVertexEE8setDirtyENS0_13E_BUFFER_TYPEE @2577
    _ZN3irr5scene11CMeshBufferINS_5video9S3DVertexEE9getNormalEj @2578
    _ZN3irr5scene11CMeshBufferINS_5video9S3DVertexEEC1Ev @2579
    _ZN3irr5scene11CMeshBufferINS_5video9S3DVertexEED0Ev @2580
    _ZN3irr5scene11CMeshBufferINS_5video9S3DVertexEED1Ev @2581
    _ZN3irr5scene11IMeshBufferD0Ev @2582
    _ZN3irr5scene11IMeshBufferD1Ev @2583
    _ZN3irr5scene11IMeshLoaderD0Ev @2584
    _ZN3irr5scene11IMeshLoaderD1Ev @2585
    _ZN3irr5scene11IMeshWriterD0Ev @2586
    _ZN3irr5scene11IMeshWriterD1Ev @2587
    _ZN3irr5scene12CIndexBuffer10IIndexListD0Ev @2588
    _ZN3irr5scene12CIndexBuffer10IIndexListD1Ev @2589
    _ZN3irr5scene12CIndexBuffer10reallocateEj @2590
    _ZN3irr5scene12CIndexBuffer18CSpecificIndexListIjE10reallocateEj @2591
    _ZN3irr5scene12CIndexBuffer18CSpecificIndexListIjE7getLastEv @2592
    _ZN3irr5scene12CIndexBuffer18CSpecificIndexListIjE7pointerEv @2593
    _ZN3irr5scene12CIndexBuffer18CSpecificIndexListIjE8setValueEjj @2594
    _ZN3irr5scene12CIndexBuffer18CSpecificIndexListIjE8set_usedEj @2595
    _ZN3irr5scene12CIndexBuffer18CSpecificIndexListIjE9push_backERKj @2596
    _ZN3irr5scene12CIndexBuffer18CSpecificIndexListIjED0Ev @2597
    _ZN3irr5scene12CIndexBuffer18CSpecificIndexListIjED1Ev @2598
    _ZN3irr5scene12CIndexBuffer18CSpecificIndexListItE10reallocateEj @2599
    _ZN3irr5scene12CIndexBuffer18CSpecificIndexListItE7getLastEv @2600
    _ZN3irr5scene12CIndexBuffer18CSpecificIndexListItE7pointerEv @2601
    _ZN3irr5scene12CIndexBuffer18CSpecificIndexListItE8setValueEjj @2602
    _ZN3irr5scene12CIndexBuffer18CSpecificIndexListItE8set_usedEj @2603
    _ZN3irr5scene12CIndexBuffer18CSpecificIndexListItE9push_backERKj @2604
    _ZN3irr5scene12CIndexBuffer18CSpecificIndexListItED0Ev @2605
    _ZN3irr5scene12CIndexBuffer18CSpecificIndexListItED1Ev @2606
    _ZN3irr5scene12CIndexBuffer22setHardwareMappingHintENS0_18E_HARDWARE_MAPPINGE @2607
    _ZN3irr5scene12CIndexBuffer7getDataEv @2608
    _ZN3irr5scene12CIndexBuffer7getLastEv @2609
    _ZN3irr5scene12CIndexBuffer7pointerEv @2610
    _ZN3irr5scene12CIndexBuffer7setTypeENS_5video12E_INDEX_TYPEE @2611
    _ZN3irr5scene12CIndexBuffer8setDirtyEv @2612
    _ZN3irr5scene12CIndexBuffer8setValueEjj @2613
    _ZN3irr5scene12CIndexBuffer8set_usedEj @2614
    _ZN3irr5scene12CIndexBuffer9push_backERKj @2615
    _ZN3irr5scene12CIndexBufferD0Ev @2616
    _ZN3irr5scene12CIndexBufferD1Ev @2617
    _ZN3irr5scene12CLightPrefab11addInstanceEPNS0_10ISceneNodeEPNS0_13ISceneManagerE @2618
    _ZN3irr5scene12CLightPrefabD0Ev @2619
    _ZN3irr5scene12CLightPrefabD1Ev @2620
    _ZN3irr5scene12CQ3LevelMesh10InitShaderEv @2621
    _ZN3irr5scene12CQ3LevelMesh10loadModelsEPNS1_8tBSPLumpEPNS_2io9IReadFileE @2622
    _ZN3irr5scene12CQ3LevelMesh10loadPlanesEPNS1_8tBSPLumpEPNS_2io9IReadFileE @2623
    _ZN3irr5scene12CQ3LevelMesh11cleanLoaderEv @2624
    _ZN3irr5scene12CQ3LevelMesh11cleanMeshesEv @2625
    _ZN3irr5scene12CQ3LevelMesh11loadBrushesEPNS1_8tBSPLumpEPNS_2io9IReadFileE @2626
    _ZN3irr5scene12CQ3LevelMesh11loadVisDataEPNS1_8tBSPLumpEPNS_2io9IReadFileE @2627
    _ZN3irr5scene12CQ3LevelMesh12loadEntitiesEPNS1_8tBSPLumpEPNS_2io9IReadFileE @2628
    _ZN3irr5scene12CQ3LevelMesh12loadTexturesEPNS1_8tBSPLumpEPNS_2io9IReadFileE @2629
    _ZN3irr5scene12CQ3LevelMesh12loadTexturesEv @2630
    _ZN3irr5scene12CQ3LevelMesh12parser_parseEPKvjMS1_FvRPNS0_6quake313SVarGroupListENS1_6eTokenEE @2631
    _ZN3irr5scene12CQ3LevelMesh13ReleaseEntityEv @2632
    _ZN3irr5scene12CQ3LevelMesh13ReleaseShaderEv @2633
    _ZN3irr5scene12CQ3LevelMesh13constructMeshEv @2634
    _ZN3irr5scene12CQ3LevelMesh13getEntityListEv @2635
    _ZN3irr5scene12CQ3LevelMesh13loadLeafFacesEPNS1_8tBSPLumpEPNS_2io9IReadFileE @2636
    _ZN3irr5scene12CQ3LevelMesh13loadLightmapsEPNS1_8tBSPLumpEPNS_2io9IReadFileE @2637
    _ZN3irr5scene12CQ3LevelMesh13loadMeshVertsEPNS1_8tBSPLumpEPNS_2io9IReadFileE @2638
    _ZN3irr5scene12CQ3LevelMesh14loadBrushSidesEPNS1_8tBSPLumpEPNS_2io9IReadFileE @2639
    _ZN3irr5scene12CQ3LevelMesh14setBoundingBoxERKNS_4core8aabbox3dIfEE @2640
    _ZN3irr5scene12CQ3LevelMesh14solveTJunctionEv @2641
    _ZN3irr5scene12CQ3LevelMesh15loadLeafBrushesEPNS1_8tBSPLumpEPNS_2io9IReadFileE @2642
    _ZN3irr5scene12CQ3LevelMesh15setMaterialFlagENS_5video15E_MATERIAL_FLAGEb @2643
    _ZN3irr5scene12CQ3LevelMesh16getConfigurationEPNS_2io9IReadFileE @2644
    _ZN3irr5scene12CQ3LevelMesh16parser_nextTokenEv @2645
    _ZN3irr5scene12CQ3LevelMesh17calcBoundingBoxesEv @2646
    _ZN3irr5scene12CQ3LevelMesh21scriptcallback_configERPNS0_6quake313SVarGroupListENS1_6eTokenE @2647
    _ZN3irr5scene12CQ3LevelMesh21scriptcallback_entityERPNS0_6quake313SVarGroupListENS1_6eTokenE @2648
    _ZN3irr5scene12CQ3LevelMesh21scriptcallback_shaderERPNS0_6quake313SVarGroupListENS1_6eTokenE @2649
    _ZN3irr5scene12CQ3LevelMesh22setHardwareMappingHintENS0_18E_HARDWARE_MAPPINGENS0_13E_BUFFER_TYPEE @2650
    _ZN3irr5scene12CQ3LevelMesh26createCurvedSurface_bezierEPNS0_11CMeshBufferINS_5video17S3DVertex2TCoordsEEEiii @2651
    _ZN3irr5scene12CQ3LevelMesh33createCurvedSurface_nosubdivisionEPNS0_11CMeshBufferINS_5video17S3DVertex2TCoordsEEEiii @2652
    _ZN3irr5scene12CQ3LevelMesh7SBezier9tesselateEi @2653
    _ZN3irr5scene12CQ3LevelMesh7SBezierD1Ev @2654
    _ZN3irr5scene12CQ3LevelMesh7getMeshEiiii @2655
    _ZN3irr5scene12CQ3LevelMesh8loadFileEPNS_2io9IReadFileE @2656
    _ZN3irr5scene12CQ3LevelMesh8loadFogsEPNS1_8tBSPLumpEPNS_2io9IReadFileE @2657
    _ZN3irr5scene12CQ3LevelMesh8setDirtyENS0_13E_BUFFER_TYPEE @2658
    _ZN3irr5scene12CQ3LevelMesh9getShaderEPKcb @2659
    _ZN3irr5scene12CQ3LevelMesh9getShaderEPNS_2io9IReadFileE @2660
    _ZN3irr5scene12CQ3LevelMesh9loadFacesEPNS1_8tBSPLumpEPNS_2io9IReadFileE @2661
    _ZN3irr5scene12CQ3LevelMesh9loadLeafsEPNS1_8tBSPLumpEPNS_2io9IReadFileE @2662
    _ZN3irr5scene12CQ3LevelMesh9loadNodesEPNS1_8tBSPLumpEPNS_2io9IReadFileE @2663
    _ZN3irr5scene12CQ3LevelMesh9loadVertsEPNS1_8tBSPLumpEPNS_2io9IReadFileE @2664
    _ZN3irr5scene12CQ3LevelMeshC1EPNS_2io11IFileSystemEPNS0_13ISceneManagerERKNS0_6quake320Q3LevelLoadParameterE @2665
    _ZN3irr5scene12CQ3LevelMeshC2EPNS_2io11IFileSystemEPNS0_13ISceneManagerERKNS0_6quake320Q3LevelLoadParameterE @2666
    _ZN3irr5scene12CQ3LevelMeshD0Ev @2667
    _ZN3irr5scene12CQ3LevelMeshD1Ev @2668
    _ZN3irr5scene12CQ3LevelMeshD2Ev @2669
    _ZN3irr5scene12CScenePrefab11addInstanceEPNS0_10ISceneNodeEPNS0_13ISceneManagerE @2670
    _ZN3irr5scene12CScenePrefabC1ERKNS_4core6stringIcNS2_12irrAllocatorIcEEEE @2671
    _ZN3irr5scene12CScenePrefabD0Ev @2672
    _ZN3irr5scene12CScenePrefabD1Ev @2673
    _ZN3irr5scene12CSkinnedMesh11addScaleKeyEPNS0_12ISkinnedMesh6SJointE @2674
    _ZN3irr5scene12CSkinnedMesh11animateMeshEff @2675
    _ZN3irr5scene12CSkinnedMesh12createJointsERNS_4core5arrayIPNS0_14IBoneSceneNodeENS2_12irrAllocatorIS5_EEEEPNS0_22IAnimatedMeshSceneNodeEPNS0_13ISceneManagerE @2676
    _ZN3irr5scene12CSkinnedMesh12getAllJointsEv @2677
    _ZN3irr5scene12CSkinnedMesh12getFrameDataEfPNS0_12ISkinnedMesh6SJointERNS_4core8vector3dIfEERiS8_S9_RNS5_10quaternionES9_ @2678
    _ZN3irr5scene12CSkinnedMesh13addMeshBufferEv @2679
    _ZN3irr5scene12CSkinnedMesh14addPositionKeyEPNS0_12ISkinnedMesh6SJointE @2680
    _ZN3irr5scene12CSkinnedMesh14addRotationKeyEPNS0_12ISkinnedMesh6SJointE @2681
    _ZN3irr5scene12CSkinnedMesh14getMeshBuffersEv @2682
    _ZN3irr5scene12CSkinnedMesh14setBoundingBoxERKNS_4core8aabbox3dIfEE @2683
    _ZN3irr5scene12CSkinnedMesh15setMaterialFlagENS_5video15E_MATERIAL_FLAGEb @2684
    _ZN3irr5scene12CSkinnedMesh16normalizeWeightsEv @2685
    _ZN3irr5scene12CSkinnedMesh16useAnimationFromEPKNS0_12ISkinnedMeshE @2686
    _ZN3irr5scene12CSkinnedMesh17calculateTangentsERNS_4core8vector3dIfEES5_S5_S5_S5_S5_RNS2_8vector2dIfEES8_S8_ @2687
    _ZN3irr5scene12CSkinnedMesh17checkForAnimationEv @2688
    _ZN3irr5scene12CSkinnedMesh17updateBoundingBoxEv @2689
    _ZN3irr5scene12CSkinnedMesh19setHardwareSkinningEb @2690
    _ZN3irr5scene12CSkinnedMesh20setInterpolationModeENS0_20E_INTERPOLATION_MODEE @2691
    _ZN3irr5scene12CSkinnedMesh20transferJointsToMeshERKNS_4core5arrayIPNS0_14IBoneSceneNodeENS2_12irrAllocatorIS5_EEEE @2692
    _ZN3irr5scene12CSkinnedMesh21convertMeshToTangentsEv @2693
    _ZN3irr5scene12CSkinnedMesh21recoverJointsFromMeshERNS_4core5arrayIPNS0_14IBoneSceneNodeENS2_12irrAllocatorIS5_EEEE @2694
    _ZN3irr5scene12CSkinnedMesh22setHardwareMappingHintENS0_18E_HARDWARE_MAPPINGENS0_13E_BUFFER_TYPEE @2695
    _ZN3irr5scene12CSkinnedMesh23CalculateGlobalMatricesEPNS0_12ISkinnedMesh6SJointES4_ @2696
    _ZN3irr5scene12CSkinnedMesh26updateNormalsWhenAnimatingEb @2697
    _ZN3irr5scene12CSkinnedMesh29transferOnlyJointsHintsToMeshERKNS_4core5arrayIPNS0_14IBoneSceneNodeENS2_12irrAllocatorIS5_EEEE @2698
    _ZN3irr5scene12CSkinnedMesh30buildAll_LocalAnimatedMatricesEv @2699
    _ZN3irr5scene12CSkinnedMesh31buildAll_GlobalAnimatedMatricesEPNS0_12ISkinnedMesh6SJointES4_ @2700
    _ZN3irr5scene12CSkinnedMesh7getMeshEiiii @2701
    _ZN3irr5scene12CSkinnedMesh8addJointEPNS0_12ISkinnedMesh6SJointE @2702
    _ZN3irr5scene12CSkinnedMesh8finalizeEv @2703
    _ZN3irr5scene12CSkinnedMesh8isStaticEv @2704
    _ZN3irr5scene12CSkinnedMesh8setDirtyENS0_13E_BUFFER_TYPEE @2705
    _ZN3irr5scene12CSkinnedMesh8skinMeshEv @2706
    _ZN3irr5scene12CSkinnedMesh9SkinJointEPNS0_12ISkinnedMesh6SJointES4_ @2707
    _ZN3irr5scene12CSkinnedMesh9addWeightEPNS0_12ISkinnedMesh6SJointE @2708
    _ZN3irr5scene12CSkinnedMeshC1Ev @2709
    _ZN3irr5scene12CSkinnedMeshC2Ev @2710
    _ZN3irr5scene12CSkinnedMeshD0Ev @2711
    _ZN3irr5scene12CSkinnedMeshD1Ev @2712
    _ZN3irr5scene12CSkinnedMeshD2Ev @2713
    _ZN3irr5scene12IIndexBufferD0Ev @2714
    _ZN3irr5scene12IIndexBufferD1Ev @2715
    _ZN3irr5scene12IQ3LevelMeshD0Ev @2716
    _ZN3irr5scene12IQ3LevelMeshD1Ev @2717
    _ZN3irr5scene12IQ3LevelMeshD2Ev @2718
    _ZN3irr5scene12ISkinnedMesh6SJointD1Ev @2719
    _ZN3irr5scene12ISkinnedMeshD0Ev @2720
    _ZN3irr5scene12ISkinnedMeshD1Ev @2721
    _ZN3irr5scene12SNumberArrayD1Ev @2722
    _ZN3irr5scene12SViewFrustumC1ERKNS_4core8CMatrix4IfEE @2723
    _ZN3irr5scene13CCameraPrefab11addInstanceEPNS0_10ISceneNodeEPNS0_13ISceneManagerE @2724
    _ZN3irr5scene13CCameraPrefabD0Ev @2725
    _ZN3irr5scene13CCameraPrefabD1Ev @2726
    _ZN3irr5scene13CSceneManager12addArrowMeshERKNS_4core6stringIcNS2_12irrAllocatorIcEEEENS_5video6SColorESA_jjffff @2727
    _ZN3irr5scene13CSceneManager12addSceneNodeEPKcPNS0_10ISceneNodeE @2728
    _ZN3irr5scene13CSceneManager12getMeshCacheEv @2729
    _ZN3irr5scene13CSceneManager12readUserDataEPNS_2io13IIrrXMLReaderIwNS_17IReferenceCountedEEEPNS0_10ISceneNodeEPNS0_24ISceneUserDataSerializerE @2730
    _ZN3irr5scene13CSceneManager13addSphereMeshERKNS_4core6stringIcNS2_12irrAllocatorIcEEEEfjj @2731
    _ZN3irr5scene13CSceneManager13getFileSystemEv @2732
    _ZN3irr5scene13CSceneManager13getParametersEv @2733
    _ZN3irr5scene13CSceneManager13readAnimatorsEPNS_2io13IIrrXMLReaderIwNS_17IReferenceCountedEEEPNS0_10ISceneNodeE @2734
    _ZN3irr5scene13CSceneManager13readMaterialsEPNS_2io13IIrrXMLReaderIwNS_17IReferenceCountedEEEPNS0_10ISceneNodeE @2735
    _ZN3irr5scene13CSceneManager13readSceneNodeEPNS_2io13IIrrXMLReaderIwNS_17IReferenceCountedEEEPNS0_10ISceneNodeEPNS0_24ISceneUserDataSerializerE @2736
    _ZN3irr5scene13CSceneManager14addTerrainMeshERKNS_4core6stringIcNS2_12irrAllocatorIcEEEEPNS_5video6IImageESB_RKNS2_11dimension2dIfEEfRKNSC_IjEE @2737
    _ZN3irr5scene13CSceneManager14getVideoDriverEv @2738
    _ZN3irr5scene13CSceneManager14setShadowColorENS_5video6SColorE @2739
    _ZN3irr5scene13CSceneManager14writeSceneNodeEPNS_2io10IXMLWriterEPNS0_10ISceneNodeEPNS0_24ISceneUserDataSerializerE @2740
    _ZN3irr5scene13CSceneManager15setActiveCameraEPNS0_16ICameraSceneNodeE @2741
    _ZN3irr5scene13CSceneManager15setAmbientLightERKNS_5video7SColorfE @2742
    _ZN3irr5scene13CSceneManager15setLightManagerEPNS0_13ILightManagerE @2743
    _ZN3irr5scene13CSceneManager16DefaultNodeEntryC1EPNS0_10ISceneNodeE @2744
    _ZN3irr5scene13CSceneManager16addCubeSceneNodeEfPNS0_10ISceneNodeEiRKNS_4core8vector3dIfEES8_S8_ @2745
    _ZN3irr5scene13CSceneManager16addHillPlaneMeshERKNS_4core6stringIcNS2_12irrAllocatorIcEEEERKNS2_11dimension2dIfEERKNS9_IjEEPNS_5video9SMaterialEfSC_SC_ @2746
    _ZN3irr5scene13CSceneManager16addMeshSceneNodeEPNS0_5IMeshEPNS0_10ISceneNodeEiRKNS_4core8vector3dIfEESA_SA_b @2747
    _ZN3irr5scene13CSceneManager16addTextSceneNodeEPNS_3gui8IGUIFontEPKwNS_5video6SColorEPNS0_10ISceneNodeERKNS_4core8vector3dIfEEi @2748
    _ZN3irr5scene13CSceneManager16createMeshWriterENS0_17EMESH_WRITER_TYPEE @2749
    _ZN3irr5scene13CSceneManager16getRootSceneNodeEv @2750
    _ZN3irr5scene13CSceneManager17addEmptySceneNodeEPNS0_10ISceneNodeEi @2751
    _ZN3irr5scene13CSceneManager17addLightSceneNodeEPNS0_10ISceneNodeERKNS_4core8vector3dIfEENS_5video7SColorfEfi @2752
    _ZN3irr5scene13CSceneManager17clearDeletionListEv @2753
    _ZN3irr5scene13CSceneManager17createSkinnedMeshEv @2754
    _ZN3irr5scene13CSceneManager17getGUIEnvironmentEv @2755
    _ZN3irr5scene13CSceneManager17postEventFromUserERKNS_6SEventE @2756
    _ZN3irr5scene13CSceneManager18addCameraSceneNodeEPNS0_10ISceneNodeERKNS_4core8vector3dIfEES8_ib @2757
    _ZN3irr5scene13CSceneManager18addOctreeSceneNodeEPNS0_13IAnimatedMeshEPNS0_10ISceneNodeEiib @2758
    _ZN3irr5scene13CSceneManager18addOctreeSceneNodeEPNS0_5IMeshEPNS0_10ISceneNodeEiib @2759
    _ZN3irr5scene13CSceneManager18addQuake3SceneNodeEPKNS0_11IMeshBufferEPKNS0_6quake37IShaderEPNS0_10ISceneNodeEi @2760
    _ZN3irr5scene13CSceneManager18addSkyBoxSceneNodeEPNS_5video8ITextureES4_S4_S4_S4_S4_PNS0_10ISceneNodeEi @2761
    _ZN3irr5scene13CSceneManager18addSphereSceneNodeEfiPNS0_10ISceneNodeEiRKNS_4core8vector3dIfEES8_S8_ @2762
    _ZN3irr5scene13CSceneManager18addToDeletionQueueEPNS0_10ISceneNodeE @2763
    _ZN3irr5scene13CSceneManager18addVolumeLightMeshERKNS_4core6stringIcNS2_12irrAllocatorIcEEEEjjNS_5video6SColorESA_ @2764
    _ZN3irr5scene13CSceneManager18getMeshManipulatorEv @2765
    _ZN3irr5scene13CSceneManager18getSceneNodeFromIdEiPNS0_10ISceneNodeE @2766
    _ZN3irr5scene13CSceneManager19addSkyDomeSceneNodeEPNS_5video8ITextureEjjfffPNS0_10ISceneNodeEi @2767
    _ZN3irr5scene13CSceneManager19addTerrainSceneNodeEPNS_2io9IReadFileEPNS0_10ISceneNodeEiRKNS_4core8vector3dIfEESB_SB_NS_5video6SColorEiNS0_20E_TERRAIN_PATCH_SIZEEib @2768
    _ZN3irr5scene13CSceneManager19addTerrainSceneNodeERKNS_4core6stringIcNS2_12irrAllocatorIcEEEEPNS0_10ISceneNodeEiRKNS2_8vector3dIfEESE_SE_NS_5video6SColorEiNS0_20E_TERRAIN_PATCH_SIZEEib @2769
    _ZN3irr5scene13CSceneManager19getAnimatorTypeNameENS0_25ESCENE_NODE_ANIMATOR_TYPEE @2770
    _ZN3irr5scene13CSceneManager19getSceneNodeFactoryEj @2771
    _ZN3irr5scene13CSceneManager20TransparentNodeEntryC1EPNS0_10ISceneNodeERKNS_4core8vector3dIfEE @2772
    _ZN3irr5scene13CSceneManager20createDeleteAnimatorEj @2773
    _ZN3irr5scene13CSceneManager20getSceneNodeFromNameEPKcPNS0_10ISceneNodeE @2774
    _ZN3irr5scene13CSceneManager20getSceneNodeFromTypeENS0_16ESCENE_NODE_TYPEEPNS0_10ISceneNodeE @2775
    _ZN3irr5scene13CSceneManager20getSceneNodeTypeNameENS0_16ESCENE_NODE_TYPEE @2776
    _ZN3irr5scene13CSceneManager21addBillboardSceneNodeEPNS0_10ISceneNodeERKNS_4core11dimension2dIfEERKNS4_8vector3dIfEEiNS_5video6SColorESE_ @2777
    _ZN3irr5scene13CSceneManager21addCameraSceneNodeFPSEPNS0_10ISceneNodeEffiPNS_7SKeyMapEibfbb @2778
    _ZN3irr5scene13CSceneManager21addExternalMeshLoaderEPNS0_11IMeshLoaderE @2779
    _ZN3irr5scene13CSceneManager21createNewSceneManagerEb @2780
    _ZN3irr5scene13CSceneManager21createTextureAnimatorERKNS_4core5arrayIPNS_5video8ITextureENS2_12irrAllocatorIS6_EEEEib @2781
    _ZN3irr5scene13CSceneManager21deserializeAttributesEPNS_2io11IAttributesEPNS2_26SAttributeReadWriteOptionsE @2782
    _ZN3irr5scene13CSceneManager21getSceneNodesFromTypeENS0_16ESCENE_NODE_TYPEERNS_4core5arrayIPNS0_10ISceneNodeENS3_12irrAllocatorIS6_EEEES6_ @2783
    _ZN3irr5scene13CSceneManager22addCameraSceneNodeMayaEPNS0_10ISceneNodeEfffib @2784
    _ZN3irr5scene13CSceneManager22createRotationAnimatorERKNS_4core8vector3dIfEE @2785
    _ZN3irr5scene13CSceneManager22createTriangleSelectorEPNS0_22IAnimatedMeshSceneNodeE @2786
    _ZN3irr5scene13CSceneManager22createTriangleSelectorEPNS0_5IMeshEPNS0_10ISceneNodeE @2787
    _ZN3irr5scene13CSceneManager23addVolumeLightSceneNodeEPNS0_10ISceneNodeEijjNS_5video6SColorES5_RKNS_4core8vector3dIfEESA_SA_ @2788
    _ZN3irr5scene13CSceneManager23createFlyCircleAnimatorERKNS_4core8vector3dIfEEffS6_ff @2789
    _ZN3irr5scene13CSceneManager24addAnimatedMeshSceneNodeEPNS0_13IAnimatedMeshEPNS0_10ISceneNodeEiRKNS_4core8vector3dIfEESA_SA_b @2790
    _ZN3irr5scene13CSceneManager24addWaterSurfaceSceneNodeEPNS0_5IMeshEfffPNS0_10ISceneNodeEiRKNS_4core8vector3dIfEESA_SA_ @2791
    _ZN3irr5scene13CSceneManager24getSceneCollisionManagerEv @2792
    _ZN3irr5scene13CSceneManager24registerNodeForRenderingEPNS0_10ISceneNodeENS0_24E_SCENE_NODE_RENDER_PASSE @2793
    _ZN3irr5scene13CSceneManager24registerSceneNodeFactoryEPNS0_17ISceneNodeFactoryE @2794
    _ZN3irr5scene13CSceneManager25addBillboardTextSceneNodeEPNS_3gui8IGUIFontEPKwPNS0_10ISceneNodeERKNS_4core11dimension2dIfEERKNS9_8vector3dIfEEiNS_5video6SColorESJ_ @2795
    _ZN3irr5scene13CSceneManager25createFlyStraightAnimatorERKNS_4core8vector3dIfEES6_jbb @2796
    _ZN3irr5scene13CSceneManager26addParticleSystemSceneNodeEbPNS0_10ISceneNodeEiRKNS_4core8vector3dIfEES8_S8_ @2797
    _ZN3irr5scene13CSceneManager26createFollowSplineAnimatorEiRKNS_4core5arrayINS2_8vector3dIfEENS2_12irrAllocatorIS5_EEEEffbb @2798
    _ZN3irr5scene13CSceneManager26createMetaTriangleSelectorEv @2799
    _ZN3irr5scene13CSceneManager26getDefaultSceneNodeFactoryEv @2800
    _ZN3irr5scene13CSceneManager27getSceneNodeAnimatorFactoryEj @2801
    _ZN3irr5scene13CSceneManager28createOctreeTriangleSelectorEPNS0_5IMeshEPNS0_10ISceneNodeEi @2802
    _ZN3irr5scene13CSceneManager29createTerrainTriangleSelectorEPNS0_17ITerrainSceneNodeEi @2803
    _ZN3irr5scene13CSceneManager31addDummyTransformationSceneNodeEPNS0_10ISceneNodeEi @2804
    _ZN3irr5scene13CSceneManager31createCollisionResponseAnimatorEPNS0_17ITriangleSelectorEPNS0_10ISceneNodeERKNS_4core8vector3dIfEESA_SA_f @2805
    _ZN3irr5scene13CSceneManager32registerSceneNodeAnimatorFactoryEPNS0_25ISceneNodeAnimatorFactoryE @2806
    _ZN3irr5scene13CSceneManager34getDefaultSceneNodeAnimatorFactoryEv @2807
    _ZN3irr5scene13CSceneManager37createTriangleSelectorFromBoundingBoxEPNS0_10ISceneNodeE @2808
    _ZN3irr5scene13CSceneManager5clearEv @2809
    _ZN3irr5scene13CSceneManager6renderEv @2810
    _ZN3irr5scene13CSceneManager7drawAllEv @2811
    _ZN3irr5scene13CSceneManager7getMeshEPNS_2io9IReadFileE @2812
    _ZN3irr5scene13CSceneManager7getMeshERKNS_4core6stringIcNS2_12irrAllocatorIcEEEE @2813
    _ZN3irr5scene13CSceneManager9loadSceneEPNS_2io9IReadFileEPNS0_24ISceneUserDataSerializerE @2814
    _ZN3irr5scene13CSceneManager9loadSceneERKNS_4core6stringIcNS2_12irrAllocatorIcEEEEPNS0_24ISceneUserDataSerializerE @2815
    _ZN3irr5scene13CSceneManager9removeAllEv @2816
    _ZN3irr5scene13CSceneManager9saveSceneEPNS_2io10IWriteFileEPNS0_24ISceneUserDataSerializerE @2817
    _ZN3irr5scene13CSceneManager9saveSceneERKNS_4core6stringIcNS2_12irrAllocatorIcEEEEPNS0_24ISceneUserDataSerializerE @2818
    _ZN3irr5scene13CSceneManagerC1EPNS_5video12IVideoDriverEPNS_2io11IFileSystemEPNS_3gui14ICursorControlEPNS0_10IMeshCacheEPNS8_15IGUIEnvironmentE @2819
    _ZN3irr5scene13CSceneManagerC2EPNS_5video12IVideoDriverEPNS_2io11IFileSystemEPNS_3gui14ICursorControlEPNS0_10IMeshCacheEPNS8_15IGUIEnvironmentE @2820
    _ZN3irr5scene13CSceneManagerD0Ev @2821
    _ZN3irr5scene13CSceneManagerD1Ev @2822
    _ZN3irr5scene13CSceneManagerD2Ev @2823
    _ZN3irr5scene13CVertexBuffer10reallocateEj @2824
    _ZN3irr5scene13CVertexBuffer11IVertexListD0Ev @2825
    _ZN3irr5scene13CVertexBuffer11IVertexListD1Ev @2826
    _ZN3irr5scene13CVertexBuffer19CSpecificVertexListINS_5video17S3DVertex2TCoordsEE10reallocateEj @2827
    _ZN3irr5scene13CVertexBuffer19CSpecificVertexListINS_5video17S3DVertex2TCoordsEE7getLastEv @2828
    _ZN3irr5scene13CVertexBuffer19CSpecificVertexListINS_5video17S3DVertex2TCoordsEE7pointerEv @2829
    _ZN3irr5scene13CVertexBuffer19CSpecificVertexListINS_5video17S3DVertex2TCoordsEE8set_usedEj @2830
    _ZN3irr5scene13CVertexBuffer19CSpecificVertexListINS_5video17S3DVertex2TCoordsEE9push_backERKNS3_9S3DVertexE @2831
    _ZN3irr5scene13CVertexBuffer19CSpecificVertexListINS_5video17S3DVertex2TCoordsEED0Ev @2832
    _ZN3irr5scene13CVertexBuffer19CSpecificVertexListINS_5video17S3DVertex2TCoordsEED1Ev @2833
    _ZN3irr5scene13CVertexBuffer19CSpecificVertexListINS_5video17S3DVertexTangentsEE10reallocateEj @2834
    _ZN3irr5scene13CVertexBuffer19CSpecificVertexListINS_5video17S3DVertexTangentsEE7getLastEv @2835
    _ZN3irr5scene13CVertexBuffer19CSpecificVertexListINS_5video17S3DVertexTangentsEE7pointerEv @2836
    _ZN3irr5scene13CVertexBuffer19CSpecificVertexListINS_5video17S3DVertexTangentsEE8set_usedEj @2837
    _ZN3irr5scene13CVertexBuffer19CSpecificVertexListINS_5video17S3DVertexTangentsEE9push_backERKNS3_9S3DVertexE @2838
    _ZN3irr5scene13CVertexBuffer19CSpecificVertexListINS_5video17S3DVertexTangentsEED0Ev @2839
    _ZN3irr5scene13CVertexBuffer19CSpecificVertexListINS_5video17S3DVertexTangentsEED1Ev @2840
    _ZN3irr5scene13CVertexBuffer19CSpecificVertexListINS_5video9S3DVertexEE10reallocateEj @2841
    _ZN3irr5scene13CVertexBuffer19CSpecificVertexListINS_5video9S3DVertexEE7getLastEv @2842
    _ZN3irr5scene13CVertexBuffer19CSpecificVertexListINS_5video9S3DVertexEE7pointerEv @2843
    _ZN3irr5scene13CVertexBuffer19CSpecificVertexListINS_5video9S3DVertexEE8set_usedEj @2844
    _ZN3irr5scene13CVertexBuffer19CSpecificVertexListINS_5video9S3DVertexEE9push_backERKS4_ @2845
    _ZN3irr5scene13CVertexBuffer19CSpecificVertexListINS_5video9S3DVertexEED0Ev @2846
    _ZN3irr5scene13CVertexBuffer19CSpecificVertexListINS_5video9S3DVertexEED1Ev @2847
    _ZN3irr5scene13CVertexBuffer22setHardwareMappingHintENS0_18E_HARDWARE_MAPPINGE @2848
    _ZN3irr5scene13CVertexBuffer7getDataEv @2849
    _ZN3irr5scene13CVertexBuffer7getLastEv @2850
    _ZN3irr5scene13CVertexBuffer7pointerEv @2851
    _ZN3irr5scene13CVertexBuffer7setTypeENS_5video13E_VERTEX_TYPEE @2852
    _ZN3irr5scene13CVertexBuffer8setDirtyEv @2853
    _ZN3irr5scene13CVertexBuffer8set_usedEj @2854
    _ZN3irr5scene13CVertexBuffer9push_backERKNS_5video9S3DVertexE @2855
    _ZN3irr5scene13CVertexBufferD0Ev @2856
    _ZN3irr5scene13CVertexBufferD1Ev @2857
    _ZN3irr5scene13IAnimatedMeshD0Ev @2858
    _ZN3irr5scene13IAnimatedMeshD1Ev @2859
    _ZN3irr5scene13ISceneManagerD0Ev @2860
    _ZN3irr5scene13ISceneManagerD1Ev @2861
    _ZN3irr5scene13IVertexBufferD0Ev @2862
    _ZN3irr5scene13IVertexBufferD1Ev @2863
    _ZN3irr5scene13SAnimatedMesh14setBoundingBoxERKNS_4core8aabbox3dIfEE @2864
    _ZN3irr5scene13SAnimatedMesh15setMaterialFlagENS_5video15E_MATERIAL_FLAGEb @2865
    _ZN3irr5scene13SAnimatedMesh22recalculateBoundingBoxEv @2866
    _ZN3irr5scene13SAnimatedMesh22setHardwareMappingHintENS0_18E_HARDWARE_MAPPINGENS0_13E_BUFFER_TYPEE @2867
    _ZN3irr5scene13SAnimatedMesh7addMeshEPNS0_5IMeshE @2868
    _ZN3irr5scene13SAnimatedMesh7getMeshEiiii @2869
    _ZN3irr5scene13SAnimatedMesh8setDirtyENS0_13E_BUFFER_TYPEE @2870
    _ZN3irr5scene13SAnimatedMeshD0Ev @2871
    _ZN3irr5scene13SAnimatedMeshD1Ev @2872
    _ZN3irr5scene13SColladaImageD1Ev @2873
    _ZN3irr5scene14CBoneSceneNode16setAnimationModeENS0_21E_BONE_ANIMATION_MODEE @2874
    _ZN3irr5scene14CBoneSceneNode16setSkinningSpaceENS0_21E_BONE_SKINNING_SPACEE @2875
    _ZN3irr5scene14CBoneSceneNode21deserializeAttributesEPNS_2io11IAttributesEPNS2_26SAttributeReadWriteOptionsE @2876
    _ZN3irr5scene14CBoneSceneNode35updateAbsolutePositionOfAllChildrenEv @2877
    _ZN3irr5scene14CBoneSceneNode42helper_updateAbsolutePositionOfAllChildrenEPNS0_10ISceneNodeE @2878
    _ZN3irr5scene14CBoneSceneNode9OnAnimateEj @2879
    _ZN3irr5scene14CBoneSceneNodeC1EPNS0_10ISceneNodeEPNS0_13ISceneManagerEijPKc @2880
    _ZN3irr5scene14CBoneSceneNodeC2EPNS0_10ISceneNodeEPNS0_13ISceneManagerEijPKc @2881
    _ZN3irr5scene14CBoneSceneNodeD0Ev @2882
    _ZN3irr5scene14CBoneSceneNodeD1Ev @2883
    _ZN3irr5scene14CCubeSceneNode11getMaterialEj @2884
    _ZN3irr5scene14CCubeSceneNode19OnRegisterSceneNodeEv @2885
    _ZN3irr5scene14CCubeSceneNode20setReadOnlyMaterialsEb @2886
    _ZN3irr5scene14CCubeSceneNode21deserializeAttributesEPNS_2io11IAttributesEPNS2_26SAttributeReadWriteOptionsE @2887
    _ZN3irr5scene14CCubeSceneNode5cloneEPNS0_10ISceneNodeEPNS0_13ISceneManagerE @2888
    _ZN3irr5scene14CCubeSceneNode6renderEv @2889
    _ZN3irr5scene14CCubeSceneNode7getMeshEv @2890
    _ZN3irr5scene14CCubeSceneNode7setMeshEPNS0_5IMeshE @2891
    _ZN3irr5scene14CCubeSceneNode7setSizeEv @2892
    _ZN3irr5scene14CCubeSceneNodeC1EfPNS0_10ISceneNodeEPNS0_13ISceneManagerEiRKNS_4core8vector3dIfEESA_SA_ @2893
    _ZN3irr5scene14CCubeSceneNodeC2EfPNS0_10ISceneNodeEPNS0_13ISceneManagerEiRKNS_4core8vector3dIfEESA_SA_ @2894
    _ZN3irr5scene14CCubeSceneNodeD0Ev @2895
    _ZN3irr5scene14CCubeSceneNodeD1Ev @2896
    _ZN3irr5scene14CCubeSceneNodeD2Ev @2897
    _ZN3irr5scene14CIrrMeshWriter13writeMaterialERKNS_5video9SMaterialE @2898
    _ZN3irr5scene14CIrrMeshWriter15writeMeshBufferEPKNS0_11IMeshBufferE @2899
    _ZN3irr5scene14CIrrMeshWriter16writeBoundingBoxERKNS_4core8aabbox3dIfEE @2900
    _ZN3irr5scene14CIrrMeshWriter9writeMeshEPNS_2io10IWriteFileEPNS0_5IMeshEi @2901
    _ZN3irr5scene14CIrrMeshWriterC1EPNS_5video12IVideoDriverEPNS_2io11IFileSystemE @2902
    _ZN3irr5scene14CIrrMeshWriterC2EPNS_5video12IVideoDriverEPNS_2io11IFileSystemE @2903
    _ZN3irr5scene14CIrrMeshWriterD0Ev @2904
    _ZN3irr5scene14CIrrMeshWriterD1Ev @2905
    _ZN3irr5scene14CIrrMeshWriterD2Ev @2906
    _ZN3irr5scene14CMeshSceneNode11getMaterialEj @2907
    _ZN3irr5scene14CMeshSceneNode13copyMaterialsEv @2908
    _ZN3irr5scene14CMeshSceneNode19OnRegisterSceneNodeEv @2909
    _ZN3irr5scene14CMeshSceneNode20setReadOnlyMaterialsEb @2910
    _ZN3irr5scene14CMeshSceneNode21deserializeAttributesEPNS_2io11IAttributesEPNS2_26SAttributeReadWriteOptionsE @2911
    _ZN3irr5scene14CMeshSceneNode5cloneEPNS0_10ISceneNodeEPNS0_13ISceneManagerE @2912
    _ZN3irr5scene14CMeshSceneNode6renderEv @2913
    _ZN3irr5scene14CMeshSceneNode7getMeshEv @2914
    _ZN3irr5scene14CMeshSceneNode7setMeshEPNS0_5IMeshE @2915
    _ZN3irr5scene14CMeshSceneNodeC1EPNS0_5IMeshEPNS0_10ISceneNodeEPNS0_13ISceneManagerEiRKNS_4core8vector3dIfEESC_SC_ @2916
    _ZN3irr5scene14CMeshSceneNodeC2EPNS0_5IMeshEPNS0_10ISceneNodeEPNS0_13ISceneManagerEiRKNS_4core8vector3dIfEESC_SC_ @2917
    _ZN3irr5scene14CMeshSceneNodeD0Ev @2918
    _ZN3irr5scene14CMeshSceneNodeD1Ev @2919
    _ZN3irr5scene14CMeshSceneNodeD2Ev @2920
    _ZN3irr5scene14COBJMeshWriter9writeMeshEPNS_2io10IWriteFileEPNS0_5IMeshEi @2921
    _ZN3irr5scene14COBJMeshWriterC1EPNS0_13ISceneManagerEPNS_2io11IFileSystemE @2922
    _ZN3irr5scene14COBJMeshWriterC2EPNS0_13ISceneManagerEPNS_2io11IFileSystemE @2923
    _ZN3irr5scene14COBJMeshWriterD0Ev @2924
    _ZN3irr5scene14COBJMeshWriterD1Ev @2925
    _ZN3irr5scene14COBJMeshWriterD2Ev @2926
    _ZN3irr5scene14CPLYMeshWriter9writeMeshEPNS_2io10IWriteFileEPNS0_5IMeshEi @2927
    _ZN3irr5scene14CPLYMeshWriterC1Ev @2928
    _ZN3irr5scene14CPLYMeshWriterC2Ev @2929
    _ZN3irr5scene14CPLYMeshWriterD0Ev @2930
    _ZN3irr5scene14CPLYMeshWriterD1Ev @2931
    _ZN3irr5scene14CSTLMeshWriter14writeMeshASCIIEPNS_2io10IWriteFileEPNS0_5IMeshEi @2932
    _ZN3irr5scene14CSTLMeshWriter15writeMeshBinaryEPNS_2io10IWriteFileEPNS0_5IMeshEi @2933
    _ZN3irr5scene14CSTLMeshWriter9writeFaceEPNS_2io10IWriteFileERKNS_4core8vector3dIfEES9_S9_ @2934
    _ZN3irr5scene14CSTLMeshWriter9writeMeshEPNS_2io10IWriteFileEPNS0_5IMeshEi @2935
    _ZN3irr5scene14CSTLMeshWriterC1EPNS0_13ISceneManagerE @2936
    _ZN3irr5scene14CSTLMeshWriterC2EPNS0_13ISceneManagerE @2937
    _ZN3irr5scene14CSTLMeshWriterD0Ev @2938
    _ZN3irr5scene14CSTLMeshWriterD1Ev @2939
    _ZN3irr5scene14CSTLMeshWriterD2Ev @2940
    _ZN3irr5scene14CTextSceneNode12setTextColorENS_5video6SColorE @2941
    _ZN3irr5scene14CTextSceneNode19OnRegisterSceneNodeEv @2942
    _ZN3irr5scene14CTextSceneNode6renderEv @2943
    _ZN3irr5scene14CTextSceneNode7setTextEPKw @2944
    _ZN3irr5scene14CTextSceneNodeC1EPNS0_10ISceneNodeEPNS0_13ISceneManagerEiPNS_3gui8IGUIFontEPNS0_22ISceneCollisionManagerERKNS_4core8vector3dIfEEPKwNS_5video6SColorE @2945
    _ZN3irr5scene14CTextSceneNodeC2EPNS0_10ISceneNodeEPNS0_13ISceneManagerEiPNS_3gui8IGUIFontEPNS0_22ISceneCollisionManagerERKNS_4core8vector3dIfEEPKwNS_5video6SColorE @2946
    _ZN3irr5scene14CTextSceneNodeD0Ev @2947
    _ZN3irr5scene14CTextSceneNodeD1Ev @2948
    _ZN3irr5scene14CTextSceneNodeD2Ev @2949
    _ZN3irr5scene14IBoneSceneNode6renderEv @2950
    _ZN3irr5scene14IBoneSceneNodeD0Ev @2951
    _ZN3irr5scene14IBoneSceneNodeD1Ev @2952
    _ZN3irr5scene14IBoneSceneNodeD2Ev @2953
    _ZN3irr5scene14IColladaPrefabD0Ev @2954
    _ZN3irr5scene14IColladaPrefabD1Ev @2955
    _ZN3irr5scene14IMeshSceneNodeC2EPNS0_10ISceneNodeEPNS0_13ISceneManagerEiRKNS_4core8vector3dIfEESA_SA_ @2956
    _ZN3irr5scene14IMeshSceneNodeD0Ev @2957
    _ZN3irr5scene14IMeshSceneNodeD1Ev @2958
    _ZN3irr5scene14IMeshSceneNodeD2Ev @2959
    _ZN3irr5scene14ITextSceneNodeD0Ev @2960
    _ZN3irr5scene14ITextSceneNodeD1Ev @2961
    _ZN3irr5scene14ITextSceneNodeD2Ev @2962
    _ZN3irr5scene14SColladaEffectC1ERKS1_ @2963
    _ZN3irr5scene14SColladaEffectC1Ev @2964
    _ZN3irr5scene14SColladaEffectD1Ev @2965
    _ZN3irr5scene14SColladaEffectaSERKS1_ @2966
    _ZN3irr5scene14SMD3MeshBufferD0Ev @2967
    _ZN3irr5scene14SMD3MeshBufferD1Ev @2968
    _ZN3irr5scene15CEmptySceneNode19OnRegisterSceneNodeEv @2969
    _ZN3irr5scene15CEmptySceneNode5cloneEPNS0_10ISceneNodeEPNS0_13ISceneManagerE @2970
    _ZN3irr5scene15CEmptySceneNode6renderEv @2971
    _ZN3irr5scene15CEmptySceneNodeC1EPNS0_10ISceneNodeEPNS0_13ISceneManagerEi @2972
    _ZN3irr5scene15CEmptySceneNodeC2EPNS0_10ISceneNodeEPNS0_13ISceneManagerEi @2973
    _ZN3irr5scene15CEmptySceneNodeD0Ev @2974
    _ZN3irr5scene15CEmptySceneNodeD1Ev @2975
    _ZN3irr5scene15CGeometryPrefab11addInstanceEPNS0_10ISceneNodeEPNS0_13ISceneManagerE @2976
    _ZN3irr5scene15CGeometryPrefabD0Ev @2977
    _ZN3irr5scene15CGeometryPrefabD1Ev @2978
    _ZN3irr5scene15CLightSceneNode10setVisibleEb @2979
    _ZN3irr5scene15CLightSceneNode12getLightDataEv @2980
    _ZN3irr5scene15CLightSceneNode12setLightDataERKNS_5video6SLightE @2981
    _ZN3irr5scene15CLightSceneNode12setLightTypeENS_5video12E_LIGHT_TYPEE @2982
    _ZN3irr5scene15CLightSceneNode13doLightRecalcEv @2983
    _ZN3irr5scene15CLightSceneNode16enableCastShadowEb @2984
    _ZN3irr5scene15CLightSceneNode19OnRegisterSceneNodeEv @2985
    _ZN3irr5scene15CLightSceneNode21deserializeAttributesEPNS_2io11IAttributesEPNS2_26SAttributeReadWriteOptionsE @2986
    _ZN3irr5scene15CLightSceneNode5cloneEPNS0_10ISceneNodeEPNS0_13ISceneManagerE @2987
    _ZN3irr5scene15CLightSceneNode6renderEv @2988
    _ZN3irr5scene15CLightSceneNode9setRadiusEf @2989
    _ZN3irr5scene15CLightSceneNodeC1EPNS0_10ISceneNodeEPNS0_13ISceneManagerEiRKNS_4core8vector3dIfEENS_5video7SColorfEf @2990
    _ZN3irr5scene15CLightSceneNodeC2EPNS0_10ISceneNodeEPNS0_13ISceneManagerEiRKNS_4core8vector3dIfEENS_5video7SColorfEf @2991
    _ZN3irr5scene15CLightSceneNodeD0Ev @2992
    _ZN3irr5scene15CLightSceneNodeD1Ev @2993
    _ZN3irr5scene15ILightSceneNodeD0Ev @2994
    _ZN3irr5scene15ILightSceneNodeD1Ev @2995
    _ZN3irr5scene15ILightSceneNodeD2Ev @2996
    _ZN3irr5scene15SSkinMeshBuffer10getIndicesEv @2997
    _ZN3irr5scene15SSkinMeshBuffer10getTCoordsEj @2998
    _ZN3irr5scene15SSkinMeshBuffer11getMaterialEv @2999
    _ZN3irr5scene15SSkinMeshBuffer11getPositionEj @3000
    _ZN3irr5scene15SSkinMeshBuffer11getVerticesEv @3001
    _ZN3irr5scene15SSkinMeshBuffer14setBoundingBoxERKNS_4core8aabbox3dIfEE @3002
    _ZN3irr5scene15SSkinMeshBuffer17convertTo2TCoordsEv @3003
    _ZN3irr5scene15SSkinMeshBuffer17convertToTangentsEv @3004
    _ZN3irr5scene15SSkinMeshBuffer22recalculateBoundingBoxEv @3005
    _ZN3irr5scene15SSkinMeshBuffer22setHardwareMappingHintENS0_18E_HARDWARE_MAPPINGENS0_13E_BUFFER_TYPEE @3006
    _ZN3irr5scene15SSkinMeshBuffer6appendEPKNS0_11IMeshBufferE @3007
    _ZN3irr5scene15SSkinMeshBuffer6appendEPKvjPKtj @3008
    _ZN3irr5scene15SSkinMeshBuffer8setDirtyENS0_13E_BUFFER_TYPEE @3009
    _ZN3irr5scene15SSkinMeshBuffer9getNormalEj @3010
    _ZN3irr5scene15SSkinMeshBuffer9getVertexEj @3011
    _ZN3irr5scene15SSkinMeshBufferD0Ev @3012
    _ZN3irr5scene15SSkinMeshBufferD1Ev @3013
    _ZN3irr5scene15tLWOTextureInfoD1Ev @3014
    _ZN3irr5scene16BinaryFileReader10readStringERNS_4core6stringIcNS2_12irrAllocatorIcEEEE @3015
    _ZN3irr5scene16BinaryFileReader12readColorRGBEPNS0_11color_rgb_tE @3016
    _ZN3irr5scene16BinaryFileReader8readLongEv @3017
    _ZN3irr5scene16BinaryFileReader9readFloatEv @3018
    _ZN3irr5scene16BinaryFileReader9readVec2fEPNS_4core8vector2dIfEE @3019
    _ZN3irr5scene16BinaryFileReader9readVec3fEPNS_4core8vector3dIfEE @3020
    _ZN3irr5scene16CAnimatedMeshMD214setBoundingBoxERKNS_4core8aabbox3dIfEE @3021
    _ZN3irr5scene16CAnimatedMeshMD215setMaterialFlagENS_5video15E_MATERIAL_FLAGEb @3022
    _ZN3irr5scene16CAnimatedMeshMD222setHardwareMappingHintENS0_18E_HARDWARE_MAPPINGENS0_13E_BUFFER_TYPEE @3023
    _ZN3irr5scene16CAnimatedMeshMD225updateInterpolationBufferEiii @3024
    _ZN3irr5scene16CAnimatedMeshMD27getMeshEiiii @3025
    _ZN3irr5scene16CAnimatedMeshMD28setDirtyENS0_13E_BUFFER_TYPEE @3026
    _ZN3irr5scene16CAnimatedMeshMD2C1Ev @3027
    _ZN3irr5scene16CAnimatedMeshMD2C2Ev @3028
    _ZN3irr5scene16CAnimatedMeshMD2D0Ev @3029
    _ZN3irr5scene16CAnimatedMeshMD2D1Ev @3030
    _ZN3irr5scene16CAnimatedMeshMD2D2Ev @3031
    _ZN3irr5scene16CAnimatedMeshMD310getTagListEiiii @3032
    _ZN3irr5scene16CAnimatedMeshMD313buildTagArrayEjjf @3033
    _ZN3irr5scene16CAnimatedMeshMD313loadModelFileEjPNS_2io9IReadFileEPNS2_11IFileSystemEPNS_5video12IVideoDriverE @3034
    _ZN3irr5scene16CAnimatedMeshMD314setBoundingBoxERKNS_4core8aabbox3dIfEE @3035
    _ZN3irr5scene16CAnimatedMeshMD315getOriginalMeshEv @3036
    _ZN3irr5scene16CAnimatedMeshMD315setMaterialFlagENS_5video15E_MATERIAL_FLAGEb @3037
    _ZN3irr5scene16CAnimatedMeshMD316buildVertexArrayEjjfPKNS0_14SMD3MeshBufferEPNS0_11CMeshBufferINS_5video17S3DVertex2TCoordsEEE @3038
    _ZN3irr5scene16CAnimatedMeshMD316createMeshBufferEPKNS0_14SMD3MeshBufferEPNS_2io11IFileSystemEPNS_5video12IVideoDriverE @3039
    _ZN3irr5scene16CAnimatedMeshMD321setInterpolationShiftEjj @3040
    _ZN3irr5scene16CAnimatedMeshMD322setHardwareMappingHintENS0_18E_HARDWARE_MAPPINGENS0_13E_BUFFER_TYPEE @3041
    _ZN3irr5scene16CAnimatedMeshMD37getMeshEiiii @3042
    _ZN3irr5scene16CAnimatedMeshMD38setDirtyENS0_13E_BUFFER_TYPEE @3043
    _ZN3irr5scene16CAnimatedMeshMD3C1Ev @3044
    _ZN3irr5scene16CAnimatedMeshMD3C2Ev @3045
    _ZN3irr5scene16CAnimatedMeshMD3D0Ev @3046
    _ZN3irr5scene16CAnimatedMeshMD3D1Ev @3047
    _ZN3irr5scene16CAnimatedMeshMD3D2Ev @3048
    _ZN3irr5scene16CCameraSceneNode11setFarValueEf @3049
    _ZN3irr5scene16CCameraSceneNode11setRotationERKNS_4core8vector3dIfEE @3050
    _ZN3irr5scene16CCameraSceneNode11setUpVectorERKNS_4core8vector3dIfEE @3051
    _ZN3irr5scene16CCameraSceneNode12setNearValueEf @3052
    _ZN3irr5scene16CCameraSceneNode14setAspectRatioEf @3053
    _ZN3irr5scene16CCameraSceneNode19OnRegisterSceneNodeEv @3054
    _ZN3irr5scene16CCameraSceneNode19recalculateViewAreaEv @3055
    _ZN3irr5scene16CCameraSceneNode19setProjectionMatrixERKNS_4core8CMatrix4IfEEb @3056
    _ZN3irr5scene16CCameraSceneNode21bindTargetAndRotationEb @3057
    _ZN3irr5scene16CCameraSceneNode21deserializeAttributesEPNS_2io11IAttributesEPNS2_26SAttributeReadWriteOptionsE @3058
    _ZN3irr5scene16CCameraSceneNode21setViewMatrixAffectorERKNS_4core8CMatrix4IfEE @3059
    _ZN3irr5scene16CCameraSceneNode23setInputReceiverEnabledEb @3060
    _ZN3irr5scene16CCameraSceneNode27recalculateProjectionMatrixEv @3061
    _ZN3irr5scene16CCameraSceneNode5cloneEPNS0_10ISceneNodeEPNS0_13ISceneManagerE @3062
    _ZN3irr5scene16CCameraSceneNode6renderEv @3063
    _ZN3irr5scene16CCameraSceneNode6setFOVEf @3064
    _ZN3irr5scene16CCameraSceneNode7OnEventERKNS_6SEventE @3065
    _ZN3irr5scene16CCameraSceneNode9setTargetERKNS_4core8vector3dIfEE @3066
    _ZN3irr5scene16CCameraSceneNodeC1EPNS0_10ISceneNodeEPNS0_13ISceneManagerEiRKNS_4core8vector3dIfEESA_ @3067
    _ZN3irr5scene16CCameraSceneNodeC2EPNS0_10ISceneNodeEPNS0_13ISceneManagerEiRKNS_4core8vector3dIfEESA_ @3068
    _ZN3irr5scene16CCameraSceneNodeD0Ev @3069
    _ZN3irr5scene16CCameraSceneNodeD1Ev @3070
    _ZN3irr5scene16CGeometryCreatorD0Ev @3071
    _ZN3irr5scene16CGeometryCreatorD1Ev @3072
    _ZN3irr5scene16CMeshManipulator17calculateTangentsERNS_4core8vector3dIfEES5_S5_RKS4_S7_S7_RKNS2_8vector2dIfEESB_SB_ @3073
    _ZN3irr5scene16CMeshManipulatorD0Ev @3074
    _ZN3irr5scene16CMeshManipulatorD1Ev @3075
    _ZN3irr5scene16COctreeSceneNode10createTreeEPNS0_5IMeshE @3076
    _ZN3irr5scene16COctreeSceneNode10deleteTreeEv @3077
    _ZN3irr5scene16COctreeSceneNode11getMaterialEj @3078
    _ZN3irr5scene16COctreeSceneNode19OnRegisterSceneNodeEv @3079
    _ZN3irr5scene16COctreeSceneNode20setReadOnlyMaterialsEb @3080
    _ZN3irr5scene16COctreeSceneNode21deserializeAttributesEPNS_2io11IAttributesEPNS2_26SAttributeReadWriteOptionsE @3081
    _ZN3irr5scene16COctreeSceneNode6renderEv @3082
    _ZN3irr5scene16COctreeSceneNode7getMeshEv @3083
    _ZN3irr5scene16COctreeSceneNode7setMeshEPNS0_5IMeshE @3084
    _ZN3irr5scene16COctreeSceneNodeC1EPNS0_10ISceneNodeEPNS0_13ISceneManagerEii @3085
    _ZN3irr5scene16COctreeSceneNodeC2EPNS0_10ISceneNodeEPNS0_13ISceneManagerEii @3086
    _ZN3irr5scene16COctreeSceneNodeD0Ev @3087
    _ZN3irr5scene16COctreeSceneNodeD1Ev @3088
    _ZN3irr5scene16COctreeSceneNodeD2Ev @3089
    _ZN3irr5scene16CSkyBoxSceneNode11getMaterialEj @3090
    _ZN3irr5scene16CSkyBoxSceneNode19OnRegisterSceneNodeEv @3091
    _ZN3irr5scene16CSkyBoxSceneNode5cloneEPNS0_10ISceneNodeEPNS0_13ISceneManagerE @3092
    _ZN3irr5scene16CSkyBoxSceneNode6renderEv @3093
    _ZN3irr5scene16CSkyBoxSceneNodeC1EPNS_5video8ITextureES4_S4_S4_S4_S4_PNS0_10ISceneNodeEPNS0_13ISceneManagerEi @3094
    _ZN3irr5scene16CSkyBoxSceneNodeC2EPNS_5video8ITextureES4_S4_S4_S4_S4_PNS0_10ISceneNodeEPNS0_13ISceneManagerEi @3095
    _ZN3irr5scene16CSkyBoxSceneNodeD0Ev @3096
    _ZN3irr5scene16CSkyBoxSceneNodeD1Ev @3097
    _ZN3irr5scene16CSphereSceneNode11getMaterialEj @3098
    _ZN3irr5scene16CSphereSceneNode19OnRegisterSceneNodeEv @3099
    _ZN3irr5scene16CSphereSceneNode20setReadOnlyMaterialsEb @3100
    _ZN3irr5scene16CSphereSceneNode21deserializeAttributesEPNS_2io11IAttributesEPNS2_26SAttributeReadWriteOptionsE @3101
    _ZN3irr5scene16CSphereSceneNode5cloneEPNS0_10ISceneNodeEPNS0_13ISceneManagerE @3102
    _ZN3irr5scene16CSphereSceneNode6renderEv @3103
    _ZN3irr5scene16CSphereSceneNode7getMeshEv @3104
    _ZN3irr5scene16CSphereSceneNode7setMeshEPNS0_5IMeshE @3105
    _ZN3irr5scene16CSphereSceneNodeC1EfjjPNS0_10ISceneNodeEPNS0_13ISceneManagerEiRKNS_4core8vector3dIfEESA_SA_ @3106
    _ZN3irr5scene16CSphereSceneNodeC2EfjjPNS0_10ISceneNodeEPNS0_13ISceneManagerEiRKNS_4core8vector3dIfEESA_SA_ @3107
    _ZN3irr5scene16CSphereSceneNodeD0Ev @3108
    _ZN3irr5scene16CSphereSceneNodeD1Ev @3109
    _ZN3irr5scene16CSphereSceneNodeD2Ev @3110
    _ZN3irr5scene16CXMeshFileLoader10createMeshEPNS_2io9IReadFileE @3111
    _ZN3irr5scene16CXMeshFileLoader10readMatrixERNS_4core8CMatrix4IfEE @3112
    _ZN3irr5scene16CXMeshFileLoader11readBinWordEv @3113
    _ZN3irr5scene16CXMeshFileLoader11readVector2ERNS_4core8vector2dIfEE @3114
    _ZN3irr5scene16CXMeshFileLoader11readVector3ERNS_4core8vector3dIfEE @3115
    _ZN3irr5scene16CXMeshFileLoader12getNextTokenEv @3116
    _ZN3irr5scene16CXMeshFileLoader12readBinDWordEv @3117
    _ZN3irr5scene16CXMeshFileLoader15parseDataObjectEv @3118
    _ZN3irr5scene16CXMeshFileLoader18SXTemplateMaterialC1ERKS2_ @3119
    _ZN3irr5scene16CXMeshFileLoader18SXTemplateMaterialD1Ev @3120
    _ZN3irr5scene16CXMeshFileLoader18readFileIntoMemoryEPNS_2io9IReadFileE @3121
    _ZN3irr5scene16CXMeshFileLoader18readUntilEndOfLineEv @3122
    _ZN3irr5scene16CXMeshFileLoader19parseDataObjectMeshERNS1_6SXMeshE @3123
    _ZN3irr5scene16CXMeshFileLoader20checkForClosingBraceEv @3124
    _ZN3irr5scene16CXMeshFileLoader20getNextTokenAsStringERNS_4core6stringIcNS2_12irrAllocatorIcEEEE @3125
    _ZN3irr5scene16CXMeshFileLoader20parseDataObjectFrameEPNS0_12ISkinnedMesh6SJointE @3126
    _ZN3irr5scene16CXMeshFileLoader20readHeadOfDataObjectEPNS_4core6stringIcNS2_12irrAllocatorIcEEEE @3127
    _ZN3irr5scene16CXMeshFileLoader22findNextNoneWhiteSpaceEv @3128
    _ZN3irr5scene16CXMeshFileLoader22parseUnknownDataObjectEv @3129
    _ZN3irr5scene16CXMeshFileLoader23parseDataObjectMaterialERNS_5video9SMaterialE @3130
    _ZN3irr5scene16CXMeshFileLoader23parseDataObjectTemplateEv @3131
    _ZN3irr5scene16CXMeshFileLoader24parseDataObjectAnimationEv @3132
    _ZN3irr5scene16CXMeshFileLoader26parseDataObjectMeshNormalsERNS1_6SXMeshE @3133
    _ZN3irr5scene16CXMeshFileLoader26parseDataObjectSkinWeightsERNS1_6SXMeshE @3134
    _ZN3irr5scene16CXMeshFileLoader27parseDataObjectAnimationKeyEPNS0_12ISkinnedMesh6SJointE @3135
    _ZN3irr5scene16CXMeshFileLoader27parseDataObjectAnimationSetEv @3136
    _ZN3irr5scene16CXMeshFileLoader28findNextNoneWhiteSpaceNumberEv @3137
    _ZN3irr5scene16CXMeshFileLoader29parseDataObjectSkinMeshHeaderERNS1_6SXMeshE @3138
    _ZN3irr5scene16CXMeshFileLoader30checkForOneFollowingSemicolonsEv @3139
    _ZN3irr5scene16CXMeshFileLoader30checkForTwoFollowingSemicolonsEv @3140
    _ZN3irr5scene16CXMeshFileLoader30parseDataObjectTextureFilenameERNS_4core6stringIcNS2_12irrAllocatorIcEEEE @3141
    _ZN3irr5scene16CXMeshFileLoader31parseDataObjectMeshMaterialListERNS1_6SXMeshE @3142
    _ZN3irr5scene16CXMeshFileLoader31parseDataObjectMeshVertexColorsERNS1_6SXMeshE @3143
    _ZN3irr5scene16CXMeshFileLoader32parseDataObjectMeshTextureCoordsERNS1_6SXMeshE @3144
    _ZN3irr5scene16CXMeshFileLoader35parseDataObjectTransformationMatrixERNS_4core8CMatrix4IfEE @3145
    _ZN3irr5scene16CXMeshFileLoader4loadEPNS_2io9IReadFileE @3146
    _ZN3irr5scene16CXMeshFileLoader6SXMeshC1Ev @3147
    _ZN3irr5scene16CXMeshFileLoader7readIntEv @3148
    _ZN3irr5scene16CXMeshFileLoader7readRGBERNS_5video6SColorE @3149
    _ZN3irr5scene16CXMeshFileLoader8readRGBAERNS_5video6SColorE @3150
    _ZN3irr5scene16CXMeshFileLoader9parseFileEv @3151
    _ZN3irr5scene16CXMeshFileLoader9readFloatEv @3152
    _ZN3irr5scene16CXMeshFileLoaderC1EPNS0_13ISceneManagerEPNS_2io11IFileSystemE @3153
    _ZN3irr5scene16CXMeshFileLoaderC2EPNS0_13ISceneManagerEPNS_2io11IFileSystemE @3154
    _ZN3irr5scene16CXMeshFileLoaderD0Ev @3155
    _ZN3irr5scene16CXMeshFileLoaderD1Ev @3156
    _ZN3irr5scene16IAnimatedMeshMD2D0Ev @3157
    _ZN3irr5scene16IAnimatedMeshMD2D1Ev @3158
    _ZN3irr5scene16IAnimatedMeshMD3D0Ev @3159
    _ZN3irr5scene16IAnimatedMeshMD3D1Ev @3160
    _ZN3irr5scene16IAnimatedMeshMD3D2Ev @3161
    _ZN3irr5scene16ICameraSceneNodeD0Ev @3162
    _ZN3irr5scene16ICameraSceneNodeD1Ev @3163
    _ZN3irr5scene16ICameraSceneNodeD2Ev @3164
    _ZN3irr5scene16IGeometryCreatorD0Ev @3165
    _ZN3irr5scene16IGeometryCreatorD1Ev @3166
    _ZN3irr5scene16IMeshManipulatorD0Ev @3167
    _ZN3irr5scene16IMeshManipulatorD1Ev @3168
    _ZN3irr5scene16IParticleEmitterD0Ev @3169
    _ZN3irr5scene16IParticleEmitterD1Ev @3170
    _ZN3irr5scene16SColladaMaterialC1ERKS1_ @3171
    _ZN3irr5scene16SColladaMaterialD1Ev @3172
    _ZN3irr5scene17CSkyDomeSceneNode11getMaterialEj @3173
    _ZN3irr5scene17CSkyDomeSceneNode12generateMeshEv @3174
    _ZN3irr5scene17CSkyDomeSceneNode19OnRegisterSceneNodeEv @3175
    _ZN3irr5scene17CSkyDomeSceneNode21deserializeAttributesEPNS_2io11IAttributesEPNS2_26SAttributeReadWriteOptionsE @3176
    _ZN3irr5scene17CSkyDomeSceneNode5cloneEPNS0_10ISceneNodeEPNS0_13ISceneManagerE @3177
    _ZN3irr5scene17CSkyDomeSceneNode6renderEv @3178
    _ZN3irr5scene17CSkyDomeSceneNodeC1EPNS_5video8ITextureEjjfffPNS0_10ISceneNodeEPNS0_13ISceneManagerEi @3179
    _ZN3irr5scene17CSkyDomeSceneNodeC2EPNS_5video8ITextureEjjfffPNS0_10ISceneNodeEPNS0_13ISceneManagerEi @3180
    _ZN3irr5scene17CSkyDomeSceneNodeD0Ev @3181
    _ZN3irr5scene17CSkyDomeSceneNodeD1Ev @3182
    _ZN3irr5scene17CSkyDomeSceneNodeD2Ev @3183
    _ZN3irr5scene17CTerrainSceneNode11getMaterialEj @3184
    _ZN3irr5scene17CTerrainSceneNode11setPositionERKNS_4core8vector3dIfEE @3185
    _ZN3irr5scene17CTerrainSceneNode11setRotationERKNS_4core8vector3dIfEE @3186
    _ZN3irr5scene17CTerrainSceneNode12STerrainDataD1Ev @3187
    _ZN3irr5scene17CTerrainSceneNode12scaleTextureEff @3188
    _ZN3irr5scene17CTerrainSceneNode13createPatchesEv @3189
    _ZN3irr5scene17CTerrainSceneNode13loadHeightMapEPNS_2io9IReadFileENS_5video6SColorEi @3190
    _ZN3irr5scene17CTerrainSceneNode13setLODOfPatchEiii @3191
    _ZN3irr5scene17CTerrainSceneNode13smoothTerrainEPNS0_18IDynamicMeshBufferEi @3192
    _ZN3irr5scene17CTerrainSceneNode15getRenderBufferEv @3193
    _ZN3irr5scene17CTerrainSceneNode16calculateNormalsEPNS0_18IDynamicMeshBufferE @3194
    _ZN3irr5scene17CTerrainSceneNode16loadHeightMapRAWEPNS_2io9IReadFileEibbiNS_5video6SColorEi @3195
    _ZN3irr5scene17CTerrainSceneNode16setRotationPivotERKNS_4core8vector3dIfEE @3196
    _ZN3irr5scene17CTerrainSceneNode18calculatePatchDataEv @3197
    _ZN3irr5scene17CTerrainSceneNode18getIndicesForPatchERNS_4core5arrayIjNS2_12irrAllocatorIjEEEEiii @3198
    _ZN3irr5scene17CTerrainSceneNode19OnRegisterSceneNodeEv @3199
    _ZN3irr5scene17CTerrainSceneNode19applyTransformationEv @3200
    _ZN3irr5scene17CTerrainSceneNode19overrideLODDistanceEid @3201
    _ZN3irr5scene17CTerrainSceneNode21deserializeAttributesEPNS_2io11IAttributesEPNS2_26SAttributeReadWriteOptionsE @3202
    _ZN3irr5scene17CTerrainSceneNode22setCameraMovementDeltaEf @3203
    _ZN3irr5scene17CTerrainSceneNode22setCameraRotationDeltaEf @3204
    _ZN3irr5scene17CTerrainSceneNode22setCurrentLODOfPatchesERKNS_4core5arrayIiNS2_12irrAllocatorIiEEEE @3205
    _ZN3irr5scene17CTerrainSceneNode22setCurrentLODOfPatchesEi @3206
    _ZN3irr5scene17CTerrainSceneNode24preRenderLODCalculationsEv @3207
    _ZN3irr5scene17CTerrainSceneNode24setDynamicSelectorUpdateEb @3208
    _ZN3irr5scene17CTerrainSceneNode27calculateDistanceThresholdsEb @3209
    _ZN3irr5scene17CTerrainSceneNode28preRenderIndicesCalculationsEv @3210
    _ZN3irr5scene17CTerrainSceneNode5cloneEPNS0_10ISceneNodeEPNS0_13ISceneManagerE @3211
    _ZN3irr5scene17CTerrainSceneNode6renderEv @3212
    _ZN3irr5scene17CTerrainSceneNode7getMeshEv @3213
    _ZN3irr5scene17CTerrainSceneNode8setScaleERKNS_4core8vector3dIfEE @3214
    _ZN3irr5scene17CTerrainSceneNodeC1EPNS0_10ISceneNodeEPNS0_13ISceneManagerEPNS_2io11IFileSystemEiiNS0_20E_TERRAIN_PATCH_SIZEERKNS_4core8vector3dIfEESE_SE_ @3215
    _ZN3irr5scene17CTerrainSceneNodeC2EPNS0_10ISceneNodeEPNS0_13ISceneManagerEPNS_2io11IFileSystemEiiNS0_20E_TERRAIN_PATCH_SIZEERKNS_4core8vector3dIfEESE_SE_ @3216
    _ZN3irr5scene17CTerrainSceneNodeD0Ev @3217
    _ZN3irr5scene17CTerrainSceneNodeD1Ev @3218
    _ZN3irr5scene17CTerrainSceneNodeD2Ev @3219
    _ZN3irr5scene17CTriangleSelector14createFromMeshEPKNS0_5IMeshE @3220
    _ZN3irr5scene17CTriangleSelectorC1EPKNS0_10ISceneNodeE @3221
    _ZN3irr5scene17CTriangleSelectorC1EPKNS0_5IMeshEPKNS0_10ISceneNodeE @3222
    _ZN3irr5scene17CTriangleSelectorC1EPNS0_22IAnimatedMeshSceneNodeE @3223
    _ZN3irr5scene17CTriangleSelectorC1ERKNS_4core8aabbox3dIfEEPKNS0_10ISceneNodeE @3224
    _ZN3irr5scene17CTriangleSelectorC2EPKNS0_10ISceneNodeE @3225
    _ZN3irr5scene17CTriangleSelectorC2EPKNS0_5IMeshEPKNS0_10ISceneNodeE @3226
    _ZN3irr5scene17CTriangleSelectorC2EPNS0_22IAnimatedMeshSceneNodeE @3227
    _ZN3irr5scene17CTriangleSelectorC2ERKNS_4core8aabbox3dIfEEPKNS0_10ISceneNodeE @3228
    _ZN3irr5scene17CTriangleSelectorD0Ev @3229
    _ZN3irr5scene17CTriangleSelectorD1Ev @3230
    _ZN3irr5scene17CTriangleSelectorD2Ev @3231
    _ZN3irr5scene17IParticleAffector10setEnabledEb @3232
    _ZN3irr5scene17IParticleAffectorD0Ev @3233
    _ZN3irr5scene17IParticleAffectorD1Ev @3234
    _ZN3irr5scene17ISceneNodeFactoryD0Ev @3235
    _ZN3irr5scene17ISceneNodeFactoryD1Ev @3236
    _ZN3irr5scene17ITerrainSceneNodeC2EPNS0_10ISceneNodeEPNS0_13ISceneManagerEiRKNS_4core8vector3dIfEESA_SA_ @3237
    _ZN3irr5scene17ITerrainSceneNodeD0Ev @3238
    _ZN3irr5scene17ITerrainSceneNodeD1Ev @3239
    _ZN3irr5scene17ITerrainSceneNodeD2Ev @3240
    _ZN3irr5scene17ITriangleSelectorD0Ev @3241
    _ZN3irr5scene17ITriangleSelectorD1Ev @3242
    _ZN3irr5scene17SMD3QuaternionTagC1ERKS1_ @3243
    _ZN3irr5scene17SMD3QuaternionTagD0Ev @3244
    _ZN3irr5scene17SMD3QuaternionTagD1Ev @3245
    _ZN3irr5scene18C3DSMeshFileLoader10createMeshEPNS_2io9IReadFileE @3246
    _ZN3irr5scene18C3DSMeshFileLoader10readStringEPNS_2io9IReadFileERNS1_9ChunkDataERNS_4core6stringIcNS7_12irrAllocatorIcEEEE @3247
    _ZN3irr5scene18C3DSMeshFileLoader11readIndicesEPNS_2io9IReadFileERNS1_9ChunkDataE @3248
    _ZN3irr5scene18C3DSMeshFileLoader12readVerticesEPNS_2io9IReadFileERNS1_9ChunkDataE @3249
    _ZN3irr5scene18C3DSMeshFileLoader13composeObjectEPNS_2io9IReadFileERKNS_4core6stringIcNS5_12irrAllocatorIcEEEE @3250
    _ZN3irr5scene18C3DSMeshFileLoader13loadMaterialsEPNS_2io9IReadFileE @3251
    _ZN3irr5scene18C3DSMeshFileLoader13readChunkDataEPNS_2io9IReadFileERNS1_9ChunkDataE @3252
    _ZN3irr5scene18C3DSMeshFileLoader14SMaterialGroupC1ERKS2_ @3253
    _ZN3irr5scene18C3DSMeshFileLoader14SMaterialGroupD1Ev @3254
    _ZN3irr5scene18C3DSMeshFileLoader14readColorChunkEPNS_2io9IReadFileEPNS1_9ChunkDataERNS_5video6SColorE @3255
    _ZN3irr5scene18C3DSMeshFileLoader14readFrameChunkEPNS_2io9IReadFileEPNS1_9ChunkDataE @3256
    _ZN3irr5scene18C3DSMeshFileLoader14readTrackChunkEPNS_2io9IReadFileERNS1_9ChunkDataEPNS0_11IMeshBufferERKNS_4core8vector3dIfEE @3257
    _ZN3irr5scene18C3DSMeshFileLoader15readObjectChunkEPNS_2io9IReadFileEPNS1_9ChunkDataE @3258
    _ZN3irr5scene18C3DSMeshFileLoader16SCurrentMaterial5clearEv @3259
    _ZN3irr5scene18C3DSMeshFileLoader16SCurrentMaterialC1ERKS2_ @3260
    _ZN3irr5scene18C3DSMeshFileLoader16SCurrentMaterialC1Ev @3261
    _ZN3irr5scene18C3DSMeshFileLoader16SCurrentMaterialD1Ev @3262
    _ZN3irr5scene18C3DSMeshFileLoader17readMaterialChunkEPNS_2io9IReadFileEPNS1_9ChunkDataE @3263
    _ZN3irr5scene18C3DSMeshFileLoader17readMaterialGroupEPNS_2io9IReadFileERNS1_9ChunkDataE @3264
    _ZN3irr5scene18C3DSMeshFileLoader17readTextureCoordsEPNS_2io9IReadFileERNS1_9ChunkDataE @3265
    _ZN3irr5scene18C3DSMeshFileLoader19readPercentageChunkEPNS_2io9IReadFileEPNS1_9ChunkDataERf @3266
    _ZN3irr5scene18C3DSMeshFileLoader7cleanUpEv @3267
    _ZN3irr5scene18C3DSMeshFileLoader9readChunkEPNS_2io9IReadFileEPNS1_9ChunkDataE @3268
    _ZN3irr5scene18C3DSMeshFileLoaderC1EPNS0_13ISceneManagerEPNS_2io11IFileSystemE @3269
    _ZN3irr5scene18C3DSMeshFileLoaderC2EPNS0_13ISceneManagerEPNS_2io11IFileSystemE @3270
    _ZN3irr5scene18C3DSMeshFileLoaderD0Ev @3271
    _ZN3irr5scene18C3DSMeshFileLoaderD1Ev @3272
    _ZN3irr5scene18C3DSMeshFileLoaderD2Ev @3273
    _ZN3irr5scene18CB3DMeshFileLoader10createMeshEPNS_2io9IReadFileE @3274
    _ZN3irr5scene18CB3DMeshFileLoader10readFloatsEPfj @3275
    _ZN3irr5scene18CB3DMeshFileLoader10readStringERNS_4core6stringIcNS2_12irrAllocatorIcEEEE @3276
    _ZN3irr5scene18CB3DMeshFileLoader12SB3dMaterialD1Ev @3277
    _ZN3irr5scene18CB3DMeshFileLoader13readChunkANIMEv @3278
    _ZN3irr5scene18CB3DMeshFileLoader13readChunkBONEEPNS0_12ISkinnedMesh6SJointE @3279
    _ZN3irr5scene18CB3DMeshFileLoader13readChunkBRUSEv @3280
    _ZN3irr5scene18CB3DMeshFileLoader13readChunkKEYSEPNS0_12ISkinnedMesh6SJointE @3281
    _ZN3irr5scene18CB3DMeshFileLoader13readChunkMESHEPNS0_12ISkinnedMesh6SJointE @3282
    _ZN3irr5scene18CB3DMeshFileLoader13readChunkNODEEPNS0_12ISkinnedMesh6SJointE @3283
    _ZN3irr5scene18CB3DMeshFileLoader13readChunkTEXSEv @3284
    _ZN3irr5scene18CB3DMeshFileLoader13readChunkTRISEPNS0_15SSkinMeshBufferEji @3285
    _ZN3irr5scene18CB3DMeshFileLoader13readChunkVRTSEPNS0_12ISkinnedMesh6SJointE @3286
    _ZN3irr5scene18CB3DMeshFileLoader4loadEv @3287
    _ZN3irr5scene18CB3DMeshFileLoaderC1EPNS0_13ISceneManagerE @3288
    _ZN3irr5scene18CB3DMeshFileLoaderC2EPNS0_13ISceneManagerE @3289
    _ZN3irr5scene18CB3DMeshFileLoaderD0Ev @3290
    _ZN3irr5scene18CB3DMeshFileLoaderD1Ev @3291
    _ZN3irr5scene18CBSPMeshFileLoader10createMeshEPNS_2io9IReadFileE @3292
    _ZN3irr5scene18CBSPMeshFileLoaderC1EPNS0_13ISceneManagerEPNS_2io11IFileSystemE @3293
    _ZN3irr5scene18CBSPMeshFileLoaderC2EPNS0_13ISceneManagerEPNS_2io11IFileSystemE @3294
    _ZN3irr5scene18CBSPMeshFileLoaderD0Ev @3295
    _ZN3irr5scene18CBSPMeshFileLoaderD1Ev @3296
    _ZN3irr5scene18CBSPMeshFileLoaderD2Ev @3297
    _ZN3irr5scene18CColladaFileLoader10createMeshEPNS_2io9IReadFileE @3298
    _ZN3irr5scene18CColladaFileLoader10readEffectEPNS_2io13IIrrXMLReaderIcNS_17IReferenceCountedEEEPNS0_14SColladaEffectE @3299
    _ZN3irr5scene18CColladaFileLoader11readTextureEPNS_2io13IIrrXMLReaderIcNS_17IReferenceCountedEEE @3300
    _ZN3irr5scene18CColladaFileLoader11skipSectionEPNS_2io13IIrrXMLReaderIcNS_17IReferenceCountedEEEb @3301
    _ZN3irr5scene18CColladaFileLoader12findMaterialERKNS_4core6stringIcNS2_12irrAllocatorIcEEEE @3302
    _ZN3irr5scene18CColladaFileLoader12readBboxNodeEPNS_2io13IIrrXMLReaderIcNS_17IReferenceCountedEEERNS_4core8aabbox3dIfEE @3303
    _ZN3irr5scene18CColladaFileLoader12readGeometryEPNS_2io13IIrrXMLReaderIcNS_17IReferenceCountedEEE @3304
    _ZN3irr5scene18CColladaFileLoader12readMaterialEPNS_2io13IIrrXMLReaderIcNS_17IReferenceCountedEEE @3305
    _ZN3irr5scene18CColladaFileLoader12readSkewNodeEPNS_2io13IIrrXMLReaderIcNS_17IReferenceCountedEEE @3306
    _ZN3irr5scene18CColladaFileLoader13readColorNodeEPNS_2io13IIrrXMLReaderIcNS_17IReferenceCountedEEE @3307
    _ZN3irr5scene18CColladaFileLoader13readFloatNodeEPNS_2io13IIrrXMLReaderIcNS_17IReferenceCountedEEE @3308
    _ZN3irr5scene18CColladaFileLoader13readParameterEPNS_2io13IIrrXMLReaderIcNS_17IReferenceCountedEEE @3309
    _ZN3irr5scene18CColladaFileLoader13readScaleNodeEPNS_2io13IIrrXMLReaderIcNS_17IReferenceCountedEEE @3310
    _ZN3irr5scene18CColladaFileLoader14readLookAtNodeEPNS_2io13IIrrXMLReaderIcNS_17IReferenceCountedEEE @3311
    _ZN3irr5scene18CColladaFileLoader14readMatrixNodeEPNS_2io13IIrrXMLReaderIcNS_17IReferenceCountedEEE @3312
    _ZN3irr5scene18CColladaFileLoader14readRotateNodeEPNS_2io13IIrrXMLReaderIcNS_17IReferenceCountedEEE @3313
    _ZN3irr5scene18CColladaFileLoader15getColladaInputENS0_23ECOLLADA_INPUT_SEMANTICE @3314
    _ZN3irr5scene18CColladaFileLoader15instantiateNodeEPNS0_10ISceneNodeEPS3_PNS0_12CScenePrefabERKNS_4core6stringIcNS7_12irrAllocatorIcEEEE @3315
    _ZN3irr5scene18CColladaFileLoader15readLightPrefabEPNS_2io13IIrrXMLReaderIcNS_17IReferenceCountedEEE @3316
    _ZN3irr5scene18CColladaFileLoader15readNodeSectionEPNS_2io13IIrrXMLReaderIcNS_17IReferenceCountedEEEPNS0_10ISceneNodeEPNS0_12CScenePrefabE @3317
    _ZN3irr5scene18CColladaFileLoader16readAssetSectionEPNS_2io13IIrrXMLReaderIcNS_17IReferenceCountedEEE @3318
    _ZN3irr5scene18CColladaFileLoader16readCameraPrefabEPNS_2io13IIrrXMLReaderIcNS_17IReferenceCountedEEE @3319
    _ZN3irr5scene18CColladaFileLoader16readColladaInputEPNS_2io13IIrrXMLReaderIcNS_17IReferenceCountedEEE @3320
    _ZN3irr5scene18CColladaFileLoader16readInstanceNodeEPNS_2io13IIrrXMLReaderIcNS_17IReferenceCountedEEEPNS0_10ISceneNodeEPS8_PNS0_12CScenePrefabE @3321
    _ZN3irr5scene18CColladaFileLoader16readSceneSectionEPNS_2io13IIrrXMLReaderIcNS_17IReferenceCountedEEE @3322
    _ZN3irr5scene18CColladaFileLoader17readColladaInputsEPNS_2io13IIrrXMLReaderIcNS_17IReferenceCountedEEERKNS_4core6stringIcNS7_12irrAllocatorIcEEEE @3323
    _ZN3irr5scene18CColladaFileLoader17readTranslateNodeEPNS_2io13IIrrXMLReaderIcNS_17IReferenceCountedEEE @3324
    _ZN3irr5scene18CColladaFileLoader18readColladaSectionEPNS_2io13IIrrXMLReaderIcNS_17IReferenceCountedEEE @3325
    _ZN3irr5scene18CColladaFileLoader18readLibrarySectionEPNS_2io13IIrrXMLReaderIcNS_17IReferenceCountedEEE @3326
    _ZN3irr5scene18CColladaFileLoader18readPolygonSectionEPNS_2io13IIrrXMLReaderIcNS_17IReferenceCountedEEERKNS_4core6stringIcNS7_12irrAllocatorIcEEEERNS7_5arrayINS0_7SSourceENS9_ISF_EEEEPNS0_5SMeshESD_ @3327
    _ZN3irr5scene18CColladaFileLoader19getColladaParameterENS0_19ECOLLADA_PARAM_NAMEE @3328
    _ZN3irr5scene18CColladaFileLoader19getTextureFromImageENS_4core6stringIcNS2_12irrAllocatorIcEEEE @3329
    _ZN3irr5scene18CColladaFileLoader19readPerspectiveNodeEPNS_2io13IIrrXMLReaderIcNS_17IReferenceCountedEEE @3330
    _ZN3irr5scene18CColladaFileLoader21readColladaParametersEPNS_2io13IIrrXMLReaderIcNS_17IReferenceCountedEEERKNS_4core6stringIcNS7_12irrAllocatorIcEEEE @3331
    _ZN3irr5scene18CColladaFileLoader21readIntsInsideElementEPNS_2io13IIrrXMLReaderIcNS_17IReferenceCountedEEEPij @3332
    _ZN3irr5scene18CColladaFileLoader22findNextNoneWhiteSpaceEPPKc @3333
    _ZN3irr5scene18CColladaFileLoader22readVisualSceneLibraryEPNS_2io13IIrrXMLReaderIcNS_17IReferenceCountedEEE @3334
    _ZN3irr5scene18CColladaFileLoader23readBindMaterialSectionEPNS_2io13IIrrXMLReaderIcNS_17IReferenceCountedEEERKNS_4core6stringIcNS7_12irrAllocatorIcEEEE @3335
    _ZN3irr5scene18CColladaFileLoader23readFloatsInsideElementEPNS_2io13IIrrXMLReaderIcNS_17IReferenceCountedEEEPfj @3336
    _ZN3irr5scene18CColladaFileLoader6readIdEPNS_2io13IIrrXMLReaderIcNS_17IReferenceCountedEEE @3337
    _ZN3irr5scene18CColladaFileLoader7uriToIdERNS_4core6stringIcNS2_12irrAllocatorIcEEEE @3338
    _ZN3irr5scene18CColladaFileLoader9clearDataEv @3339
    _ZN3irr5scene18CColladaFileLoader9readImageEPNS_2io13IIrrXMLReaderIcNS_17IReferenceCountedEEE @3340
    _ZN3irr5scene18CColladaFileLoaderC1EPNS0_13ISceneManagerEPNS_2io11IFileSystemE @3341
    _ZN3irr5scene18CColladaFileLoaderC2EPNS0_13ISceneManagerEPNS_2io11IFileSystemE @3342
    _ZN3irr5scene18CColladaFileLoaderD0Ev @3343
    _ZN3irr5scene18CColladaFileLoaderD1Ev @3344
    _ZN3irr5scene18CColladaFileLoaderD2Ev @3345
    _ZN3irr5scene18CColladaMeshWriter9writeMeshEPNS_2io10IWriteFileEPNS0_5IMeshEi @3346
    _ZN3irr5scene18CColladaMeshWriterC1EPNS_5video12IVideoDriverEPNS_2io11IFileSystemE @3347
    _ZN3irr5scene18CColladaMeshWriterC2EPNS_5video12IVideoDriverEPNS_2io11IFileSystemE @3348
    _ZN3irr5scene18CColladaMeshWriterD0Ev @3349
    _ZN3irr5scene18CColladaMeshWriterD1Ev @3350
    _ZN3irr5scene18CColladaMeshWriterD2Ev @3351
    _ZN3irr5scene18CDynamicMeshBuffer11getMaterialEv @3352
    _ZN3irr5scene18CDynamicMeshBuffer14setBoundingBoxERKNS_4core8aabbox3dIfEE @3353
    _ZN3irr5scene18CDynamicMeshBuffer14setIndexBufferEPNS0_12IIndexBufferE @3354
    _ZN3irr5scene18CDynamicMeshBuffer15setVertexBufferEPNS0_13IVertexBufferE @3355
    _ZN3irr5scene18CDynamicMeshBuffer22recalculateBoundingBoxEv @3356
    _ZN3irr5scene18CDynamicMeshBufferC1ENS_5video13E_VERTEX_TYPEENS2_12E_INDEX_TYPEE @3357
    _ZN3irr5scene18CDynamicMeshBufferD0Ev @3358
    _ZN3irr5scene18CDynamicMeshBufferD1Ev @3359
    _ZN3irr5scene18CIrrMeshFileLoader10createMeshEPNS_2io9IReadFileE @3360
    _ZN3irr5scene18CIrrMeshFileLoader11readIndicesEPNS_2io13IIrrXMLReaderIwNS_17IReferenceCountedEEEiRNS0_12IIndexBufferE @3361
    _ZN3irr5scene18CIrrMeshFileLoader11skipSectionEPNS_2io13IIrrXMLReaderIwNS_17IReferenceCountedEEEb @3362
    _ZN3irr5scene18CIrrMeshFileLoader14readMeshBufferEPNS_2io13IIrrXMLReaderIwNS_17IReferenceCountedEEE @3363
    _ZN3irr5scene18CIrrMeshFileLoader14readMeshBufferEPNS_2io13IIrrXMLReaderIwNS_17IReferenceCountedEEEiPNS0_18CDynamicMeshBufferE @3364
    _ZN3irr5scene18CIrrMeshFileLoader22findNextNoneWhiteSpaceEPPKc @3365
    _ZN3irr5scene18CIrrMeshFileLoader23readFloatsInsideElementEPNS_2io13IIrrXMLReaderIwNS_17IReferenceCountedEEEPfj @3366
    _ZN3irr5scene18CIrrMeshFileLoader25skipCurrentNoneWhiteSpaceEPPKc @3367
    _ZN3irr5scene18CIrrMeshFileLoader8readMeshEPNS_2io13IIrrXMLReaderIwNS_17IReferenceCountedEEE @3368
    _ZN3irr5scene18CIrrMeshFileLoader9readFloatEPPKc @3369
    _ZN3irr5scene18CIrrMeshFileLoaderC1EPNS0_13ISceneManagerEPNS_2io11IFileSystemE @3370
    _ZN3irr5scene18CIrrMeshFileLoaderC2EPNS0_13ISceneManagerEPNS_2io11IFileSystemE @3371
    _ZN3irr5scene18CIrrMeshFileLoaderD0Ev @3372
    _ZN3irr5scene18CIrrMeshFileLoaderD1Ev @3373
    _ZN3irr5scene18CLWOMeshFileLoader10createMeshEPNS_2io9IReadFileE @3374
    _ZN3irr5scene18CLWOMeshFileLoader10readChunksEv @3375
    _ZN3irr5scene18CLWOMeshFileLoader10readStringERNS_4core6stringIcNS2_12irrAllocatorIcEEEEj @3376
    _ZN3irr5scene18CLWOMeshFileLoader11loadTextureERKNS_4core6stringIcNS2_12irrAllocatorIcEEEE @3377
    _ZN3irr5scene18CLWOMeshFileLoader12tLWOMaterialD1Ev @3378
    _ZN3irr5scene18CLWOMeshFileLoader14readFileHeaderEv @3379
    _ZN3irr5scene18CLWOMeshFileLoader14readTagMappingEj @3380
    _ZN3irr5scene18CLWOMeshFileLoader17readVertexMappingEj @3381
    _ZN3irr5scene18CLWOMeshFileLoader21readDiscVertexMappingEj @3382
    _ZN3irr5scene18CLWOMeshFileLoader6readVXERj @3383
    _ZN3irr5scene18CLWOMeshFileLoader7readMatEj @3384
    _ZN3irr5scene18CLWOMeshFileLoader7readVecERNS_4core8vector3dIfEE @3385
    _ZN3irr5scene18CLWOMeshFileLoader8readObj1Ej @3386
    _ZN3irr5scene18CLWOMeshFileLoader8readObj2Ej @3387
    _ZN3irr5scene18CLWOMeshFileLoader9readColorERNS_5video6SColorE @3388
    _ZN3irr5scene18CLWOMeshFileLoaderC1EPNS0_13ISceneManagerEPNS_2io11IFileSystemE @3389
    _ZN3irr5scene18CLWOMeshFileLoaderC2EPNS0_13ISceneManagerEPNS_2io11IFileSystemE @3390
    _ZN3irr5scene18CLWOMeshFileLoaderD0Ev @3391
    _ZN3irr5scene18CLWOMeshFileLoaderD1Ev @3392
    _ZN3irr5scene18CLWOMeshFileLoaderD2Ev @3393
    _ZN3irr5scene18CMD2MeshFileLoader10createMeshEPNS_2io9IReadFileE @3394
    _ZN3irr5scene18CMD2MeshFileLoader8loadFileEPNS_2io9IReadFileEPNS0_16CAnimatedMeshMD2E @3395
    _ZN3irr5scene18CMD2MeshFileLoaderC1Ev @3396
    _ZN3irr5scene18CMD2MeshFileLoaderC2Ev @3397
    _ZN3irr5scene18CMD2MeshFileLoaderD0Ev @3398
    _ZN3irr5scene18CMD2MeshFileLoaderD1Ev @3399
    _ZN3irr5scene18CMD3MeshFileLoader10createMeshEPNS_2io9IReadFileE @3400
    _ZN3irr5scene18CMD3MeshFileLoaderC1EPNS0_13ISceneManagerE @3401
    _ZN3irr5scene18CMD3MeshFileLoaderC2EPNS0_13ISceneManagerE @3402
    _ZN3irr5scene18CMD3MeshFileLoaderD0Ev @3403
    _ZN3irr5scene18CMD3MeshFileLoaderD1Ev @3404
    _ZN3irr5scene18CMD3MeshFileLoaderD2Ev @3405
    _ZN3irr5scene18COBJMeshFileLoader10createMeshEPNS_2io9IReadFileE @3406
    _ZN3irr5scene18COBJMeshFileLoader10goNextLineEPKcS3_ @3407
    _ZN3irr5scene18COBJMeshFileLoader10goNextWordEPKcS3_b @3408
    _ZN3irr5scene18COBJMeshFileLoader11goFirstWordEPKcS3_b @3409
    _ZN3irr5scene18COBJMeshFileLoader12readTexturesEPKcS3_PNS1_7SObjMtlERKNS_4core6stringIcNS6_12irrAllocatorIcEEEE @3410
    _ZN3irr5scene18COBJMeshFileLoader17goAndCopyNextWordEPcPKcjS4_ @3411
    _ZN3irr5scene18COBJMeshFileLoader21retrieveVertexIndicesEPcPiPKcjjj @3412
    _ZN3irr5scene18COBJMeshFileLoader6readUVEPKcRNS_4core8vector2dIfEES3_ @3413
    _ZN3irr5scene18COBJMeshFileLoader7SObjMtlC1ERKS2_ @3414
    _ZN3irr5scene18COBJMeshFileLoader7SObjMtlC1Ev @3415
    _ZN3irr5scene18COBJMeshFileLoader7cleanUpEv @3416
    _ZN3irr5scene18COBJMeshFileLoader7findMtlERKNS_4core6stringIcNS2_12irrAllocatorIcEEEES8_ @3417
    _ZN3irr5scene18COBJMeshFileLoader7readMTLEPKcRKNS_4core6stringIcNS4_12irrAllocatorIcEEEE @3418
    _ZN3irr5scene18COBJMeshFileLoader8copyLineEPKcS3_ @3419
    _ZN3irr5scene18COBJMeshFileLoader8copyWordEPcPKcjS4_ @3420
    _ZN3irr5scene18COBJMeshFileLoader8readBoolEPKcRbS3_ @3421
    _ZN3irr5scene18COBJMeshFileLoader8readVec3EPKcRNS_4core8vector3dIfEES3_ @3422
    _ZN3irr5scene18COBJMeshFileLoader9readColorEPKcRNS_5video6SColorES3_ @3423
    _ZN3irr5scene18COBJMeshFileLoaderC1EPNS0_13ISceneManagerEPNS_2io11IFileSystemE @3424
    _ZN3irr5scene18COBJMeshFileLoaderC2EPNS0_13ISceneManagerEPNS_2io11IFileSystemE @3425
    _ZN3irr5scene18COBJMeshFileLoaderD0Ev @3426
    _ZN3irr5scene18COBJMeshFileLoaderD1Ev @3427
    _ZN3irr5scene18COBJMeshFileLoaderD2Ev @3428
    _ZN3irr5scene18CPLYMeshFileLoader10createMeshEPNS_2io9IReadFileE @3429
    _ZN3irr5scene18CPLYMeshFileLoader10fillBufferEv @3430
    _ZN3irr5scene18CPLYMeshFileLoader10readVertexERKNS1_11SPLYElementEPNS0_18CDynamicMeshBufferE @3431
    _ZN3irr5scene18CPLYMeshFileLoader11getNextLineEv @3432
    _ZN3irr5scene18CPLYMeshFileLoader11getNextWordEv @3433
    _ZN3irr5scene18CPLYMeshFileLoader11moveForwardEj @3434
    _ZN3irr5scene18CPLYMeshFileLoader11skipElementERKNS1_11SPLYElementE @3435
    _ZN3irr5scene18CPLYMeshFileLoader12skipPropertyERKNS1_12SPLYPropertyE @3436
    _ZN3irr5scene18CPLYMeshFileLoader14allocateBufferEv @3437
    _ZN3irr5scene18CPLYMeshFileLoader6getIntENS0_19E_PLY_PROPERTY_TYPEE @3438
    _ZN3irr5scene18CPLYMeshFileLoader8getFloatENS0_19E_PLY_PROPERTY_TYPEE @3439
    _ZN3irr5scene18CPLYMeshFileLoader8readFaceERKNS1_11SPLYElementEPNS0_18CDynamicMeshBufferE @3440
    _ZN3irr5scene18CPLYMeshFileLoaderC1Ev @3441
    _ZN3irr5scene18CPLYMeshFileLoaderC2Ev @3442
    _ZN3irr5scene18CPLYMeshFileLoaderD0Ev @3443
    _ZN3irr5scene18CPLYMeshFileLoaderD1Ev @3444
    _ZN3irr5scene18CPLYMeshFileLoaderD2Ev @3445
    _ZN3irr5scene18CSTLMeshFileLoader10createMeshEPNS_2io9IReadFileE @3446
    _ZN3irr5scene18CSTLMeshFileLoaderD0Ev @3447
    _ZN3irr5scene18CSTLMeshFileLoaderD1Ev @3448
    _ZN3irr5scene18IDynamicMeshBuffer10getIndicesEv @3449
    _ZN3irr5scene18IDynamicMeshBuffer10getTCoordsEj @3450
    _ZN3irr5scene18IDynamicMeshBuffer11getPositionEj @3451
    _ZN3irr5scene18IDynamicMeshBuffer11getVerticesEv @3452
    _ZN3irr5scene18IDynamicMeshBuffer22setHardwareMappingHintENS0_18E_HARDWARE_MAPPINGENS0_13E_BUFFER_TYPEE @3453
    _ZN3irr5scene18IDynamicMeshBuffer6appendEPKNS0_11IMeshBufferE @3454
    _ZN3irr5scene18IDynamicMeshBuffer6appendEPKvjPKtj @3455
    _ZN3irr5scene18IDynamicMeshBuffer8setDirtyENS0_13E_BUFFER_TYPEE @3456
    _ZN3irr5scene18IDynamicMeshBuffer9getNormalEj @3457
    _ZN3irr5scene18IDynamicMeshBufferD0Ev @3458
    _ZN3irr5scene18IDynamicMeshBufferD1Ev @3459
    _ZN3irr5scene18ISceneNodeAnimator7OnEventERKNS_6SEventE @3460
    _ZN3irr5scene18ISceneNodeAnimatorD0Ev @3461
    _ZN3irr5scene18ISceneNodeAnimatorD1Ev @3462
    _ZN3irr5scene18createSceneManagerEPNS_5video12IVideoDriverEPNS_2io11IFileSystemEPNS_3gui14ICursorControlEPNS7_15IGUIEnvironmentE @3463
    _ZN3irr5scene19CBillboardSceneNode11getMaterialEj @3464
    _ZN3irr5scene19CBillboardSceneNode19OnRegisterSceneNodeEv @3465
    _ZN3irr5scene19CBillboardSceneNode21deserializeAttributesEPNS_2io11IAttributesEPNS2_26SAttributeReadWriteOptionsE @3466
    _ZN3irr5scene19CBillboardSceneNode5cloneEPNS0_10ISceneNodeEPNS0_13ISceneManagerE @3467
    _ZN3irr5scene19CBillboardSceneNode6renderEv @3468
    _ZN3irr5scene19CBillboardSceneNode7setSizeERKNS_4core11dimension2dIfEE @3469
    _ZN3irr5scene19CBillboardSceneNode8setColorERKNS_5video6SColorE @3470
    _ZN3irr5scene19CBillboardSceneNode8setColorERKNS_5video6SColorES5_ @3471
    _ZN3irr5scene19CBillboardSceneNodeC1EPNS0_10ISceneNodeEPNS0_13ISceneManagerEiRKNS_4core8vector3dIfEERKNS6_11dimension2dIfEENS_5video6SColorESG_ @3472
    _ZN3irr5scene19CBillboardSceneNodeC2EPNS0_10ISceneNodeEPNS0_13ISceneManagerEiRKNS_4core8vector3dIfEERKNS6_11dimension2dIfEENS_5video6SColorESG_ @3473
    _ZN3irr5scene19CBillboardSceneNodeD0Ev @3474
    _ZN3irr5scene19CBillboardSceneNodeD1Ev @3475
    _ZN3irr5scene19CLMTSMeshFileLoader10createMeshEPNS_2io9IReadFileE @3476
    _ZN3irr5scene19CLMTSMeshFileLoader12loadTexturesEPNS0_5SMeshE @3477
    _ZN3irr5scene19CLMTSMeshFileLoader13constructMeshEPNS0_5SMeshE @3478
    _ZN3irr5scene19CLMTSMeshFileLoader7cleanupEv @3479
    _ZN3irr5scene19CLMTSMeshFileLoaderC1EPNS_2io11IFileSystemEPNS_5video12IVideoDriverEPNS2_11IAttributesE @3480
    _ZN3irr5scene19CLMTSMeshFileLoaderC2EPNS_2io11IFileSystemEPNS_5video12IVideoDriverEPNS2_11IAttributesE @3481
    _ZN3irr5scene19CLMTSMeshFileLoaderD0Ev @3482
    _ZN3irr5scene19CLMTSMeshFileLoaderD1Ev @3483
    _ZN3irr5scene19CLMTSMeshFileLoaderD2Ev @3484
    _ZN3irr5scene19CMS3DMeshFileLoader10createMeshEPNS_2io9IReadFileE @3485
    _ZN3irr5scene19CMS3DMeshFileLoader4loadEPNS_2io9IReadFileE @3486
    _ZN3irr5scene19CMS3DMeshFileLoaderC1EPNS_5video12IVideoDriverE @3487
    _ZN3irr5scene19CMS3DMeshFileLoaderC2EPNS_5video12IVideoDriverE @3488
    _ZN3irr5scene19CMS3DMeshFileLoaderD0Ev @3489
    _ZN3irr5scene19CMS3DMeshFileLoaderD1Ev @3490
    _ZN3irr5scene19CMY3DMeshFileLoader10createMeshEPNS_2io9IReadFileE @3491
    _ZN3irr5scene19CMY3DMeshFileLoader16SMyMaterialEntryC1ERKS2_ @3492
    _ZN3irr5scene19CMY3DMeshFileLoader16SMyMaterialEntryD1Ev @3493
    _ZN3irr5scene19CMY3DMeshFileLoader20readEmbeddedLightmapEPNS_2io9IReadFileEPc @3494
    _ZN3irr5scene19CMY3DMeshFileLoader23getMaterialEntryByIndexEj @3495
    _ZN3irr5scene19CMY3DMeshFileLoader28getMeshBufferByMaterialIndexEj @3496
    _ZN3irr5scene19CMY3DMeshFileLoaderC1EPNS0_13ISceneManagerEPNS_2io11IFileSystemE @3497
    _ZN3irr5scene19CMY3DMeshFileLoaderC2EPNS0_13ISceneManagerEPNS_2io11IFileSystemE @3498
    _ZN3irr5scene19CMY3DMeshFileLoaderD0Ev @3499
    _ZN3irr5scene19CMY3DMeshFileLoaderD1Ev @3500
    _ZN3irr5scene19CMY3DMeshFileLoaderD2Ev @3501
    _ZN3irr5scene19COgreMeshFileLoader10createMeshEPNS_2io9IReadFileE @3502
    _ZN3irr5scene19COgreMeshFileLoader10readStringEPNS_2io9IReadFileERNS1_9ChunkDataERNS_4core6stringIcNS7_12irrAllocatorIcEEEE @3503
    _ZN3irr5scene19COgreMeshFileLoader10readVectorEPNS_2io9IReadFileERNS1_9ChunkDataERNS_4core8vector3dIfEE @3504
    _ZN3irr5scene19COgreMeshFileLoader11OgreSubMeshC1ERKS2_ @3505
    _ZN3irr5scene19COgreMeshFileLoader11OgreSubMeshD1Ev @3506
    _ZN3irr5scene19COgreMeshFileLoader11clearMeshesEv @3507
    _ZN3irr5scene19COgreMeshFileLoader11readSubMeshEPNS_2io9IReadFileERNS1_9ChunkDataERNS1_11OgreSubMeshE @3508
    _ZN3irr5scene19COgreMeshFileLoader12OgreGeometryC1ERKS2_ @3509
    _ZN3irr5scene19COgreMeshFileLoader12OgreGeometryD1Ev @3510
    _ZN3irr5scene19COgreMeshFileLoader12OgreGeometryaSERKS2_ @3511
    _ZN3irr5scene19COgreMeshFileLoader12OgreMaterialC1ERKS2_ @3512
    _ZN3irr5scene19COgreMeshFileLoader12OgreMaterialD1Ev @3513
    _ZN3irr5scene19COgreMeshFileLoader12OgreSkeletonD1Ev @3514
    _ZN3irr5scene19COgreMeshFileLoader12loadSkeletonEPNS_2io9IReadFileERKNS_4core6stringIcNS5_12irrAllocatorIcEEEE @3515
    _ZN3irr5scene19COgreMeshFileLoader12readGeometryEPNS_2io9IReadFileERNS1_9ChunkDataERNS1_12OgreGeometryE @3516
    _ZN3irr5scene19COgreMeshFileLoader13OgreAnimationC1ERKS2_ @3517
    _ZN3irr5scene19COgreMeshFileLoader13OgreAnimationD1Ev @3518
    _ZN3irr5scene19COgreMeshFileLoader13OgreTechniqueC1ERKS2_ @3519
    _ZN3irr5scene19COgreMeshFileLoader13OgreTechniqueD1Ev @3520
    _ZN3irr5scene19COgreMeshFileLoader13composeObjectEv @3521
    _ZN3irr5scene19COgreMeshFileLoader13loadMaterialsEPNS_2io9IReadFileE @3522
    _ZN3irr5scene19COgreMeshFileLoader13readChunkDataEPNS_2io9IReadFileERNS1_9ChunkDataE @3523
    _ZN3irr5scene19COgreMeshFileLoader13readTechniqueEPNS_2io9IReadFileERNS1_12OgreMaterialE @3524
    _ZN3irr5scene19COgreMeshFileLoader14readQuaternionEPNS_2io9IReadFileERNS1_9ChunkDataERNS_4core10quaternionE @3525
    _ZN3irr5scene19COgreMeshFileLoader15readObjectChunkEPNS_2io9IReadFileERNS1_9ChunkDataERNS1_8OgreMeshE @3526
    _ZN3irr5scene19COgreMeshFileLoader16OgreTextureAliasC1ERKS2_ @3527
    _ZN3irr5scene19COgreMeshFileLoader16OgreTextureAliasD1Ev @3528
    _ZN3irr5scene19COgreMeshFileLoader16getMaterialTokenEPNS_2io9IReadFileERNS_4core6stringIcNS5_12irrAllocatorIcEEEEb @3529
    _ZN3irr5scene19COgreMeshFileLoader16readVertexBufferEPNS_2io9IReadFileERNS1_9ChunkDataERNS1_12OgreGeometryE @3530
    _ZN3irr5scene19COgreMeshFileLoader17composeMeshBufferERKNS_4core5arrayIiNS2_12irrAllocatorIiEEEERKNS1_12OgreGeometryE @3531
    _ZN3irr5scene19COgreMeshFileLoader21readVertexDeclarationEPNS_2io9IReadFileERNS1_9ChunkDataERNS1_12OgreGeometryE @3532
    _ZN3irr5scene19COgreMeshFileLoader24composeMeshBufferSkinnedERNS0_12CSkinnedMeshERKNS_4core5arrayIiNS4_12irrAllocatorIiEEEERKNS1_12OgreGeometryE @3533
    _ZN3irr5scene19COgreMeshFileLoader25composeMeshBufferLightMapERKNS_4core5arrayIiNS2_12irrAllocatorIiEEEERKNS1_12OgreGeometryE @3534
    _ZN3irr5scene19COgreMeshFileLoader25composeMeshBufferMaterialEPNS0_11IMeshBufferERKNS_4core6stringIcNS4_12irrAllocatorIcEEEE @3535
    _ZN3irr5scene19COgreMeshFileLoader7readIntEPNS_2io9IReadFileERNS1_9ChunkDataEPij @3536
    _ZN3irr5scene19COgreMeshFileLoader8OgreMeshC1ERKS2_ @3537
    _ZN3irr5scene19COgreMeshFileLoader8OgreMeshD1Ev @3538
    _ZN3irr5scene19COgreMeshFileLoader8OgrePassC1ERKS2_ @3539
    _ZN3irr5scene19COgreMeshFileLoader8OgrePassD1Ev @3540
    _ZN3irr5scene19COgreMeshFileLoader8OgrePassaSERKS2_ @3541
    _ZN3irr5scene19COgreMeshFileLoader8readBoolEPNS_2io9IReadFileERNS1_9ChunkDataERb @3542
    _ZN3irr5scene19COgreMeshFileLoader8readPassEPNS_2io9IReadFileERNS1_13OgreTechniqueE @3543
    _ZN3irr5scene19COgreMeshFileLoader9readChunkEPNS_2io9IReadFileE @3544
    _ZN3irr5scene19COgreMeshFileLoader9readColorEPNS_2io9IReadFileERNS_5video6SColorE @3545
    _ZN3irr5scene19COgreMeshFileLoader9readFloatEPNS_2io9IReadFileERNS1_9ChunkDataEPfj @3546
    _ZN3irr5scene19COgreMeshFileLoader9readShortEPNS_2io9IReadFileERNS1_9ChunkDataEPtj @3547
    _ZN3irr5scene19COgreMeshFileLoaderC1EPNS_2io11IFileSystemEPNS_5video12IVideoDriverE @3548
    _ZN3irr5scene19COgreMeshFileLoaderC2EPNS_2io11IFileSystemEPNS_5video12IVideoDriverE @3549
    _ZN3irr5scene19COgreMeshFileLoaderD0Ev @3550
    _ZN3irr5scene19COgreMeshFileLoaderD1Ev @3551
    _ZN3irr5scene19COgreMeshFileLoaderD2Ev @3552
    _ZN3irr5scene19CParticleBoxEmitter12setDirectionERKNS_4core8vector3dIfEE @3553
    _ZN3irr5scene19CParticleBoxEmitter15setMaxStartSizeERKNS_4core11dimension2dIfEE @3554
    _ZN3irr5scene19CParticleBoxEmitter15setMinStartSizeERKNS_4core11dimension2dIfEE @3555
    _ZN3irr5scene19CParticleBoxEmitter16setMaxStartColorERKNS_5video6SColorE @3556
    _ZN3irr5scene19CParticleBoxEmitter16setMinStartColorERKNS_5video6SColorE @3557
    _ZN3irr5scene19CParticleBoxEmitter21deserializeAttributesEPNS_2io11IAttributesEPNS2_26SAttributeReadWriteOptionsE @3558
    _ZN3irr5scene19CParticleBoxEmitter24setMaxParticlesPerSecondEj @3559
    _ZN3irr5scene19CParticleBoxEmitter24setMinParticlesPerSecondEj @3560
    _ZN3irr5scene19CParticleBoxEmitter5emittEjjRPNS0_9SParticleE @3561
    _ZN3irr5scene19CParticleBoxEmitter6setBoxERKNS_4core8aabbox3dIfEE @3562
    _ZN3irr5scene19CParticleBoxEmitterC1ERKNS_4core8aabbox3dIfEERKNS2_8vector3dIfEEjjNS_5video6SColorESC_jjiRKNS2_11dimension2dIfEESG_ @3563
    _ZN3irr5scene19CParticleBoxEmitterC2ERKNS_4core8aabbox3dIfEERKNS2_8vector3dIfEEjjNS_5video6SColorESC_jjiRKNS2_11dimension2dIfEESG_ @3564
    _ZN3irr5scene19CParticleBoxEmitterD0Ev @3565
    _ZN3irr5scene19CParticleBoxEmitterD1Ev @3566
    _ZN3irr5scene19CTriangleBBSelectorC1EPKNS0_10ISceneNodeE @3567
    _ZN3irr5scene19CTriangleBBSelectorC2EPKNS0_10ISceneNodeE @3568
    _ZN3irr5scene19CTriangleBBSelectorD0Ev @3569
    _ZN3irr5scene19CTriangleBBSelectorD1Ev @3570
    _ZN3irr5scene19IBillboardSceneNodeD0Ev @3571
    _ZN3irr5scene19IBillboardSceneNodeD1Ev @3572
    _ZN3irr5scene19IParticleBoxEmitterD0Ev @3573
    _ZN3irr5scene19IParticleBoxEmitterD1Ev @3574
    _ZN3irr5scene20CParticleMeshEmitter12setDirectionERKNS_4core8vector3dIfEE @3575
    _ZN3irr5scene20CParticleMeshEmitter15setMaxStartSizeERKNS_4core11dimension2dIfEE @3576
    _ZN3irr5scene20CParticleMeshEmitter15setMinStartSizeERKNS_4core11dimension2dIfEE @3577
    _ZN3irr5scene20CParticleMeshEmitter16setMaxStartColorERKNS_5video6SColorE @3578
    _ZN3irr5scene20CParticleMeshEmitter16setMinStartColorERKNS_5video6SColorE @3579
    _ZN3irr5scene20CParticleMeshEmitter18setEveryMeshVertexEb @3580
    _ZN3irr5scene20CParticleMeshEmitter21setUseNormalDirectionEb @3581
    _ZN3irr5scene20CParticleMeshEmitter24setMaxParticlesPerSecondEj @3582
    _ZN3irr5scene20CParticleMeshEmitter24setMinParticlesPerSecondEj @3583
    _ZN3irr5scene20CParticleMeshEmitter26setNormalDirectionModifierEf @3584
    _ZN3irr5scene20CParticleMeshEmitter5emittEjjRPNS0_9SParticleE @3585
    _ZN3irr5scene20CParticleMeshEmitter7setMeshEPNS0_5IMeshE @3586
    _ZN3irr5scene20CParticleMeshEmitterC1EPNS0_5IMeshEbRKNS_4core8vector3dIfEEfibjjRKNS_5video6SColorESC_jjiRKNS4_11dimension2dIfEESG_ @3587
    _ZN3irr5scene20CParticleMeshEmitterC2EPNS0_5IMeshEbRKNS_4core8vector3dIfEEfibjjRKNS_5video6SColorESC_jjiRKNS4_11dimension2dIfEESG_ @3588
    _ZN3irr5scene20CParticleMeshEmitterD0Ev @3589
    _ZN3irr5scene20CParticleMeshEmitterD1Ev @3590
    _ZN3irr5scene20CParticleRingEmitter12setDirectionERKNS_4core8vector3dIfEE @3591
    _ZN3irr5scene20CParticleRingEmitter15setMaxStartSizeERKNS_4core11dimension2dIfEE @3592
    _ZN3irr5scene20CParticleRingEmitter15setMinStartSizeERKNS_4core11dimension2dIfEE @3593
    _ZN3irr5scene20CParticleRingEmitter16setMaxStartColorERKNS_5video6SColorE @3594
    _ZN3irr5scene20CParticleRingEmitter16setMinStartColorERKNS_5video6SColorE @3595
    _ZN3irr5scene20CParticleRingEmitter16setRingThicknessEf @3596
    _ZN3irr5scene20CParticleRingEmitter21deserializeAttributesEPNS_2io11IAttributesEPNS2_26SAttributeReadWriteOptionsE @3597
    _ZN3irr5scene20CParticleRingEmitter24setMaxParticlesPerSecondEj @3598
    _ZN3irr5scene20CParticleRingEmitter24setMinParticlesPerSecondEj @3599
    _ZN3irr5scene20CParticleRingEmitter5emittEjjRPNS0_9SParticleE @3600
    _ZN3irr5scene20CParticleRingEmitter9setCenterERKNS_4core8vector3dIfEE @3601
    _ZN3irr5scene20CParticleRingEmitter9setRadiusEf @3602
    _ZN3irr5scene20CParticleRingEmitterC1ERKNS_4core8vector3dIfEEffS6_jjRKNS_5video6SColorESA_jjiRKNS2_11dimension2dIfEESE_ @3603
    _ZN3irr5scene20CParticleRingEmitterC2ERKNS_4core8vector3dIfEEffS6_jjRKNS_5video6SColorESA_jjiRKNS2_11dimension2dIfEESE_ @3604
    _ZN3irr5scene20CParticleRingEmitterD0Ev @3605
    _ZN3irr5scene20CParticleRingEmitterD1Ev @3606
    _ZN3irr5scene20IParticleMeshEmitterD0Ev @3607
    _ZN3irr5scene20IParticleMeshEmitterD1Ev @3608
    _ZN3irr5scene20IParticleMeshEmitterD2Ev @3609
    _ZN3irr5scene20IParticleRingEmitterD0Ev @3610
    _ZN3irr5scene20IParticleRingEmitterD1Ev @3611
    _ZN3irr5scene21CMetaTriangleSelector19addTriangleSelectorEPNS0_17ITriangleSelectorE @3612
    _ZN3irr5scene21CMetaTriangleSelector22removeTriangleSelectorEPNS0_17ITriangleSelectorE @3613
    _ZN3irr5scene21CMetaTriangleSelector26removeAllTriangleSelectorsEv @3614
    _ZN3irr5scene21CMetaTriangleSelectorC1Ev @3615
    _ZN3irr5scene21CMetaTriangleSelectorC2Ev @3616
    _ZN3irr5scene21CMetaTriangleSelectorD0Ev @3617
    _ZN3irr5scene21CMetaTriangleSelectorD1Ev @3618
    _ZN3irr5scene21CMetaTriangleSelectorD2Ev @3619
    _ZN3irr5scene21CParticlePointEmitter12setDirectionERKNS_4core8vector3dIfEE @3620
    _ZN3irr5scene21CParticlePointEmitter15setMaxStartSizeERKNS_4core11dimension2dIfEE @3621
    _ZN3irr5scene21CParticlePointEmitter15setMinStartSizeERKNS_4core11dimension2dIfEE @3622
    _ZN3irr5scene21CParticlePointEmitter16setMaxStartColorERKNS_5video6SColorE @3623
    _ZN3irr5scene21CParticlePointEmitter16setMinStartColorERKNS_5video6SColorE @3624
    _ZN3irr5scene21CParticlePointEmitter21deserializeAttributesEPNS_2io11IAttributesEPNS2_26SAttributeReadWriteOptionsE @3625
    _ZN3irr5scene21CParticlePointEmitter24setMaxParticlesPerSecondEj @3626
    _ZN3irr5scene21CParticlePointEmitter24setMinParticlesPerSecondEj @3627
    _ZN3irr5scene21CParticlePointEmitter5emittEjjRPNS0_9SParticleE @3628
    _ZN3irr5scene21CParticlePointEmitterC1ERKNS_4core8vector3dIfEEjjNS_5video6SColorES8_jjiRKNS2_11dimension2dIfEESC_ @3629
    _ZN3irr5scene21CParticlePointEmitterC2ERKNS_4core8vector3dIfEEjjNS_5video6SColorES8_jjiRKNS2_11dimension2dIfEESC_ @3630
    _ZN3irr5scene21CParticlePointEmitterD0Ev @3631
    _ZN3irr5scene21CParticlePointEmitterD1Ev @3632
    _ZN3irr5scene21CVolumeLightSceneNode11getMaterialEj @3633
    _ZN3irr5scene21CVolumeLightSceneNode12setFootColorENS_5video6SColorE @3634
    _ZN3irr5scene21CVolumeLightSceneNode12setTailColorENS_5video6SColorE @3635
    _ZN3irr5scene21CVolumeLightSceneNode13setSubDivideUEj @3636
    _ZN3irr5scene21CVolumeLightSceneNode13setSubDivideVEj @3637
    _ZN3irr5scene21CVolumeLightSceneNode14constructLightEv @3638
    _ZN3irr5scene21CVolumeLightSceneNode19OnRegisterSceneNodeEv @3639
    _ZN3irr5scene21CVolumeLightSceneNode21deserializeAttributesEPNS_2io11IAttributesEPNS2_26SAttributeReadWriteOptionsE @3640
    _ZN3irr5scene21CVolumeLightSceneNode5cloneEPNS0_10ISceneNodeEPNS0_13ISceneManagerE @3641
    _ZN3irr5scene21CVolumeLightSceneNode6renderEv @3642
    _ZN3irr5scene21CVolumeLightSceneNodeC1EPNS0_10ISceneNodeEPNS0_13ISceneManagerEijjNS_5video6SColorES7_RKNS_4core8vector3dIfEESC_SC_ @3643
    _ZN3irr5scene21CVolumeLightSceneNodeC2EPNS0_10ISceneNodeEPNS0_13ISceneManagerEijjNS_5video6SColorES7_RKNS_4core8vector3dIfEESC_SC_ @3644
    _ZN3irr5scene21CVolumeLightSceneNodeD0Ev @3645
    _ZN3irr5scene21CVolumeLightSceneNodeD1Ev @3646
    _ZN3irr5scene21CVolumeLightSceneNodeD2Ev @3647
    _ZN3irr5scene21IMetaTriangleSelectorD0Ev @3648
    _ZN3irr5scene21IMetaTriangleSelectorD1Ev @3649
    _ZN3irr5scene21IVolumeLightSceneNodeD0Ev @3650
    _ZN3irr5scene21IVolumeLightSceneNodeD1Ev @3651
    _ZN3irr5scene21IVolumeLightSceneNodeD2Ev @3652
    _ZN3irr5scene21SMD3QuaternionTagList8set_usedEj @3653
    _ZN3irr5scene21SMD3QuaternionTagListD0Ev @3654
    _ZN3irr5scene21SMD3QuaternionTagListD1Ev @3655
    _ZN3irr5scene22CAnimatedMeshSceneNode11SMD3SpecialD0Ev @3656
    _ZN3irr5scene22CAnimatedMeshSceneNode11SMD3SpecialD1Ev @3657
    _ZN3irr5scene22CAnimatedMeshSceneNode11checkJointsEv @3658
    _ZN3irr5scene22CAnimatedMeshSceneNode11getMaterialEj @3659
    _ZN3irr5scene22CAnimatedMeshSceneNode11removeChildEPNS0_10ISceneNodeE @3660
    _ZN3irr5scene22CAnimatedMeshSceneNode11setLoopModeEb @3661
    _ZN3irr5scene22CAnimatedMeshSceneNode12buildFrameNrEj @3662
    _ZN3irr5scene22CAnimatedMeshSceneNode12getJointNodeEPKc @3663
    _ZN3irr5scene22CAnimatedMeshSceneNode12getJointNodeEj @3664
    _ZN3irr5scene22CAnimatedMeshSceneNode12setFrameLoopEii @3665
    _ZN3irr5scene22CAnimatedMeshSceneNode12setJointModeENS0_24E_JOINT_UPDATE_ON_RENDERE @3666
    _ZN3irr5scene22CAnimatedMeshSceneNode13animateJointsEb @3667
    _ZN3irr5scene22CAnimatedMeshSceneNode13getXJointNodeEPKc @3668
    _ZN3irr5scene22CAnimatedMeshSceneNode15beginTransitionEv @3669
    _ZN3irr5scene22CAnimatedMeshSceneNode15setCurrentFrameEf @3670
    _ZN3irr5scene22CAnimatedMeshSceneNode15setMD2AnimationENS0_19EMD2_ANIMATION_TYPEE @3671
    _ZN3irr5scene22CAnimatedMeshSceneNode15setMD2AnimationEPKc @3672
    _ZN3irr5scene22CAnimatedMeshSceneNode16getMS3DJointNodeEPKc @3673
    _ZN3irr5scene22CAnimatedMeshSceneNode17setAnimationSpeedEf @3674
    _ZN3irr5scene22CAnimatedMeshSceneNode17setTransitionTimeEf @3675
    _ZN3irr5scene22CAnimatedMeshSceneNode19OnRegisterSceneNodeEv @3676
    _ZN3irr5scene22CAnimatedMeshSceneNode20setReadOnlyMaterialsEb @3677
    _ZN3irr5scene22CAnimatedMeshSceneNode21deserializeAttributesEPNS_2io11IAttributesEPNS2_26SAttributeReadWriteOptionsE @3678
    _ZN3irr5scene22CAnimatedMeshSceneNode21setRenderFromIdentityEb @3679
    _ZN3irr5scene22CAnimatedMeshSceneNode22getMeshForCurrentFrameEv @3680
    _ZN3irr5scene22CAnimatedMeshSceneNode22updateAbsolutePositionEv @3681
    _ZN3irr5scene22CAnimatedMeshSceneNode23getMD3TagTransformationERKNS_4core6stringIcNS2_12irrAllocatorIcEEEE @3682
    _ZN3irr5scene22CAnimatedMeshSceneNode23setAnimationEndCallbackEPNS0_21IAnimationEndCallBackE @3683
    _ZN3irr5scene22CAnimatedMeshSceneNode24addShadowVolumeSceneNodeEPKNS0_5IMeshEibf @3684
    _ZN3irr5scene22CAnimatedMeshSceneNode5cloneEPNS0_10ISceneNodeEPNS0_13ISceneManagerE @3685
    _ZN3irr5scene22CAnimatedMeshSceneNode6renderEv @3686
    _ZN3irr5scene22CAnimatedMeshSceneNode7getMeshEv @3687
    _ZN3irr5scene22CAnimatedMeshSceneNode7setMeshEPNS0_13IAnimatedMeshE @3688
    _ZN3irr5scene22CAnimatedMeshSceneNode9OnAnimateEj @3689
    _ZN3irr5scene22CAnimatedMeshSceneNodeC1EPNS0_13IAnimatedMeshEPNS0_10ISceneNodeEPNS0_13ISceneManagerEiRKNS_4core8vector3dIfEESC_SC_ @3690
    _ZN3irr5scene22CAnimatedMeshSceneNodeC2EPNS0_13IAnimatedMeshEPNS0_10ISceneNodeEPNS0_13ISceneManagerEiRKNS_4core8vector3dIfEESC_SC_ @3691
    _ZN3irr5scene22CAnimatedMeshSceneNodeD0Ev @3692
    _ZN3irr5scene22CAnimatedMeshSceneNodeD1Ev @3693
    _ZN3irr5scene22CAnimatedMeshSceneNodeD2Ev @3694
    _ZN3irr5scene22CParticleScaleAffector21deserializeAttributesEPNS_2io11IAttributesEPNS2_26SAttributeReadWriteOptionsE @3695
    _ZN3irr5scene22CParticleScaleAffector6affectEjPNS0_9SParticleEj @3696
    _ZN3irr5scene22CParticleScaleAffectorC1ERKNS_4core11dimension2dIfEE @3697
    _ZN3irr5scene22CParticleScaleAffectorC2ERKNS_4core11dimension2dIfEE @3698
    _ZN3irr5scene22CParticleScaleAffectorD0Ev @3699
    _ZN3irr5scene22CParticleScaleAffectorD1Ev @3700
    _ZN3irr5scene22CParticleSphereEmitter12setDirectionERKNS_4core8vector3dIfEE @3701
    _ZN3irr5scene22CParticleSphereEmitter15setMaxStartSizeERKNS_4core11dimension2dIfEE @3702
    _ZN3irr5scene22CParticleSphereEmitter15setMinStartSizeERKNS_4core11dimension2dIfEE @3703
    _ZN3irr5scene22CParticleSphereEmitter16setMaxStartColorERKNS_5video6SColorE @3704
    _ZN3irr5scene22CParticleSphereEmitter16setMinStartColorERKNS_5video6SColorE @3705
    _ZN3irr5scene22CParticleSphereEmitter21deserializeAttributesEPNS_2io11IAttributesEPNS2_26SAttributeReadWriteOptionsE @3706
    _ZN3irr5scene22CParticleSphereEmitter24setMaxParticlesPerSecondEj @3707
    _ZN3irr5scene22CParticleSphereEmitter24setMinParticlesPerSecondEj @3708
    _ZN3irr5scene22CParticleSphereEmitter5emittEjjRPNS0_9SParticleE @3709
    _ZN3irr5scene22CParticleSphereEmitter9setCenterERKNS_4core8vector3dIfEE @3710
    _ZN3irr5scene22CParticleSphereEmitter9setRadiusEf @3711
    _ZN3irr5scene22CParticleSphereEmitterC1ERKNS_4core8vector3dIfEEfS6_jjRKNS_5video6SColorESA_jjiRKNS2_11dimension2dIfEESE_ @3712
    _ZN3irr5scene22CParticleSphereEmitterC2ERKNS_4core8vector3dIfEEfS6_jjRKNS_5video6SColorESA_jjiRKNS2_11dimension2dIfEESE_ @3713
    _ZN3irr5scene22CParticleSphereEmitterD0Ev @3714
    _ZN3irr5scene22CParticleSphereEmitterD1Ev @3715
    _ZN3irr5scene22CQuake3ShaderSceneNode10SQ3TextureD1Ev @3716
    _ZN3irr5scene22CQuake3ShaderSceneNode11cloneBufferEPNS0_11CMeshBufferINS_5video9S3DVertexEEEPKNS2_INS3_17S3DVertex2TCoordsEEEb @3717
    _ZN3irr5scene22CQuake3ShaderSceneNode11getMaterialEj @3718
    _ZN3irr5scene22CQuake3ShaderSceneNode12loadTexturesEPNS_2io11IFileSystemE @3719
    _ZN3irr5scene22CQuake3ShaderSceneNode19OnRegisterSceneNodeEv @3720
    _ZN3irr5scene22CQuake3ShaderSceneNode19deformvertexes_moveEfRNS0_6quake317SModifierFunctionE @3721
    _ZN3irr5scene22CQuake3ShaderSceneNode19deformvertexes_waveEfRNS0_6quake317SModifierFunctionE @3722
    _ZN3irr5scene22CQuake3ShaderSceneNode20deformvertexes_bulgeEfRNS0_6quake317SModifierFunctionE @3723
    _ZN3irr5scene22CQuake3ShaderSceneNode20setReadOnlyMaterialsEb @3724
    _ZN3irr5scene22CQuake3ShaderSceneNode21deformvertexes_normalEfRNS0_6quake317SModifierFunctionE @3725
    _ZN3irr5scene22CQuake3ShaderSceneNode21vertextransform_tcgenEfRNS0_6quake317SModifierFunctionE @3726
    _ZN3irr5scene22CQuake3ShaderSceneNode22vertextransform_rgbgenEfRNS0_6quake317SModifierFunctionE @3727
    _ZN3irr5scene22CQuake3ShaderSceneNode24vertextransform_alphagenEfRNS0_6quake317SModifierFunctionE @3728
    _ZN3irr5scene22CQuake3ShaderSceneNode25deformvertexes_autospriteEfRNS0_6quake317SModifierFunctionE @3729
    _ZN3irr5scene22CQuake3ShaderSceneNode26deformvertexes_autosprite2EfRNS0_6quake317SModifierFunctionE @3730
    _ZN3irr5scene22CQuake3ShaderSceneNode6renderEv @3731
    _ZN3irr5scene22CQuake3ShaderSceneNode7animateEjRNS_4core8CMatrix4IfEE @3732
    _ZN3irr5scene22CQuake3ShaderSceneNode7getMeshEv @3733
    _ZN3irr5scene22CQuake3ShaderSceneNode7setMeshEPNS0_5IMeshE @3734
    _ZN3irr5scene22CQuake3ShaderSceneNode9OnAnimateEj @3735
    _ZN3irr5scene22CQuake3ShaderSceneNodeC1EPNS0_10ISceneNodeEPNS0_13ISceneManagerEiPNS_2io11IFileSystemEPKNS0_11IMeshBufferEPKNS0_6quake37IShaderE @3736
    _ZN3irr5scene22CQuake3ShaderSceneNodeC2EPNS0_10ISceneNodeEPNS0_13ISceneManagerEiPNS_2io11IFileSystemEPKNS0_11IMeshBufferEPKNS0_6quake37IShaderE @3737
    _ZN3irr5scene22CQuake3ShaderSceneNodeD0Ev @3738
    _ZN3irr5scene22CQuake3ShaderSceneNodeD1Ev @3739
    _ZN3irr5scene22CQuake3ShaderSceneNodeD2Ev @3740
    _ZN3irr5scene22CSceneCollisionManager13getLowestRootEffffPf @3741
    _ZN3irr5scene22CSceneCollisionManager15getPickedNodeBBEPNS0_10ISceneNodeERNS_4core6line3dIfEEibRfRS3_ @3742
    _ZN3irr5scene22CSceneCollisionManager16collideWithWorldEiRNS1_14SCollisionDataENS_4core8vector3dIfEES6_ @3743
    _ZN3irr5scene22CSceneCollisionManager17getCollisionPointERKNS_4core6line3dIfEEPNS0_17ITriangleSelectorERNS2_8vector3dIfEERNS2_10triangle3dIfEERPKNS0_10ISceneNodeE @3744
    _ZN3irr5scene22CSceneCollisionManager21getSceneNodeFromRayBBERKNS_4core6line3dIfEEibPNS0_10ISceneNodeE @3745
    _ZN3irr5scene22CSceneCollisionManager24getSceneNodeFromCameraBBEPNS0_16ICameraSceneNodeEib @3746
    _ZN3irr5scene22CSceneCollisionManager24testTriangleIntersectionEPNS1_14SCollisionDataERKNS_4core10triangle3dIfEE @3747
    _ZN3irr5scene22CSceneCollisionManager25collideEllipsoidWithWorldEPNS0_17ITriangleSelectorERKNS_4core8vector3dIfEES8_S8_fS8_RNS4_10triangle3dIfEERS6_RbRPKNS0_10ISceneNodeE @3748
    _ZN3irr5scene22CSceneCollisionManager26getCollisionResultPositionEPNS0_17ITriangleSelectorERKNS_4core8vector3dIfEES8_S8_RNS4_10triangle3dIfEERS6_RbRPKNS0_10ISceneNodeEfS8_ @3749
    _ZN3irr5scene22CSceneCollisionManager27getRayFromScreenCoordinatesERKNS_4core8vector2dIiEEPNS0_16ICameraSceneNodeE @3750
    _ZN3irr5scene22CSceneCollisionManager30getPickedNodeFromBBAndSelectorEPNS0_10ISceneNodeERNS_4core6line3dIfEEibRfRS3_RNS4_8vector3dIfEERNS4_10triangle3dIfEE @3751
    _ZN3irr5scene22CSceneCollisionManager34getScreenCoordinatesFrom3DPositionERKNS_4core8vector3dIfEEPNS0_16ICameraSceneNodeE @3752
    _ZN3irr5scene22CSceneCollisionManager35getSceneNodeFromScreenCoordinatesBBERKNS_4core8vector2dIiEEibPNS0_10ISceneNodeE @3753
    _ZN3irr5scene22CSceneCollisionManager36getSceneNodeAndCollisionPointFromRayENS_4core6line3dIfEERNS2_8vector3dIfEERNS2_10triangle3dIfEEiPNS0_10ISceneNodeEb @3754
    _ZN3irr5scene22CSceneCollisionManagerC1EPNS0_13ISceneManagerEPNS_5video12IVideoDriverE @3755
    _ZN3irr5scene22CSceneCollisionManagerC2EPNS0_13ISceneManagerEPNS_5video12IVideoDriverE @3756
    _ZN3irr5scene22CSceneCollisionManagerD0Ev @3757
    _ZN3irr5scene22CSceneCollisionManagerD1Ev @3758
    _ZN3irr5scene22CSceneCollisionManagerD2Ev @3759
    _ZN3irr5scene22CShadowVolumeSceneNode13setShadowMeshEPKNS0_5IMeshE @3760
    _ZN3irr5scene22CShadowVolumeSceneNode17createZFailVolumeEiRjRKNS_4core8vector3dIfEEPNS1_13SShadowVolumeE @3761
    _ZN3irr5scene22CShadowVolumeSceneNode17createZPassVolumeEiRjNS_4core8vector3dIfEEPNS1_13SShadowVolumeEb @3762
    _ZN3irr5scene22CShadowVolumeSceneNode18calculateAdjacencyEf @3763
    _ZN3irr5scene22CShadowVolumeSceneNode18createShadowVolumeERKNS_4core8vector3dIfEE @3764
    _ZN3irr5scene22CShadowVolumeSceneNode19OnRegisterSceneNodeEv @3765
    _ZN3irr5scene22CShadowVolumeSceneNode19updateShadowVolumesEv @3766
    _ZN3irr5scene22CShadowVolumeSceneNode6renderEv @3767
    _ZN3irr5scene22CShadowVolumeSceneNodeC1EPKNS0_5IMeshEPNS0_10ISceneNodeEPNS0_13ISceneManagerEibf @3768
    _ZN3irr5scene22CShadowVolumeSceneNodeC2EPKNS0_5IMeshEPNS0_10ISceneNodeEPNS0_13ISceneManagerEibf @3769
    _ZN3irr5scene22CShadowVolumeSceneNodeD0Ev @3770
    _ZN3irr5scene22CShadowVolumeSceneNodeD1Ev @3771
    _ZN3irr5scene22CShadowVolumeSceneNodeD2Ev @3772
    _ZN3irr5scene22CWaterSurfaceSceneNode19OnRegisterSceneNodeEv @3773
    _ZN3irr5scene22CWaterSurfaceSceneNode21deserializeAttributesEPNS_2io11IAttributesEPNS2_26SAttributeReadWriteOptionsE @3774
    _ZN3irr5scene22CWaterSurfaceSceneNode7setMeshEPNS0_5IMeshE @3775
    _ZN3irr5scene22CWaterSurfaceSceneNode9OnAnimateEj @3776
    _ZN3irr5scene22CWaterSurfaceSceneNodeC1EfffPNS0_5IMeshEPNS0_10ISceneNodeEPNS0_13ISceneManagerEiRKNS_4core8vector3dIfEESC_SC_ @3777
    _ZN3irr5scene22CWaterSurfaceSceneNodeC2EfffPNS0_5IMeshEPNS0_10ISceneNodeEPNS0_13ISceneManagerEiRKNS_4core8vector3dIfEESC_SC_ @3778
    _ZN3irr5scene22CWaterSurfaceSceneNodeD0Ev @3779
    _ZN3irr5scene22CWaterSurfaceSceneNodeD1Ev @3780
    _ZN3irr5scene22CWaterSurfaceSceneNodeD2Ev @3781
    _ZN3irr5scene22IAnimatedMeshSceneNodeC2EPNS0_10ISceneNodeEPNS0_13ISceneManagerEiRKNS_4core8vector3dIfEESA_SA_ @3782
    _ZN3irr5scene22IAnimatedMeshSceneNodeD0Ev @3783
    _ZN3irr5scene22IAnimatedMeshSceneNodeD1Ev @3784
    _ZN3irr5scene22IAnimatedMeshSceneNodeD2Ev @3785
    _ZN3irr5scene22IParticleSphereEmitterD0Ev @3786
    _ZN3irr5scene22IParticleSphereEmitterD1Ev @3787
    _ZN3irr5scene22ISceneCollisionManagerD0Ev @3788
    _ZN3irr5scene22ISceneCollisionManagerD1Ev @3789
    _ZN3irr5scene22IShadowVolumeSceneNodeD0Ev @3790
    _ZN3irr5scene22IShadowVolumeSceneNodeD1Ev @3791
    _ZN3irr5scene22IShadowVolumeSceneNodeD2Ev @3792
    _ZN3irr5scene23CBillboardTextSceneNode11getMaterialEj @3793
    _ZN3irr5scene23CBillboardTextSceneNode12setTextColorENS_5video6SColorE @3794
    _ZN3irr5scene23CBillboardTextSceneNode19OnRegisterSceneNodeEv @3795
    _ZN3irr5scene23CBillboardTextSceneNode6renderEv @3796
    _ZN3irr5scene23CBillboardTextSceneNode7setSizeERKNS_4core11dimension2dIfEE @3797
    _ZN3irr5scene23CBillboardTextSceneNode7setTextEPKw @3798
    _ZN3irr5scene23CBillboardTextSceneNode8setColorERKNS_5video6SColorE @3799
    _ZN3irr5scene23CBillboardTextSceneNode8setColorERKNS_5video6SColorES5_ @3800
    _ZN3irr5scene23CBillboardTextSceneNodeC1EPNS0_10ISceneNodeEPNS0_13ISceneManagerEiPNS_3gui8IGUIFontEPKwRKNS_4core8vector3dIfEERKNSB_11dimension2dIfEENS_5video6SColorESL_ @3801
    _ZN3irr5scene23CBillboardTextSceneNodeC2EPNS0_10ISceneNodeEPNS0_13ISceneManagerEiPNS_3gui8IGUIFontEPKwRKNS_4core8vector3dIfEERKNSB_11dimension2dIfEENS_5video6SColorESL_ @3802
    _ZN3irr5scene23CBillboardTextSceneNodeD0Ev @3803
    _ZN3irr5scene23CBillboardTextSceneNodeD1Ev @3804
    _ZN3irr5scene23CBillboardTextSceneNodeD2Ev @3805
    _ZN3irr5scene23COctreeTriangleSelector11SOctreeNodeD1Ev @3806
    _ZN3irr5scene23COctreeTriangleSelector15constructOctreeEPNS1_11SOctreeNodeE @3807
    _ZN3irr5scene23COctreeTriangleSelectorC1EPKNS0_5IMeshEPKNS0_10ISceneNodeEi @3808
    _ZN3irr5scene23COctreeTriangleSelectorC2EPKNS0_5IMeshEPKNS0_10ISceneNodeEi @3809
    _ZN3irr5scene23COctreeTriangleSelectorD0Ev @3810
    _ZN3irr5scene23COctreeTriangleSelectorD1Ev @3811
    _ZN3irr5scene23COctreeTriangleSelectorD2Ev @3812
    _ZN3irr5scene23IBillboardTextSceneNodeD0Ev @3813
    _ZN3irr5scene23IBillboardTextSceneNodeD1Ev @3814
    _ZN3irr5scene23IBillboardTextSceneNodeD2Ev @3815
    _ZN3irr5scene24CDefaultSceneNodeFactory12addSceneNodeENS0_16ESCENE_NODE_TYPEEPNS0_10ISceneNodeE @3816
    _ZN3irr5scene24CDefaultSceneNodeFactory12addSceneNodeEPKcPNS0_10ISceneNodeE @3817
    _ZN3irr5scene24CDefaultSceneNodeFactoryC1EPNS0_13ISceneManagerE @3818
    _ZN3irr5scene24CDefaultSceneNodeFactoryC2EPNS0_13ISceneManagerE @3819
    _ZN3irr5scene24CDefaultSceneNodeFactoryD0Ev @3820
    _ZN3irr5scene24CDefaultSceneNodeFactoryD1Ev @3821
    _ZN3irr5scene24CParticleCylinderEmitter12setDirectionERKNS_4core8vector3dIfEE @3822
    _ZN3irr5scene24CParticleCylinderEmitter14setOutlineOnlyEb @3823
    _ZN3irr5scene24CParticleCylinderEmitter15setMaxStartSizeERKNS_4core11dimension2dIfEE @3824
    _ZN3irr5scene24CParticleCylinderEmitter15setMinStartSizeERKNS_4core11dimension2dIfEE @3825
    _ZN3irr5scene24CParticleCylinderEmitter16setMaxStartColorERKNS_5video6SColorE @3826
    _ZN3irr5scene24CParticleCylinderEmitter16setMinStartColorERKNS_5video6SColorE @3827
    _ZN3irr5scene24CParticleCylinderEmitter21deserializeAttributesEPNS_2io11IAttributesEPNS2_26SAttributeReadWriteOptionsE @3828
    _ZN3irr5scene24CParticleCylinderEmitter24setMaxParticlesPerSecondEj @3829
    _ZN3irr5scene24CParticleCylinderEmitter24setMinParticlesPerSecondEj @3830
    _ZN3irr5scene24CParticleCylinderEmitter5emittEjjRPNS0_9SParticleE @3831
    _ZN3irr5scene24CParticleCylinderEmitter9setCenterERKNS_4core8vector3dIfEE @3832
    _ZN3irr5scene24CParticleCylinderEmitter9setLengthEf @3833
    _ZN3irr5scene24CParticleCylinderEmitter9setNormalERKNS_4core8vector3dIfEE @3834
    _ZN3irr5scene24CParticleCylinderEmitter9setRadiusEf @3835
    _ZN3irr5scene24CParticleCylinderEmitterC1ERKNS_4core8vector3dIfEEfS6_fbS6_jjRKNS_5video6SColorESA_jjiRKNS2_11dimension2dIfEESE_ @3836
    _ZN3irr5scene24CParticleCylinderEmitterC2ERKNS_4core8vector3dIfEEfS6_fbS6_jjRKNS_5video6SColorESA_jjiRKNS2_11dimension2dIfEESE_ @3837
    _ZN3irr5scene24CParticleCylinderEmitterD0Ev @3838
    _ZN3irr5scene24CParticleCylinderEmitterD1Ev @3839
    _ZN3irr5scene24CParticleFadeOutAffector14setFadeOutTimeEf @3840
    _ZN3irr5scene24CParticleFadeOutAffector14setTargetColorERKNS_5video6SColorE @3841
    _ZN3irr5scene24CParticleFadeOutAffector21deserializeAttributesEPNS_2io11IAttributesEPNS2_26SAttributeReadWriteOptionsE @3842
    _ZN3irr5scene24CParticleFadeOutAffector6affectEjPNS0_9SParticleEj @3843
    _ZN3irr5scene24CParticleFadeOutAffectorC1ERKNS_5video6SColorEj @3844
    _ZN3irr5scene24CParticleFadeOutAffectorC2ERKNS_5video6SColorEj @3845
    _ZN3irr5scene24CParticleFadeOutAffectorD0Ev @3846
    _ZN3irr5scene24CParticleFadeOutAffectorD1Ev @3847
    _ZN3irr5scene24CParticleGravityAffector10setGravityERKNS_4core8vector3dIfEE @3848
    _ZN3irr5scene24CParticleGravityAffector16setTimeForceLostEf @3849
    _ZN3irr5scene24CParticleGravityAffector21deserializeAttributesEPNS_2io11IAttributesEPNS2_26SAttributeReadWriteOptionsE @3850
    _ZN3irr5scene24CParticleGravityAffector6affectEjPNS0_9SParticleEj @3851
    _ZN3irr5scene24CParticleGravityAffectorC1ERKNS_4core8vector3dIfEEj @3852
    _ZN3irr5scene24CParticleGravityAffectorC2ERKNS_4core8vector3dIfEEj @3853
    _ZN3irr5scene24CParticleGravityAffectorD0Ev @3854
    _ZN3irr5scene24CParticleGravityAffectorD1Ev @3855
    _ZN3irr5scene24CParticleSystemSceneNode10getEmitterEv @3856
    _ZN3irr5scene24CParticleSystemSceneNode10setEmitterEPNS0_16IParticleEmitterE @3857
    _ZN3irr5scene24CParticleSystemSceneNode11addAffectorEPNS0_17IParticleAffectorE @3858
    _ZN3irr5scene24CParticleSystemSceneNode11getMaterialEj @3859
    _ZN3irr5scene24CParticleSystemSceneNode15setParticleSizeERKNS_4core11dimension2dIfEE @3860
    _ZN3irr5scene24CParticleSystemSceneNode16createBoxEmitterERKNS_4core8aabbox3dIfEERKNS2_8vector3dIfEEjjRKNS_5video6SColorESE_jjiRKNS2_11dimension2dIfEESI_ @3861
    _ZN3irr5scene24CParticleSystemSceneNode16doParticleSystemEj @3862
    _ZN3irr5scene24CParticleSystemSceneNode17createMeshEmitterEPNS0_5IMeshEbRKNS_4core8vector3dIfEEfibjjRKNS_5video6SColorESC_jjiRKNS4_11dimension2dIfEESG_ @3863
    _ZN3irr5scene24CParticleSystemSceneNode17createRingEmitterERKNS_4core8vector3dIfEEffS6_jjRKNS_5video6SColorESA_jjiRKNS2_11dimension2dIfEESE_ @3864
    _ZN3irr5scene24CParticleSystemSceneNode17reallocateBuffersEv @3865
    _ZN3irr5scene24CParticleSystemSceneNode18createPointEmitterERKNS_4core8vector3dIfEEjjRKNS_5video6SColorESA_jjiRKNS2_11dimension2dIfEESE_ @3866
    _ZN3irr5scene24CParticleSystemSceneNode18removeAllAffectorsEv @3867
    _ZN3irr5scene24CParticleSystemSceneNode19OnRegisterSceneNodeEv @3868
    _ZN3irr5scene24CParticleSystemSceneNode19createSphereEmitterERKNS_4core8vector3dIfEEfS6_jjRKNS_5video6SColorESA_jjiRKNS2_11dimension2dIfEESE_ @3869
    _ZN3irr5scene24CParticleSystemSceneNode21createCylinderEmitterERKNS_4core8vector3dIfEEfS6_fbS6_jjRKNS_5video6SColorESA_jjiRKNS2_11dimension2dIfEESE_ @3870
    _ZN3irr5scene24CParticleSystemSceneNode21createGravityAffectorERKNS_4core8vector3dIfEEj @3871
    _ZN3irr5scene24CParticleSystemSceneNode21deserializeAttributesEPNS_2io11IAttributesEPNS2_26SAttributeReadWriteOptionsE @3872
    _ZN3irr5scene24CParticleSystemSceneNode21setParticlesAreGlobalEb @3873
    _ZN3irr5scene24CParticleSystemSceneNode22createRotationAffectorERKNS_4core8vector3dIfEES6_ @3874
    _ZN3irr5scene24CParticleSystemSceneNode24createAttractionAffectorERKNS_4core8vector3dIfEEfbbbb @3875
    _ZN3irr5scene24CParticleSystemSceneNode27createScaleParticleAffectorERKNS_4core11dimension2dIfEE @3876
    _ZN3irr5scene24CParticleSystemSceneNode29createFadeOutParticleAffectorERKNS_5video6SColorEj @3877
    _ZN3irr5scene24CParticleSystemSceneNode34createAnimatedMeshSceneNodeEmitterEPNS0_22IAnimatedMeshSceneNodeEbRKNS_4core8vector3dIfEEfibjjRKNS_5video6SColorESC_jjiRKNS4_11dimension2dIfEESG_ @3878
    _ZN3irr5scene24CParticleSystemSceneNode6renderEv @3879
    _ZN3irr5scene24CParticleSystemSceneNodeC1EbPNS0_10ISceneNodeEPNS0_13ISceneManagerEiRKNS_4core8vector3dIfEESA_SA_ @3880
    _ZN3irr5scene24CParticleSystemSceneNodeC2EbPNS0_10ISceneNodeEPNS0_13ISceneManagerEiRKNS_4core8vector3dIfEESA_SA_ @3881
    _ZN3irr5scene24CParticleSystemSceneNodeD0Ev @3882
    _ZN3irr5scene24CParticleSystemSceneNodeD1Ev @3883
    _ZN3irr5scene24CParticleSystemSceneNodeD2Ev @3884
    _ZN3irr5scene24CSceneNodeAnimatorDelete11animateNodeEPNS0_10ISceneNodeEj @3885
    _ZN3irr5scene24CSceneNodeAnimatorDelete11createCloneEPNS0_10ISceneNodeEPNS0_13ISceneManagerE @3886
    _ZN3irr5scene24CSceneNodeAnimatorDeleteC1EPNS0_13ISceneManagerEj @3887
    _ZN3irr5scene24CSceneNodeAnimatorDeleteC2EPNS0_13ISceneManagerEj @3888
    _ZN3irr5scene24CSceneNodeAnimatorDeleteD0Ev @3889
    _ZN3irr5scene24CSceneNodeAnimatorDeleteD1Ev @3890
    _ZN3irr5scene24CTerrainTriangleSelector15setTriangleDataEPNS0_17ITerrainSceneNodeEi @3891
    _ZN3irr5scene24CTerrainTriangleSelector25SGeoMipMapTrianglePatchesD1Ev @3892
    _ZN3irr5scene24CTerrainTriangleSelectorC1EPNS0_17ITerrainSceneNodeEi @3893
    _ZN3irr5scene24CTerrainTriangleSelectorC2EPNS0_17ITerrainSceneNodeEi @3894
    _ZN3irr5scene24CTerrainTriangleSelectorD0Ev @3895
    _ZN3irr5scene24CTerrainTriangleSelectorD1Ev @3896
    _ZN3irr5scene24CTerrainTriangleSelectorD2Ev @3897
    _ZN3irr5scene24IParticleCylinderEmitterD0Ev @3898
    _ZN3irr5scene24IParticleCylinderEmitterD1Ev @3899
    _ZN3irr5scene24IParticleFadeOutAffectorD0Ev @3900
    _ZN3irr5scene24IParticleFadeOutAffectorD1Ev @3901
    _ZN3irr5scene24IParticleGravityAffectorD0Ev @3902
    _ZN3irr5scene24IParticleGravityAffectorD1Ev @3903
    _ZN3irr5scene24IParticleSystemSceneNodeD0Ev @3904
    _ZN3irr5scene24IParticleSystemSceneNodeD1Ev @3905
    _ZN3irr5scene24IParticleSystemSceneNodeD2Ev @3906
    _ZN3irr5scene25CParticleRotationAffector13setPivotPointERKNS_4core8vector3dIfEE @3907
    _ZN3irr5scene25CParticleRotationAffector21deserializeAttributesEPNS_2io11IAttributesEPNS2_26SAttributeReadWriteOptionsE @3908
    _ZN3irr5scene25CParticleRotationAffector6affectEjPNS0_9SParticleEj @3909
    _ZN3irr5scene25CParticleRotationAffector8setSpeedERKNS_4core8vector3dIfEE @3910
    _ZN3irr5scene25CParticleRotationAffectorC1ERKNS_4core8vector3dIfEES6_ @3911
    _ZN3irr5scene25CParticleRotationAffectorC2ERKNS_4core8vector3dIfEES6_ @3912
    _ZN3irr5scene25CParticleRotationAffectorD0Ev @3913
    _ZN3irr5scene25CParticleRotationAffectorD1Ev @3914
    _ZN3irr5scene25CSceneNodeAnimatorTexture11animateNodeEPNS0_10ISceneNodeEj @3915
    _ZN3irr5scene25CSceneNodeAnimatorTexture11createCloneEPNS0_10ISceneNodeEPNS0_13ISceneManagerE @3916
    _ZN3irr5scene25CSceneNodeAnimatorTexture13clearTexturesEv @3917
    _ZN3irr5scene25CSceneNodeAnimatorTexture21deserializeAttributesEPNS_2io11IAttributesEPNS2_26SAttributeReadWriteOptionsE @3918
    _ZN3irr5scene25CSceneNodeAnimatorTextureC1ERKNS_4core5arrayIPNS_5video8ITextureENS2_12irrAllocatorIS6_EEEEibj @3919
    _ZN3irr5scene25CSceneNodeAnimatorTextureC2ERKNS_4core5arrayIPNS_5video8ITextureENS2_12irrAllocatorIS6_EEEEibj @3920
    _ZN3irr5scene25CSceneNodeAnimatorTextureD0Ev @3921
    _ZN3irr5scene25CSceneNodeAnimatorTextureD1Ev @3922
    _ZN3irr5scene25CSceneNodeAnimatorTextureD2Ev @3923
    _ZN3irr5scene25IParticleRotationAffectorD0Ev @3924
    _ZN3irr5scene25IParticleRotationAffectorD1Ev @3925
    _ZN3irr5scene25ISceneNodeAnimatorFactoryD0Ev @3926
    _ZN3irr5scene25ISceneNodeAnimatorFactoryD1Ev @3927
    _ZN3irr5scene26CSceneNodeAnimatorRotation11animateNodeEPNS0_10ISceneNodeEj @3928
    _ZN3irr5scene26CSceneNodeAnimatorRotation11createCloneEPNS0_10ISceneNodeEPNS0_13ISceneManagerE @3929
    _ZN3irr5scene26CSceneNodeAnimatorRotation21deserializeAttributesEPNS_2io11IAttributesEPNS2_26SAttributeReadWriteOptionsE @3930
    _ZN3irr5scene26CSceneNodeAnimatorRotationC1EjRKNS_4core8vector3dIfEE @3931
    _ZN3irr5scene26CSceneNodeAnimatorRotationC2EjRKNS_4core8vector3dIfEE @3932
    _ZN3irr5scene26CSceneNodeAnimatorRotationD0Ev @3933
    _ZN3irr5scene26CSceneNodeAnimatorRotationD1Ev @3934
    _ZN3irr5scene27CParticleAttractionAffector10setAffectXEb @3935
    _ZN3irr5scene27CParticleAttractionAffector10setAffectYEb @3936
    _ZN3irr5scene27CParticleAttractionAffector10setAffectZEb @3937
    _ZN3irr5scene27CParticleAttractionAffector10setAttractEb @3938
    _ZN3irr5scene27CParticleAttractionAffector21deserializeAttributesEPNS_2io11IAttributesEPNS2_26SAttributeReadWriteOptionsE @3939
    _ZN3irr5scene27CParticleAttractionAffector6affectEjPNS0_9SParticleEj @3940
    _ZN3irr5scene27CParticleAttractionAffector8setPointERKNS_4core8vector3dIfEE @3941
    _ZN3irr5scene27CParticleAttractionAffector8setSpeedEf @3942
    _ZN3irr5scene27CParticleAttractionAffectorC1ERKNS_4core8vector3dIfEEfbbbb @3943
    _ZN3irr5scene27CParticleAttractionAffectorC2ERKNS_4core8vector3dIfEEfbbbb @3944
    _ZN3irr5scene27CParticleAttractionAffectorD0Ev @3945
    _ZN3irr5scene27CParticleAttractionAffectorD1Ev @3946
    _ZN3irr5scene27CSceneNodeAnimatorCameraFPS11animateNodeEPNS0_10ISceneNodeEj @3947
    _ZN3irr5scene27CSceneNodeAnimatorCameraFPS11createCloneEPNS0_10ISceneNodeEPNS0_13ISceneManagerE @3948
    _ZN3irr5scene27CSceneNodeAnimatorCameraFPS12setMoveSpeedEf @3949
    _ZN3irr5scene27CSceneNodeAnimatorCameraFPS14setInvertMouseEb @3950
    _ZN3irr5scene27CSceneNodeAnimatorCameraFPS14setRotateSpeedEf @3951
    _ZN3irr5scene27CSceneNodeAnimatorCameraFPS19setVerticalMovementEb @3952
    _ZN3irr5scene27CSceneNodeAnimatorCameraFPS7OnEventERKNS_6SEventE @3953
    _ZN3irr5scene27CSceneNodeAnimatorCameraFPS9allKeysUpEv @3954
    _ZN3irr5scene27CSceneNodeAnimatorCameraFPS9setKeyMapEPNS_7SKeyMapEj @3955
    _ZN3irr5scene27CSceneNodeAnimatorCameraFPS9setKeyMapERKNS_4core5arrayINS1_10SCamKeyMapENS2_12irrAllocatorIS4_EEEE @3956
    _ZN3irr5scene27CSceneNodeAnimatorCameraFPSC1EPNS_3gui14ICursorControlEfffPNS_7SKeyMapEjbb @3957
    _ZN3irr5scene27CSceneNodeAnimatorCameraFPSC2EPNS_3gui14ICursorControlEfffPNS_7SKeyMapEjbb @3958
    _ZN3irr5scene27CSceneNodeAnimatorCameraFPSD0Ev @3959
    _ZN3irr5scene27CSceneNodeAnimatorCameraFPSD1Ev @3960
    _ZN3irr5scene27CSceneNodeAnimatorCameraFPSD2Ev @3961
    _ZN3irr5scene27CSceneNodeAnimatorFlyCircle11animateNodeEPNS0_10ISceneNodeEj @3962
    _ZN3irr5scene27CSceneNodeAnimatorFlyCircle11createCloneEPNS0_10ISceneNodeEPNS0_13ISceneManagerE @3963
    _ZN3irr5scene27CSceneNodeAnimatorFlyCircle21deserializeAttributesEPNS_2io11IAttributesEPNS2_26SAttributeReadWriteOptionsE @3964
    _ZN3irr5scene27CSceneNodeAnimatorFlyCircle4initEv @3965
    _ZN3irr5scene27CSceneNodeAnimatorFlyCircleC1EjRKNS_4core8vector3dIfEEffS6_f @3966
    _ZN3irr5scene27CSceneNodeAnimatorFlyCircleC2EjRKNS_4core8vector3dIfEEffS6_f @3967
    _ZN3irr5scene27CSceneNodeAnimatorFlyCircleD0Ev @3968
    _ZN3irr5scene27CSceneNodeAnimatorFlyCircleD1Ev @3969
    _ZN3irr5scene27IParticleAttractionAffectorD0Ev @3970
    _ZN3irr5scene27IParticleAttractionAffectorD1Ev @3971
    _ZN3irr5scene27ISceneNodeAnimatorCameraFPSD0Ev @3972
    _ZN3irr5scene27ISceneNodeAnimatorCameraFPSD1Ev @3973
    _ZN3irr5scene27ISceneNodeAnimatorCameraFPSD2Ev @3974
    _ZN3irr5scene27ISceneNodeAnimatorFinishingD0Ev @3975
    _ZN3irr5scene27ISceneNodeAnimatorFinishingD1Ev @3976
    _ZN3irr5scene27ISceneNodeAnimatorFinishingD2Ev @3977
    _ZN3irr5scene28CSceneNodeAnimatorCameraMaya11animateNodeEPNS0_10ISceneNodeEj @3978
    _ZN3irr5scene28CSceneNodeAnimatorCameraMaya11createCloneEPNS0_10ISceneNodeEPNS0_13ISceneManagerE @3979
    _ZN3irr5scene28CSceneNodeAnimatorCameraMaya12setMoveSpeedEf @3980
    _ZN3irr5scene28CSceneNodeAnimatorCameraMaya12setZoomSpeedEf @3981
    _ZN3irr5scene28CSceneNodeAnimatorCameraMaya14isMouseKeyDownEi @3982
    _ZN3irr5scene28CSceneNodeAnimatorCameraMaya14setRotateSpeedEf @3983
    _ZN3irr5scene28CSceneNodeAnimatorCameraMaya7OnEventERKNS_6SEventE @3984
    _ZN3irr5scene28CSceneNodeAnimatorCameraMaya9allKeysUpEv @3985
    _ZN3irr5scene28CSceneNodeAnimatorCameraMayaC1EPNS_3gui14ICursorControlEfff @3986
    _ZN3irr5scene28CSceneNodeAnimatorCameraMayaC2EPNS_3gui14ICursorControlEfff @3987
    _ZN3irr5scene28CSceneNodeAnimatorCameraMayaD0Ev @3988
    _ZN3irr5scene28CSceneNodeAnimatorCameraMayaD1Ev @3989
    _ZN3irr5scene28CSceneNodeAnimatorCameraMayaD2Ev @3990
    _ZN3irr5scene28ISceneNodeAnimatorCameraMayaD0Ev @3991
    _ZN3irr5scene28ISceneNodeAnimatorCameraMayaD1Ev @3992
    _ZN3irr5scene28ISceneNodeAnimatorCameraMayaD2Ev @3993
    _ZN3irr5scene29CDummyTransformationSceneNode31getRelativeTransformationMatrixEv @3994
    _ZN3irr5scene29CDummyTransformationSceneNode6renderEv @3995
    _ZN3irr5scene29CDummyTransformationSceneNodeC1EPNS0_10ISceneNodeEPNS0_13ISceneManagerEi @3996
    _ZN3irr5scene29CDummyTransformationSceneNodeC2EPNS0_10ISceneNodeEPNS0_13ISceneManagerEi @3997
    _ZN3irr5scene29CDummyTransformationSceneNodeD0Ev @3998
    _ZN3irr5scene29CDummyTransformationSceneNodeD1Ev @3999
    _ZN3irr5scene29CSceneNodeAnimatorFlyStraight11animateNodeEPNS0_10ISceneNodeEj @4000
    _ZN3irr5scene29CSceneNodeAnimatorFlyStraight11createCloneEPNS0_10ISceneNodeEPNS0_13ISceneManagerE @4001
    _ZN3irr5scene29CSceneNodeAnimatorFlyStraight21deserializeAttributesEPNS_2io11IAttributesEPNS2_26SAttributeReadWriteOptionsE @4002
    _ZN3irr5scene29CSceneNodeAnimatorFlyStraight29recalculateIntermediateValuesEv @4003
    _ZN3irr5scene29CSceneNodeAnimatorFlyStraightC1ERKNS_4core8vector3dIfEES6_jbjb @4004
    _ZN3irr5scene29CSceneNodeAnimatorFlyStraightC2ERKNS_4core8vector3dIfEES6_jbjb @4005
    _ZN3irr5scene29CSceneNodeAnimatorFlyStraightD0Ev @4006
    _ZN3irr5scene29CSceneNodeAnimatorFlyStraightD1Ev @4007
    _ZN3irr5scene29IDummyTransformationSceneNodeD0Ev @4008
    _ZN3irr5scene29IDummyTransformationSceneNodeD1Ev @4009
    _ZN3irr5scene29IDummyTransformationSceneNodeD2Ev @4010
    _ZN3irr5scene30CSceneNodeAnimatorFollowSpline11animateNodeEPNS0_10ISceneNodeEj @4011
    _ZN3irr5scene30CSceneNodeAnimatorFollowSpline11createCloneEPNS0_10ISceneNodeEPNS0_13ISceneManagerE @4012
    _ZN3irr5scene30CSceneNodeAnimatorFollowSpline21deserializeAttributesEPNS_2io11IAttributesEPNS2_26SAttributeReadWriteOptionsE @4013
    _ZN3irr5scene30CSceneNodeAnimatorFollowSplineC1EjRKNS_4core5arrayINS2_8vector3dIfEENS2_12irrAllocatorIS5_EEEEffbb @4014
    _ZN3irr5scene30CSceneNodeAnimatorFollowSplineC2EjRKNS_4core5arrayINS2_8vector3dIfEENS2_12irrAllocatorIS5_EEEEffbb @4015
    _ZN3irr5scene30CSceneNodeAnimatorFollowSplineD0Ev @4016
    _ZN3irr5scene30CSceneNodeAnimatorFollowSplineD1Ev @4017
    _ZN3irr5scene32CDefaultSceneNodeAnimatorFactory23createSceneNodeAnimatorENS0_25ESCENE_NODE_ANIMATOR_TYPEEPNS0_10ISceneNodeE @4018
    _ZN3irr5scene32CDefaultSceneNodeAnimatorFactory23createSceneNodeAnimatorEPKcPNS0_10ISceneNodeE @4019
    _ZN3irr5scene32CDefaultSceneNodeAnimatorFactoryC1EPNS0_13ISceneManagerEPNS_3gui14ICursorControlE @4020
    _ZN3irr5scene32CDefaultSceneNodeAnimatorFactoryC2EPNS0_13ISceneManagerEPNS_3gui14ICursorControlE @4021
    _ZN3irr5scene32CDefaultSceneNodeAnimatorFactoryD0Ev @4022
    _ZN3irr5scene32CDefaultSceneNodeAnimatorFactoryD1Ev @4023
    _ZN3irr5scene32CDefaultSceneNodeAnimatorFactoryD2Ev @4024
    _ZN3irr5scene35CSceneNodeAnimatorCollisionResponse10setGravityERKNS_4core8vector3dIfEE @4025
    _ZN3irr5scene35CSceneNodeAnimatorCollisionResponse11animateNodeEPNS0_10ISceneNodeEj @4026
    _ZN3irr5scene35CSceneNodeAnimatorCollisionResponse11createCloneEPNS0_10ISceneNodeEPNS0_13ISceneManagerE @4027
    _ZN3irr5scene35CSceneNodeAnimatorCollisionResponse13setTargetNodeEPNS0_10ISceneNodeE @4028
    _ZN3irr5scene35CSceneNodeAnimatorCollisionResponse16setAnimateTargetEb @4029
    _ZN3irr5scene35CSceneNodeAnimatorCollisionResponse18setEllipsoidRadiusERKNS_4core8vector3dIfEE @4030
    _ZN3irr5scene35CSceneNodeAnimatorCollisionResponse20setCollisionCallbackEPNS0_18ICollisionCallbackE @4031
    _ZN3irr5scene35CSceneNodeAnimatorCollisionResponse21deserializeAttributesEPNS_2io11IAttributesEPNS2_26SAttributeReadWriteOptionsE @4032
    _ZN3irr5scene35CSceneNodeAnimatorCollisionResponse23setEllipsoidTranslationERKNS_4core8vector3dIfEE @4033
    _ZN3irr5scene35CSceneNodeAnimatorCollisionResponse4jumpEf @4034
    _ZN3irr5scene35CSceneNodeAnimatorCollisionResponse7setNodeEPNS0_10ISceneNodeE @4035
    _ZN3irr5scene35CSceneNodeAnimatorCollisionResponse8setWorldEPNS0_17ITriangleSelectorE @4036
    _ZN3irr5scene35CSceneNodeAnimatorCollisionResponseC1EPNS0_13ISceneManagerEPNS0_17ITriangleSelectorEPNS0_10ISceneNodeERKNS_4core8vector3dIfEESC_SC_f @4037
    _ZN3irr5scene35CSceneNodeAnimatorCollisionResponseC2EPNS0_13ISceneManagerEPNS0_17ITriangleSelectorEPNS0_10ISceneNodeERKNS_4core8vector3dIfEESC_SC_f @4038
    _ZN3irr5scene35CSceneNodeAnimatorCollisionResponseD0Ev @4039
    _ZN3irr5scene35CSceneNodeAnimatorCollisionResponseD1Ev @4040
    _ZN3irr5scene35CSceneNodeAnimatorCollisionResponseD2Ev @4041
    _ZN3irr5scene35ISceneNodeAnimatorCollisionResponseD0Ev @4042
    _ZN3irr5scene35ISceneNodeAnimatorCollisionResponseD1Ev @4043
    _ZN3irr5scene35ISceneNodeAnimatorCollisionResponseD2Ev @4044
    _ZN3irr5scene37CParticleAnimatedMeshSceneNodeEmitter12setDirectionERKNS_4core8vector3dIfEE @4045
    _ZN3irr5scene37CParticleAnimatedMeshSceneNodeEmitter15setMaxStartSizeERKNS_4core11dimension2dIfEE @4046
    _ZN3irr5scene37CParticleAnimatedMeshSceneNodeEmitter15setMinStartSizeERKNS_4core11dimension2dIfEE @4047
    _ZN3irr5scene37CParticleAnimatedMeshSceneNodeEmitter16setMaxStartColorERKNS_5video6SColorE @4048
    _ZN3irr5scene37CParticleAnimatedMeshSceneNodeEmitter16setMinStartColorERKNS_5video6SColorE @4049
    _ZN3irr5scene37CParticleAnimatedMeshSceneNodeEmitter18setEveryMeshVertexEb @4050
    _ZN3irr5scene37CParticleAnimatedMeshSceneNodeEmitter21setUseNormalDirectionEb @4051
    _ZN3irr5scene37CParticleAnimatedMeshSceneNodeEmitter24setAnimatedMeshSceneNodeEPNS0_22IAnimatedMeshSceneNodeE @4052
    _ZN3irr5scene37CParticleAnimatedMeshSceneNodeEmitter24setMaxParticlesPerSecondEj @4053
    _ZN3irr5scene37CParticleAnimatedMeshSceneNodeEmitter24setMinParticlesPerSecondEj @4054
    _ZN3irr5scene37CParticleAnimatedMeshSceneNodeEmitter26setNormalDirectionModifierEf @4055
    _ZN3irr5scene37CParticleAnimatedMeshSceneNodeEmitter5emittEjjRPNS0_9SParticleE @4056
    _ZN3irr5scene37CParticleAnimatedMeshSceneNodeEmitterC1EPNS0_22IAnimatedMeshSceneNodeEbRKNS_4core8vector3dIfEEfibjjRKNS_5video6SColorESC_jjiRKNS4_11dimension2dIfEESG_ @4057
    _ZN3irr5scene37CParticleAnimatedMeshSceneNodeEmitterC2EPNS0_22IAnimatedMeshSceneNodeEbRKNS_4core8vector3dIfEEfibjjRKNS_5video6SColorESC_jjiRKNS4_11dimension2dIfEESG_ @4058
    _ZN3irr5scene37CParticleAnimatedMeshSceneNodeEmitterD0Ev @4059
    _ZN3irr5scene37CParticleAnimatedMeshSceneNodeEmitterD1Ev @4060
    _ZN3irr5scene37IParticleAnimatedMeshSceneNodeEmitterD0Ev @4061
    _ZN3irr5scene37IParticleAnimatedMeshSceneNodeEmitterD1Ev @4062
    _ZN3irr5scene37IParticleAnimatedMeshSceneNodeEmitterD2Ev @4063
    _ZN3irr5scene4Mesh4loadEPNS0_16BinaryFileReaderEb @4064
    _ZN3irr5scene4Mesh5clearEv @4065
    _ZN3irr5scene5Group4loadEPNS0_16BinaryFileReaderE @4066
    _ZN3irr5scene5Group5clearEv @4067
    _ZN3irr5scene5IMeshD0Ev @4068
    _ZN3irr5scene5IMeshD1Ev @4069
    _ZN3irr5scene5SMesh13addMeshBufferEPNS0_11IMeshBufferE @4070
    _ZN3irr5scene5SMesh14setBoundingBoxERKNS_4core8aabbox3dIfEE @4071
    _ZN3irr5scene5SMesh15setMaterialFlagENS_5video15E_MATERIAL_FLAGEb @4072
    _ZN3irr5scene5SMesh22recalculateBoundingBoxEv @4073
    _ZN3irr5scene5SMesh22setHardwareMappingHintENS0_18E_HARDWARE_MAPPINGENS0_13E_BUFFER_TYPEE @4074
    _ZN3irr5scene5SMesh8setDirtyENS0_13E_BUFFER_TYPEE @4075
    _ZN3irr5scene5SMeshC1Ev @4076
    _ZN3irr5scene5SMeshD0Ev @4077
    _ZN3irr5scene5SMeshD1Ev @4078
    _ZN3irr5scene6Entity4loadEPNS0_16BinaryFileReaderE @4079
    _ZN3irr5scene6Entity5clearEv @4080
    _ZN3irr5scene6SGroupC1ERKS1_ @4081
    _ZN3irr5scene6SGroupD1Ev @4082
    _ZN3irr5scene6Vertex4loadEPNS0_16BinaryFileReaderE @4083
    _ZN3irr5scene6Vertex5clearEv @4084
    _ZN3irr5scene6quake310getAsFloatERKNS_4core6stringIcNS2_12irrAllocatorIcEEEERj @4085
    _ZN3irr5scene6quake311getTexturesERNS_4core5arrayIPNS_5video8ITextureENS2_12irrAllocatorIS6_EEEERKNS2_6stringIcNS7_IcEEEERjPNS_2io11IFileSystemEPNS4_12IVideoDriverE @4086
    _ZN3irr5scene6quake313SVarGroupListD0Ev @4087
    _ZN3irr5scene6quake313SVarGroupListD1Ev @4088
    _ZN3irr5scene6quake315getModifierFuncERNS1_17SModifierFunctionERKNS_4core6stringIcNS4_12irrAllocatorIcEEEERj @4089
    _ZN3irr5scene6quake316getDepthFunctionERKNS_4core6stringIcNS2_12irrAllocatorIcEEEE @4090
    _ZN3irr5scene6quake318getCullingFunctionERKNS_4core6stringIcNS2_12irrAllocatorIcEEEE @4091
    _ZN3irr5scene6quake36Noiser3getEv @4092
    _ZN3irr5scene6quake37IShaderD0Ev @4093
    _ZN3irr5scene6quake37IShaderD1Ev @4094
    _ZN3irr5scene6quake37isEqualERKNS_4core6stringIcNS2_12irrAllocatorIcEEEERjPPKct @4095
    _ZN3irr5scene6quake39SVarGroupD0Ev @4096
    _ZN3irr5scene6quake39SVarGroupD1Ev @4097
    _ZN3irr5scene6quake39SVariableC1ERKS2_ @4098
    _ZN3irr5scene6quake39SVariableD0Ev @4099
    _ZN3irr5scene6quake39SVariableD1Ev @4100
    _ZN3irr5scene7CPrefab11addInstanceEPNS0_10ISceneNodeEPNS0_13ISceneManagerE @4101
    _ZN3irr5scene7CPrefab5getIdEv @4102
    _ZN3irr5scene7CPrefabD0Ev @4103
    _ZN3irr5scene7CPrefabD1Ev @4104
    _ZN3irr5scene7CPrefabD2Ev @4105
    _ZN3irr5scene7CSMFile4loadEPNS0_16BinaryFileReaderE @4106
    _ZN3irr5scene7CSMFile5clearEv @4107
    _ZN3irr5scene7CSMFileD1Ev @4108
    _ZN3irr5scene7SSourceC1ERKS1_ @4109
    _ZN3irr5scene7SSourceD1Ev @4110
    _ZN3irr5scene7Surface4loadEPNS0_16BinaryFileReaderE @4111
    _ZN3irr5scene7Surface5clearEv @4112
    _ZN3irr5scene8LightMap4loadEPNS0_16BinaryFileReaderE @4113
    _ZN3irr5scene8LightMap5clearEv @4114
    _ZN3irr5scene8SMD3MeshD0Ev @4115
    _ZN3irr5scene8SMD3MeshD1Ev @4116
    _ZN3irr5scene8VisGroup4loadEPNS0_16BinaryFileReaderE @4117
    _ZN3irr5scene8VisGroup5clearEv @4118
    _ZN3irr5video10CTRGouraud23drawIndexedTriangleListEPNS0_9S2DVertexEiPKti @4119
    _ZN3irr5video10CTRGouraudD0Ev @4120
    _ZN3irr5video10CTRGouraudD1Ev @4121
    _ZN3irr5video11CD3D9Driver10beginSceneEbbNS0_6SColorERKNS0_17SExposedVideoDataEPNS_4core4rectIiEE @4122
    _ZN3irr5video11CD3D9Driver10draw2DLineERKNS_4core8vector2dIiEES6_NS0_6SColorE @4123
    _ZN3irr5video11CD3D9Driver10draw3DLineERKNS_4core8vector3dIfEES6_NS0_6SColorE @4124
    _ZN3irr5video11CD3D9Driver10initDriverERKNS_4core11dimension2dIjEEP6HWND__jbbbbh @4125
    _ZN3irr5video11CD3D9Driver11draw2DImageEPKNS0_8ITextureERKNS_4core4rectIiEES9_PS8_PKNS0_6SColorEb @4126
    _ZN3irr5video11CD3D9Driver11draw2DImageEPKNS0_8ITextureERKNS_4core8vector2dIiEERKNS5_4rectIiEEPSC_NS0_6SColorEb @4127
    _ZN3irr5video11CD3D9Driver11setMaterialERKNS0_9SMaterialE @4128
    _ZN3irr5video11CD3D9Driver11setViewPortERKNS_4core4rectIiEE @4129
    _ZN3irr5video11CD3D9Driver11turnLightOnEib @4130
    _ZN3irr5video11CD3D9Driver12clearZBufferEv @4131
    _ZN3irr5video11CD3D9Driver12setClipPlaneEjRKNS_4core7plane3dIfEEb @4132
    _ZN3irr5video11CD3D9Driver12setTransformENS0_22E_TRANSFORMATION_STATEERKNS_4core8CMatrix4IfEE @4133
    _ZN3irr5video11CD3D9Driver13getVendorInfoEv @4134
    _ZN3irr5video11CD3D9Driver14getVideoDriverEv @4135
    _ZN3irr5video11CD3D9Driver15addDynamicLightERKNS0_6SLightE @4136
    _ZN3irr5video11CD3D9Driver15draw2DRectangleERKNS_4core4rectIiEENS0_6SColorES7_S7_S7_PS5_ @4137
    _ZN3irr5video11CD3D9Driver15enableClipPlaneEjb @4138
    _ZN3irr5video11CD3D9Driver15setAmbientLightERKNS0_7SColorfE @4139
    _ZN3irr5video11CD3D9Driver15setRenderTargetEPNS0_8ITextureEbbNS0_6SColorE @4140
    _ZN3irr5video11CD3D9Driver15setRenderTargetERKNS_4core5arrayINS0_13IRenderTargetENS2_12irrAllocatorIS4_EEEEbbNS0_6SColorE @4141
    _ZN3irr5video11CD3D9Driver15setVertexShaderENS0_13E_VERTEX_TYPEE @4142
    _ZN3irr5video11CD3D9Driver16checkDepthBufferEPNS0_8ITextureE @4143
    _ZN3irr5video11CD3D9Driver16checkDriverResetEv @4144
    _ZN3irr5video11CD3D9Driver16createScreenShotEv @4145
    _ZN3irr5video11CD3D9Driver16draw2DImageBatchEPKNS0_8ITextureERKNS_4core5arrayINS5_8vector2dIiEENS5_12irrAllocatorIS8_EEEERKNS6_INS5_4rectIiEENS9_ISF_EEEEPKSF_NS0_6SColorEb @4146
    _ZN3irr5video11CD3D9Driver16enableMaterial2DEb @4147
    _ZN3irr5video11CD3D9Driver16setActiveTextureEjPKNS0_8ITextureE @4148
    _ZN3irr5video11CD3D9Driver17addShaderMaterialEPKcS3_PNS0_26IShaderConstantSetCallBackENS0_15E_MATERIAL_TYPEEi @4149
    _ZN3irr5video11CD3D9Driver17drawStencilShadowEbNS0_6SColorES2_S2_S2_ @4150
    _ZN3irr5video11CD3D9Driver18SHWBufferLink_d3d9D0Ev @4151
    _ZN3irr5video11CD3D9Driver18SHWBufferLink_d3d9D1Ev @4152
    _ZN3irr5video11CD3D9Driver18drawHardwareBufferEPNS0_11CNullDriver13SHWBufferLinkE @4153
    _ZN3irr5video11CD3D9Driver18getTextureWrapModeEh @4154
    _ZN3irr5video11CD3D9Driver18removeDepthSurfaceEPNS0_13SDepthSurfaceE @4155
    _ZN3irr5video11CD3D9Driver20createHardwareBufferEPKNS_5scene11IMeshBufferE @4156
    _ZN3irr5video11CD3D9Driver20deleteHardwareBufferEPNS0_11CNullDriver13SHWBufferLinkE @4157
    _ZN3irr5video11CD3D9Driver20setBasicRenderStatesERKNS0_9SMaterialES4_b @4158
    _ZN3irr5video11CD3D9Driver20updateHardwareBufferEPNS0_11CNullDriver13SHWBufferLinkE @4159
    _ZN3irr5video11CD3D9Driver21setRenderStates2DModeEbbb @4160
    _ZN3irr5video11CD3D9Driver21setRenderStates3DModeEv @4161
    _ZN3irr5video11CD3D9Driver22addRenderTargetTextureERKNS_4core11dimension2dIjEERKNS2_6stringIcNS2_12irrAllocatorIcEEEENS0_13ECOLOR_FORMATE @4162
    _ZN3irr5video11CD3D9Driver22deleteAllDynamicLightsEv @4163
    _ZN3irr5video11CD3D9Driver22setPixelShaderConstantEPKcPKfi @4164
    _ZN3irr5video11CD3D9Driver22setPixelShaderConstantEPKfii @4165
    _ZN3irr5video11CD3D9Driver22setTextureCreationFlagENS0_23E_TEXTURE_CREATION_FLAGEb @4166
    _ZN3irr5video11CD3D9Driver23createMaterialRenderersEv @4167
    _ZN3irr5video11CD3D9Driver23drawStencilShadowVolumeEPKNS_4core8vector3dIfEEib @4168
    _ZN3irr5video11CD3D9Driver23drawVertexPrimitiveListEPKvjS3_jNS0_13E_VERTEX_TYPEENS_5scene16E_PRIMITIVE_TYPEENS0_12E_INDEX_TYPEE @4169
    _ZN3irr5video11CD3D9Driver23setVertexShaderConstantEPKcPKfi @4170
    _ZN3irr5video11CD3D9Driver23setVertexShaderConstantEPKfii @4171
    _ZN3irr5video11CD3D9Driver25draw2DVertexPrimitiveListEPKvjS3_jNS0_13E_VERTEX_TYPEENS_5scene16E_PRIMITIVE_TYPEENS0_12E_INDEX_TYPEE @4172
    _ZN3irr5video11CD3D9Driver25updateIndexHardwareBufferEPNS1_18SHWBufferLink_d3d9E @4173
    _ZN3irr5video11CD3D9Driver26addHighLevelShaderMaterialEPKcS3_NS0_20E_VERTEX_SHADER_TYPEES3_S3_NS0_19E_PIXEL_SHADER_TYPEES3_S3_NS0_22E_GEOMETRY_SHADER_TYPEENS_5scene16E_PRIMITIVE_TYPEES8_jPNS0_26IShaderConstantSetCallBackENS0_15E_MATERIAL_TYPEEi @4174
    _ZN3irr5video11CD3D9Driver26updateVertexHardwareBufferEPNS1_18SHWBufferLink_d3d9E @4175
    _ZN3irr5video11CD3D9Driver27draw2D3DVertexPrimitiveListEPKvjS3_jNS0_13E_VERTEX_TYPEENS_5scene16E_PRIMITIVE_TYPEENS0_12E_INDEX_TYPEEb @4176
    _ZN3irr5video11CD3D9Driver28createDeviceDependentTextureEPNS0_6IImageERKNS_4core6stringIcNS4_12irrAllocatorIcEEEEPv @4177
    _ZN3irr5video11CD3D9Driver30setRenderStatesStencilFillModeEb @4178
    _ZN3irr5video11CD3D9Driver32setRenderStatesStencilShadowModeEb @4179
    _ZN3irr5video11CD3D9Driver5resetEv @4180
    _ZN3irr5video11CD3D9Driver6setFogENS0_6SColorENS0_10E_FOG_TYPEEfffbb @4181
    _ZN3irr5video11CD3D9Driver8OnResizeERKNS_4core11dimension2dIjEE @4182
    _ZN3irr5video11CD3D9Driver8endSceneEv @4183
    _ZN3irr5video11CD3D9Driver9drawPixelEjjRKNS0_6SColorE @4184
    _ZN3irr5video11CD3D9DriverC1ERKNS_4core11dimension2dIjEEP6HWND__bbPNS_2io11IFileSystemEb @4185
    _ZN3irr5video11CD3D9DriverC2ERKNS_4core11dimension2dIjEEP6HWND__bbPNS_2io11IFileSystemEb @4186
    _ZN3irr5video11CD3D9DriverD0Ev @4187
    _ZN3irr5video11CD3D9DriverD1Ev @4188
    _ZN3irr5video11CD3D9DriverD2Ev @4189
    _ZN3irr5video11CFPSCounter13registerFrameEjj @4190
    _ZN3irr5video11CFPSCounterC1Ev @4191
    _ZN3irr5video11CFPSCounterC2Ev @4192
    _ZN3irr5video11CNullDriver10addTextureEPNS0_8ITextureE @4193
    _ZN3irr5video11CNullDriver10addTextureERKNS_4core11dimension2dIjEERKNS2_6stringIcNS2_12irrAllocatorIcEEEENS0_13ECOLOR_FORMATE @4194
    _ZN3irr5video11CNullDriver10addTextureERKNS_4core6stringIcNS2_12irrAllocatorIcEEEEPNS0_6IImageEPv @4195
    _ZN3irr5video11CNullDriver10beginSceneEbbNS0_6SColorERKNS0_17SExposedVideoDataEPNS_4core4rectIiEE @4196
    _ZN3irr5video11CNullDriver10draw2DLineERKNS_4core8vector2dIiEES6_NS0_6SColorE @4197
    _ZN3irr5video11CNullDriver10draw3DLineERKNS_4core8vector3dIfEES6_NS0_6SColorE @4198
    _ZN3irr5video11CNullDriver10getTextureEPNS_2io9IReadFileE @4199
    _ZN3irr5video11CNullDriver10getTextureERKNS_4core6stringIcNS2_12irrAllocatorIcEEEE @4200
    _ZN3irr5video11CNullDriver11createImageENS0_13ECOLOR_FORMATEPNS0_6IImageE @4201
    _ZN3irr5video11CNullDriver11createImageENS0_13ECOLOR_FORMATERKNS_4core11dimension2dIjEE @4202
    _ZN3irr5video11CNullDriver11createImageEPNS0_6IImageERKNS_4core8vector2dIiEERKNS4_11dimension2dIjEE @4203
    _ZN3irr5video11CNullDriver11createImageEPNS0_8ITextureERKNS_4core8vector2dIiEERKNS4_11dimension2dIjEE @4204
    _ZN3irr5video11CNullDriver11draw2DImageEPKNS0_8ITextureERKNS_4core4rectIiEES9_PS8_PKNS0_6SColorEb @4205
    _ZN3irr5video11CNullDriver11draw2DImageEPKNS0_8ITextureERKNS_4core8vector2dIiEE @4206
    _ZN3irr5video11CNullDriver11draw2DImageEPKNS0_8ITextureERKNS_4core8vector2dIiEERKNS5_4rectIiEEPSC_NS0_6SColorEb @4207
    _ZN3irr5video11CNullDriver11findTextureERKNS_4core6stringIcNS2_12irrAllocatorIcEEEE @4208
    _ZN3irr5video11CNullDriver11setMaterialERKNS0_9SMaterialE @4209
    _ZN3irr5video11CNullDriver11setViewPortERKNS_4core4rectIiEE @4210
    _ZN3irr5video11CNullDriver11turnLightOnEib @4211
    _ZN3irr5video11CNullDriver12clearZBufferEv @4212
    _ZN3irr5video11CNullDriver12printVersionEv @4213
    _ZN3irr5video11CNullDriver12setClipPlaneEjRKNS_4core7plane3dIfEEb @4214
    _ZN3irr5video11CNullDriver12setTransformENS0_22E_TRANSFORMATION_STATEERKNS_4core8CMatrix4IfEE @4215
    _ZN3irr5video11CNullDriver13SDummyTexture22regenerateMipMapLevelsEPv @4216
    _ZN3irr5video11CNullDriver13SDummyTexture4lockEbj @4217
    _ZN3irr5video11CNullDriver13SDummyTexture6unlockEv @4218
    _ZN3irr5video11CNullDriver13SDummyTextureD0Ev @4219
    _ZN3irr5video11CNullDriver13SDummyTextureD1Ev @4220
    _ZN3irr5video11CNullDriver13SHWBufferLinkD0Ev @4221
    _ZN3irr5video11CNullDriver13SHWBufferLinkD1Ev @4222
    _ZN3irr5video11CNullDriver13draw2DPolygonENS_4core8vector2dIiEEfNS0_6SColorEi @4223
    _ZN3irr5video11CNullDriver13getBufferLinkEPKNS_5scene11IMeshBufferE @4224
    _ZN3irr5video11CNullDriver13getMaterial2DEv @4225
    _ZN3irr5video11CNullDriver13getVendorInfoEv @4226
    _ZN3irr5video11CNullDriver13removeTextureEPNS0_8ITextureE @4227
    _ZN3irr5video11CNullDriver13renameTextureEPNS0_8ITextureERKNS_4core6stringIcNS4_12irrAllocatorIcEEEE @4228
    _ZN3irr5video11CNullDriver14disableFeatureENS0_22E_VIDEO_DRIVER_FEATUREEb @4229
    _ZN3irr5video11CNullDriver14draw3DTriangleERKNS_4core10triangle3dIfEENS0_6SColorE @4230
    _ZN3irr5video11CNullDriver14drawMeshBufferEPKNS_5scene11IMeshBufferE @4231
    _ZN3irr5video11CNullDriver14getImageLoaderEj @4232
    _ZN3irr5video11CNullDriver14getImageWriterEj @4233
    _ZN3irr5video11CNullDriver15addDynamicLightERKNS0_6SLightE @4234
    _ZN3irr5video11CNullDriver15draw2DRectangleENS0_6SColorERKNS_4core4rectIiEEPS6_ @4235
    _ZN3irr5video11CNullDriver15draw2DRectangleERKNS_4core4rectIiEENS0_6SColorES7_S7_S7_PS5_ @4236
    _ZN3irr5video11CNullDriver15enableClipPlaneEjb @4237
    _ZN3irr5video11CNullDriver15setAmbientLightERKNS0_7SColorfE @4238
    _ZN3irr5video11CNullDriver15setRenderTargetENS0_15E_RENDER_TARGETEbbNS0_6SColorE @4239
    _ZN3irr5video11CNullDriver15setRenderTargetEPNS0_8ITextureEbbNS0_6SColorE @4240
    _ZN3irr5video11CNullDriver15setRenderTargetERKNS_4core5arrayINS0_13IRenderTargetENS2_12irrAllocatorIS4_EEEEbbNS0_6SColorE @4241
    _ZN3irr5video11CNullDriver16checkDriverResetEv @4242
    _ZN3irr5video11CNullDriver16createScreenShotEv @4243
    _ZN3irr5video11CNullDriver16draw2DImageBatchEPKNS0_8ITextureERKNS_4core5arrayINS5_8vector2dIiEENS5_12irrAllocatorIS8_EEEERKNS6_INS5_4rectIiEENS9_ISF_EEEEPKSF_NS0_6SColorEb @4244
    _ZN3irr5video11CNullDriver16draw2DImageBatchEPKNS0_8ITextureERKNS_4core8vector2dIiEERKNS5_5arrayINS5_4rectIiEENS5_12irrAllocatorISC_EEEERKNSA_IiNSD_IiEEEEiPKSC_NS0_6SColorEb @4245
    _ZN3irr5video11CNullDriver16enableMaterial2DEb @4246
    _ZN3irr5video11CNullDriver16writeImageToFileEPNS0_6IImageEPNS_2io10IWriteFileEj @4247
    _ZN3irr5video11CNullDriver16writeImageToFileEPNS0_6IImageERKNS_4core6stringIcNS4_12irrAllocatorIcEEEEj @4248
    _ZN3irr5video11CNullDriver17addShaderMaterialEPKcS3_PNS0_26IShaderConstantSetCallBackENS0_15E_MATERIAL_TYPEEi @4249
    _ZN3irr5video11CNullDriver17deleteAllTexturesEv @4250
    _ZN3irr5video11CNullDriver17drawStencilShadowEbNS0_6SColorES2_S2_S2_ @4251
    _ZN3irr5video11CNullDriver17getTextureByIndexEj @4252
    _ZN3irr5video11CNullDriver17removeAllTexturesEv @4253
    _ZN3irr5video11CNullDriver18drawHardwareBufferEPNS1_13SHWBufferLinkE @4254
    _ZN3irr5video11CNullDriver18getMeshManipulatorEv @4255
    _ZN3irr5video11CNullDriver19addMaterialRendererEPNS0_17IMaterialRendererEPKc @4256
    _ZN3irr5video11CNullDriver19createImageFromDataENS0_13ECOLOR_FORMATERKNS_4core11dimension2dIjEEPvbb @4257
    _ZN3irr5video11CNullDriver19createImageFromFileEPNS_2io9IReadFileE @4258
    _ZN3irr5video11CNullDriver19createImageFromFileERKNS_4core6stringIcNS2_12irrAllocatorIcEEEE @4259
    _ZN3irr5video11CNullDriver19getExposedVideoDataEv @4260
    _ZN3irr5video11CNullDriver19getMaterialRendererEj @4261
    _ZN3irr5video11CNullDriver19getOverrideMaterialEv @4262
    _ZN3irr5video11CNullDriver19loadTextureFromFileEPNS_2io9IReadFileERKNS_4core6stringIcNS5_12irrAllocatorIcEEEE @4263
    _ZN3irr5video11CNullDriver20createHardwareBufferEPKNS_5scene11IMeshBufferE @4264
    _ZN3irr5video11CNullDriver20deleteHardwareBufferEPNS1_13SHWBufferLinkE @4265
    _ZN3irr5video11CNullDriver20removeHardwareBufferEPKNS_5scene11IMeshBufferE @4266
    _ZN3irr5video11CNullDriver20updateHardwareBufferEPNS1_13SHWBufferLinkE @4267
    _ZN3irr5video11CNullDriver21deleteMaterialRendersEv @4268
    _ZN3irr5video11CNullDriver22addExternalImageLoaderEPNS0_12IImageLoaderE @4269
    _ZN3irr5video11CNullDriver22addExternalImageWriterEPNS0_12IImageWriterE @4270
    _ZN3irr5video11CNullDriver22addRenderTargetTextureERKNS_4core11dimension2dIjEERKNS2_6stringIcNS2_12irrAllocatorIcEEEENS0_13ECOLOR_FORMATE @4271
    _ZN3irr5video11CNullDriver22deleteAllDynamicLightsEv @4272
    _ZN3irr5video11CNullDriver22draw2DRectangleOutlineERKNS_4core4rectIiEENS0_6SColorE @4273
    _ZN3irr5video11CNullDriver22setTextureCreationFlagENS0_23E_TEXTURE_CREATION_FLAGEb @4274
    _ZN3irr5video11CNullDriver23drawStencilShadowVolumeEPKNS_4core8vector3dIfEEib @4275
    _ZN3irr5video11CNullDriver23drawVertexPrimitiveListEPKvjS3_jNS0_13E_VERTEX_TYPEENS_5scene16E_PRIMITIVE_TYPEENS0_12E_INDEX_TYPEE @4276
    _ZN3irr5video11CNullDriver23setMaterialRendererNameEiPKc @4277
    _ZN3irr5video11CNullDriver24removeAllHardwareBuffersEv @4278
    _ZN3irr5video11CNullDriver24updateAllHardwareBuffersEv @4279
    _ZN3irr5video11CNullDriver25createRenderTargetTextureERKNS_4core11dimension2dIjEEPKc @4280
    _ZN3irr5video11CNullDriver25draw2DVertexPrimitiveListEPKvjS3_jNS0_13E_VERTEX_TYPEENS_5scene16E_PRIMITIVE_TYPEENS0_12E_INDEX_TYPEE @4281
    _ZN3irr5video11CNullDriver25getGPUProgrammingServicesEv @4282
    _ZN3irr5video11CNullDriver25isHardwareBufferRecommendEPKNS_5scene11IMeshBufferE @4283
    _ZN3irr5video11CNullDriver26addAndDropMaterialRendererEPNS0_17IMaterialRendererE @4284
    _ZN3irr5video11CNullDriver26addHighLevelShaderMaterialEPKcS3_NS0_20E_VERTEX_SHADER_TYPEES3_S3_NS0_19E_PIXEL_SHADER_TYPEES3_S3_NS0_22E_GEOMETRY_SHADER_TYPEENS_5scene16E_PRIMITIVE_TYPEES8_jPNS0_26IShaderConstantSetCallBackENS0_15E_MATERIAL_TYPEEi @4285
    _ZN3irr5video11CNullDriver26addShaderMaterialFromFilesEPNS_2io9IReadFileES4_PNS0_26IShaderConstantSetCallBackENS0_15E_MATERIAL_TYPEEi @4286
    _ZN3irr5video11CNullDriver26addShaderMaterialFromFilesERKNS_4core6stringIcNS2_12irrAllocatorIcEEEES8_PNS0_26IShaderConstantSetCallBackENS0_15E_MATERIAL_TYPEEi @4287
    _ZN3irr5video11CNullDriver27setAllowZWriteOnTransparentEb @4288
    _ZN3irr5video11CNullDriver28createAttributesFromMaterialERKNS0_9SMaterialE @4289
    _ZN3irr5video11CNullDriver28createDeviceDependentTextureEPNS0_6IImageERKNS_4core6stringIcNS4_12irrAllocatorIcEEEEPv @4290
    _ZN3irr5video11CNullDriver31setMinHardwareBufferVertexCountEj @4291
    _ZN3irr5video11CNullDriver35addHighLevelShaderMaterialFromFilesEPNS_2io9IReadFileEPKcNS0_20E_VERTEX_SHADER_TYPEES4_S6_NS0_19E_PIXEL_SHADER_TYPEES4_S6_NS0_22E_GEOMETRY_SHADER_TYPEENS_5scene16E_PRIMITIVE_TYPEESB_jPNS0_26IShaderConstantSetCallBackENS0_15E_MATERIAL_TYPEEi @4292
    _ZN3irr5video11CNullDriver35addHighLevelShaderMaterialFromFilesERKNS_4core6stringIcNS2_12irrAllocatorIcEEEEPKcNS0_20E_VERTEX_SHADER_TYPEES8_SA_NS0_19E_PIXEL_SHADER_TYPEES8_SA_NS0_22E_GEOMETRY_SHADER_TYPEENS_5scene16E_PRIMITIVE_TYPEESF_jPNS0_26IShaderConstantSetCallBackENS0_15E_MATERIAL_TYPEEi @4293
    _ZN3irr5video11CNullDriver35fillMaterialStructureFromAttributesERNS0_9SMaterialEPNS_2io11IAttributesE @4294
    _ZN3irr5video11CNullDriver6getFogERNS0_6SColorERNS0_10E_FOG_TYPEERfS6_S6_RbS7_ @4295
    _ZN3irr5video11CNullDriver6setFogENS0_6SColorENS0_10E_FOG_TYPEEfffbb @4296
    _ZN3irr5video11CNullDriver8OnResizeERKNS_4core11dimension2dIjEE @4297
    _ZN3irr5video11CNullDriver8endSceneEv @4298
    _ZN3irr5video11CNullDriver9draw3DBoxERKNS_4core8aabbox3dIfEENS0_6SColorE @4299
    _ZN3irr5video11CNullDriver9drawPixelEjjRKNS0_6SColorE @4300
    _ZN3irr5video11CNullDriverC1EPNS_2io11IFileSystemERKNS_4core11dimension2dIjEE @4301
    _ZN3irr5video11CNullDriverC2EPNS_2io11IFileSystemERKNS_4core11dimension2dIjEE @4302
    _ZN3irr5video11CNullDriverD0Ev @4303
    _ZN3irr5video11CNullDriverD1Ev @4304
    _ZN3irr5video11CNullDriverD2Ev @4305
    _ZN3irr5video11CTRFlatWire23drawIndexedTriangleListEPNS0_9S2DVertexEiPKti @4306
    _ZN3irr5video11CTRFlatWireD0Ev @4307
    _ZN3irr5video11CTRFlatWireD1Ev @4308
    _ZN3irr5video11CTRGouraud212drawTriangleEPKNS0_9s4DVertexES4_S4_ @4309
    _ZN3irr5video11CTRGouraud217scanline_bilinearEv @4310
    _ZN3irr5video11CTRGouraud2C1EPNS0_12IDepthBufferE @4311
    _ZN3irr5video11CTRGouraud2C2EPNS0_12IDepthBufferE @4312
    _ZN3irr5video11CTRGouraud2D0Ev @4313
    _ZN3irr5video11CTRGouraud2D1Ev @4314
    _ZN3irr5video12CD3D9Texture11copyTextureEPNS0_6IImageE @4315
    _ZN3irr5video12CD3D9Texture13createMipMapsEj @4316
    _ZN3irr5video12CD3D9Texture13createTextureEjPNS0_6IImageE @4317
    _ZN3irr5video12CD3D9Texture18createRenderTargetENS0_13ECOLOR_FORMATE @4318
    _ZN3irr5video12CD3D9Texture22getRenderTargetSurfaceEv @4319
    _ZN3irr5video12CD3D9Texture22regenerateMipMapLevelsEPv @4320
    _ZN3irr5video12CD3D9Texture4lockEbj @4321
    _ZN3irr5video12CD3D9Texture6unlockEv @4322
    _ZN3irr5video12CD3D9Texture8setPitchE10_D3DFORMAT @4323
    _ZN3irr5video12CD3D9TextureC1EPNS0_11CD3D9DriverERKNS_4core11dimension2dIjEERKNS4_6stringIcNS4_12irrAllocatorIcEEEENS0_13ECOLOR_FORMATE @4324
    _ZN3irr5video12CD3D9TextureC1EPNS0_6IImageEPNS0_11CD3D9DriverEjRKNS_4core6stringIcNS6_12irrAllocatorIcEEEEPv @4325
    _ZN3irr5video12CD3D9TextureC2EPNS0_11CD3D9DriverERKNS_4core11dimension2dIjEERKNS4_6stringIcNS4_12irrAllocatorIcEEEENS0_13ECOLOR_FORMATE @4326
    _ZN3irr5video12CD3D9TextureC2EPNS0_6IImageEPNS0_11CD3D9DriverEjRKNS_4core6stringIcNS6_12irrAllocatorIcEEEEPv @4327
    _ZN3irr5video12CD3D9TextureD0Ev @4328
    _ZN3irr5video12CD3D9TextureD1Ev @4329
    _ZN3irr5video12CD3D9TextureD2Ev @4330
    _ZN3irr5video12CDepthBuffer4lockEv @4331
    _ZN3irr5video12CDepthBuffer5clearEv @4332
    _ZN3irr5video12CDepthBuffer6unlockEv @4333
    _ZN3irr5video12CDepthBuffer7setSizeERKNS_4core11dimension2dIjEE @4334
    _ZN3irr5video12CDepthBufferC1ERKNS_4core11dimension2dIjEE @4335
    _ZN3irr5video12CDepthBufferC2ERKNS_4core11dimension2dIjEE @4336
    _ZN3irr5video12CDepthBufferD0Ev @4337
    _ZN3irr5video12CDepthBufferD1Ev @4338
    _ZN3irr5video12CDepthBufferD2Ev @4339
    _ZN3irr5video12IDepthBufferD0Ev @4340
    _ZN3irr5video12IDepthBufferD1Ev @4341
    _ZN3irr5video12IImageLoaderD0Ev @4342
    _ZN3irr5video12IImageLoaderD1Ev @4343
    _ZN3irr5video12IImageWriterD0Ev @4344
    _ZN3irr5video12IImageWriterD1Ev @4345
    _ZN3irr5video12IVideoDriverD0Ev @4346
    _ZN3irr5video12IVideoDriverD1Ev @4347
    _ZN3irr5video12SShaderParam14SetRenderStateENS0_19BD3DRENDERSTATETYPEEj @4348
    _ZN3irr5video13COpenGLDriver10beginSceneEbbNS0_6SColorERKNS0_17SExposedVideoDataEPNS_4core4rectIiEE @4349
    _ZN3irr5video13COpenGLDriver10draw2DLineERKNS_4core8vector2dIiEES6_NS0_6SColorE @4350
    _ZN3irr5video13COpenGLDriver10draw3DLineERKNS_4core8vector3dIfEES6_NS0_6SColorE @4351
    _ZN3irr5video13COpenGLDriver10initDriverENS_27SIrrlichtCreationParametersEPNS_15CIrrDeviceWin32E @4352
    _ZN3irr5video13COpenGLDriver11draw2DImageEPKNS0_8ITextureERKNS_4core4rectIiEES9_PS8_PKNS0_6SColorEb @4353
    _ZN3irr5video13COpenGLDriver11draw2DImageEPKNS0_8ITextureERKNS_4core8vector2dIiEERKNS5_4rectIiEEPSC_NS0_6SColorEb @4354
    _ZN3irr5video13COpenGLDriver11draw2DImageEPKNS0_8ITextureERKNS_4core8vector2dIiEERKNS5_5arrayINS5_4rectIiEENS5_12irrAllocatorISC_EEEERKNSA_IiNSD_IiEEEEPKSC_NS0_6SColorEb @4355
    _ZN3irr5video13COpenGLDriver11renderArrayEPKvjNS_5scene16E_PRIMITIVE_TYPEENS0_12E_INDEX_TYPEE @4356
    _ZN3irr5video13COpenGLDriver11setMaterialERKNS0_9SMaterialE @4357
    _ZN3irr5video13COpenGLDriver11setViewPortERKNS_4core4rectIiEE @4358
    _ZN3irr5video13COpenGLDriver11setWrapModeERKNS0_9SMaterialE @4359
    _ZN3irr5video13COpenGLDriver11testGLErrorEv @4360
    _ZN3irr5video13COpenGLDriver11turnLightOnEib @4361
    _ZN3irr5video13COpenGLDriver12clearBuffersEbbbNS0_6SColorE @4362
    _ZN3irr5video13COpenGLDriver12clearZBufferEv @4363
    _ZN3irr5video13COpenGLDriver12setClipPlaneEjRKNS_4core7plane3dIfEEb @4364
    _ZN3irr5video13COpenGLDriver12setTransformENS0_22E_TRANSFORMATION_STATEERKNS_4core8CMatrix4IfEE @4365
    _ZN3irr5video13COpenGLDriver13getVendorInfoEv @4366
    _ZN3irr5video13COpenGLDriver14getVideoDriverEv @4367
    _ZN3irr5video13COpenGLDriver15addDynamicLightERKNS0_6SLightE @4368
    _ZN3irr5video13COpenGLDriver15disableTexturesEj @4369
    _ZN3irr5video13COpenGLDriver15draw2DRectangleENS0_6SColorERKNS_4core4rectIiEEPS6_ @4370
    _ZN3irr5video13COpenGLDriver15draw2DRectangleERKNS_4core4rectIiEENS0_6SColorES7_S7_S7_PS5_ @4371
    _ZN3irr5video13COpenGLDriver15enableClipPlaneEjb @4372
    _ZN3irr5video13COpenGLDriver15setAmbientLightERKNS0_7SColorfE @4373
    _ZN3irr5video13COpenGLDriver15setRenderTargetENS0_15E_RENDER_TARGETEbbNS0_6SColorE @4374
    _ZN3irr5video13COpenGLDriver15setRenderTargetEPNS0_8ITextureEbbNS0_6SColorE @4375
    _ZN3irr5video13COpenGLDriver15setRenderTargetERKNS_4core5arrayINS0_13IRenderTargetENS2_12irrAllocatorIS4_EEEEbbNS0_6SColorE @4376
    _ZN3irr5video13COpenGLDriver15uploadClipPlaneEj @4377
    _ZN3irr5video13COpenGLDriver16createScreenShotEv @4378
    _ZN3irr5video13COpenGLDriver16draw2DImageBatchEPKNS0_8ITextureERKNS_4core5arrayINS5_8vector2dIiEENS5_12irrAllocatorIS8_EEEERKNS6_INS5_4rectIiEENS9_ISF_EEEEPKSF_NS0_6SColorEb @4379
    _ZN3irr5video13COpenGLDriver16enableMaterial2DEb @4380
    _ZN3irr5video13COpenGLDriver16setActiveTextureEjPKNS0_8ITextureE @4381
    _ZN3irr5video13COpenGLDriver17addShaderMaterialEPKcS3_PNS0_26IShaderConstantSetCallBackENS0_15E_MATERIAL_TYPEEi @4382
    _ZN3irr5video13COpenGLDriver17createColorBufferEPKvjNS0_13E_VERTEX_TYPEE @4383
    _ZN3irr5video13COpenGLDriver17drawStencilShadowEbNS0_6SColorES2_S2_S2_ @4384
    _ZN3irr5video13COpenGLDriver17genericDriverInitERKNS_4core11dimension2dIjEEb @4385
    _ZN3irr5video13COpenGLDriver18createDepthTextureEPNS0_8ITextureEb @4386
    _ZN3irr5video13COpenGLDriver18drawHardwareBufferEPNS0_11CNullDriver13SHWBufferLinkE @4387
    _ZN3irr5video13COpenGLDriver18getTextureWrapModeEh @4388
    _ZN3irr5video13COpenGLDriver18removeDepthTextureEPNS0_8ITextureE @4389
    _ZN3irr5video13COpenGLDriver19assignHardwareLightEj @4390
    _ZN3irr5video13COpenGLDriver19changeRenderContextERKNS0_17SExposedVideoDataEPNS_15CIrrDeviceWin32E @4391
    _ZN3irr5video13COpenGLDriver20SHWBufferLink_openglD0Ev @4392
    _ZN3irr5video13COpenGLDriver20SHWBufferLink_openglD1Ev @4393
    _ZN3irr5video13COpenGLDriver20createHardwareBufferEPKNS_5scene11IMeshBufferE @4394
    _ZN3irr5video13COpenGLDriver20deleteHardwareBufferEPNS0_11CNullDriver13SHWBufferLinkE @4395
    _ZN3irr5video13COpenGLDriver20setBasicRenderStatesERKNS0_9SMaterialES4_b @4396
    _ZN3irr5video13COpenGLDriver20updateHardwareBufferEPNS0_11CNullDriver13SHWBufferLinkE @4397
    _ZN3irr5video13COpenGLDriver21createGLTextureMatrixEPfRKNS_4core8CMatrix4IfEE @4398
    _ZN3irr5video13COpenGLDriver21setRenderStates2DModeEbbb @4399
    _ZN3irr5video13COpenGLDriver21setRenderStates3DModeEv @4400
    _ZN3irr5video13COpenGLDriver22addRenderTargetTextureERKNS_4core11dimension2dIjEERKNS2_6stringIcNS2_12irrAllocatorIcEEEENS0_13ECOLOR_FORMATE @4401
    _ZN3irr5video13COpenGLDriver22deleteAllDynamicLightsEv @4402
    _ZN3irr5video13COpenGLDriver22setPixelShaderConstantEPKcPKfi @4403
    _ZN3irr5video13COpenGLDriver22setPixelShaderConstantEPKfii @4404
    _ZN3irr5video13COpenGLDriver23createMaterialRenderersEv @4405
    _ZN3irr5video13COpenGLDriver23drawStencilShadowVolumeEPKNS_4core8vector3dIfEEib @4406
    _ZN3irr5video13COpenGLDriver23drawVertexPrimitiveListEPKvjS3_jNS0_13E_VERTEX_TYPEENS_5scene16E_PRIMITIVE_TYPEENS0_12E_INDEX_TYPEE @4407
    _ZN3irr5video13COpenGLDriver23setVertexShaderConstantEPKcPKfi @4408
    _ZN3irr5video13COpenGLDriver23setVertexShaderConstantEPKfii @4409
    _ZN3irr5video13COpenGLDriver25draw2DVertexPrimitiveListEPKvjS3_jNS0_13E_VERTEX_TYPEENS_5scene16E_PRIMITIVE_TYPEENS0_12E_INDEX_TYPEE @4410
    _ZN3irr5video13COpenGLDriver25updateIndexHardwareBufferEPNS1_20SHWBufferLink_openglE @4411
    _ZN3irr5video13COpenGLDriver26addHighLevelShaderMaterialEPKcS3_NS0_20E_VERTEX_SHADER_TYPEES3_S3_NS0_19E_PIXEL_SHADER_TYPEES3_S3_NS0_22E_GEOMETRY_SHADER_TYPEENS_5scene16E_PRIMITIVE_TYPEES8_jPNS0_26IShaderConstantSetCallBackENS0_15E_MATERIAL_TYPEEi @4412
    _ZN3irr5video13COpenGLDriver26updateVertexHardwareBufferEPNS1_20SHWBufferLink_openglE @4413
    _ZN3irr5video13COpenGLDriver28createDeviceDependentTextureEPNS0_6IImageERKNS_4core6stringIcNS4_12irrAllocatorIcEEEEPv @4414
    _ZN3irr5video13COpenGLDriver6setFogENS0_6SColorENS0_10E_FOG_TYPEEfffbb @4415
    _ZN3irr5video13COpenGLDriver8OnResizeERKNS_4core11dimension2dIjEE @4416
    _ZN3irr5video13COpenGLDriver8endSceneEv @4417
    _ZN3irr5video13COpenGLDriver9drawPixelEjjRKNS0_6SColorE @4418
    _ZN3irr5video13COpenGLDriverC1ERKNS_27SIrrlichtCreationParametersEPNS_2io11IFileSystemEPNS_15CIrrDeviceWin32E @4419
    _ZN3irr5video13COpenGLDriverC2ERKNS_27SIrrlichtCreationParametersEPNS_2io11IFileSystemEPNS_15CIrrDeviceWin32E @4420
    _ZN3irr5video13COpenGLDriverD0Ev @4421
    _ZN3irr5video13COpenGLDriverD1Ev @4422
    _ZN3irr5video13COpenGLDriverD2Ev @4423
    _ZN3irr5video13SDepthSurfaceD0Ev @4424
    _ZN3irr5video13SDepthSurfaceD1Ev @4425
    _ZN3irr5video13createZBufferERKNS_4core11dimension2dIjEE @4426
    _ZN3irr5video14COpenGLTexture13uploadTextureEbPvj @4427
    _ZN3irr5video14COpenGLTexture14getImageValuesEPNS0_6IImageE @4428
    _ZN3irr5video14COpenGLTexture17setIsRenderTargetEb @4429
    _ZN3irr5video14COpenGLTexture18getBestColorFormatENS0_13ECOLOR_FORMATE @4430
    _ZN3irr5video14COpenGLTexture22regenerateMipMapLevelsEPv @4431
    _ZN3irr5video14COpenGLTexture43getOpenGLFormatAndParametersFromColorFormatENS0_13ECOLOR_FORMATERiRjS4_ @4432
    _ZN3irr5video14COpenGLTexture4lockEbj @4433
    _ZN3irr5video14COpenGLTexture6unlockEv @4434
    _ZN3irr5video14COpenGLTexture7bindRTTEv @4435
    _ZN3irr5video14COpenGLTexture9unbindRTTEv @4436
    _ZN3irr5video14COpenGLTextureC1EPNS0_6IImageERKNS_4core6stringIcNS4_12irrAllocatorIcEEEEPvPNS0_13COpenGLDriverE @4437
    _ZN3irr5video14COpenGLTextureC1ERKNS_4core6stringIcNS2_12irrAllocatorIcEEEEPNS0_13COpenGLDriverE @4438
    _ZN3irr5video14COpenGLTextureC2EPNS0_6IImageERKNS_4core6stringIcNS4_12irrAllocatorIcEEEEPvPNS0_13COpenGLDriverE @4439
    _ZN3irr5video14COpenGLTextureC2ERKNS_4core6stringIcNS2_12irrAllocatorIcEEEEPNS0_13COpenGLDriverE @4440
    _ZN3irr5video14COpenGLTextureD0Ev @4441
    _ZN3irr5video14COpenGLTextureD1Ev @4442
    _ZN3irr5video14COpenGLTextureD2Ev @4443
    _ZN3irr5video14CTRGouraudWire23drawIndexedTriangleListEPNS0_9S2DVertexEiPKti @4444
    _ZN3irr5video14CTRGouraudWireD0Ev @4445
    _ZN3irr5video14CTRGouraudWireD1Ev @4446
    _ZN3irr5video14CTRTextureFlat23drawIndexedTriangleListEPNS0_9S2DVertexEiPKti @4447
    _ZN3irr5video14CTRTextureFlatD0Ev @4448
    _ZN3irr5video14CTRTextureFlatD1Ev @4449
    _ZN3irr5video14CVideoModeList10setDesktopEiRKNS_4core11dimension2dIjEE @4450
    _ZN3irr5video14CVideoModeList7addModeERKNS_4core11dimension2dIjEEi @4451
    _ZN3irr5video14CVideoModeListC1Ev @4452
    _ZN3irr5video14CVideoModeListC2Ev @4453
    _ZN3irr5video14CVideoModeListD0Ev @4454
    _ZN3irr5video14CVideoModeListD1Ev @4455
    _ZN3irr5video14IBurningShader10dithermaskE @4456 DATA
    _ZN3irr5video14IBurningShader11setMaterialERKNS0_22SBurningShaderMaterialE @4457
    _ZN3irr5video14IBurningShader15setRenderTargetEPNS0_6IImageERKNS_4core4rectIiEE @4458
    _ZN3irr5video14IBurningShader15setTextureParamEjPNS0_17CSoftwareTexture2Ei @4459
    _ZN3irr5video14IBurningShader15setZCompareFuncEj @4460
    _ZN3irr5video14IBurningShader8drawLineEPKNS0_9s4DVertexES4_ @4461
    _ZN3irr5video14IBurningShader8setParamEjf @4462
    _ZN3irr5video14IBurningShaderC1EPNS0_12IDepthBufferE @4463
    _ZN3irr5video14IBurningShaderC2EPNS0_12IDepthBufferE @4464
    _ZN3irr5video14IBurningShaderD0Ev @4465
    _ZN3irr5video14IBurningShaderD1Ev @4466
    _ZN3irr5video14IBurningShaderD2Ev @4467
    _ZN3irr5video14IVideoModeListD0Ev @4468
    _ZN3irr5video14IVideoModeListD1Ev @4469
    _ZN3irr5video14SAlignedVertexD0Ev @4470
    _ZN3irr5video14SAlignedVertexD1Ev @4471
    _ZN3irr5video14SMaterialLayerD1Ev @4472
    _ZN3irr5video14UnitMatrixD3D9E @4473 DATA
    _ZN3irr5video15CColorConverter17convert_viaFormatEPKvNS0_13ECOLOR_FORMATEiPvS4_ @4474
    _ZN3irr5video15CColorConverter18convert1BitTo16BitEPKhPsiiib @4475
    _ZN3irr5video15CColorConverter18convert4BitTo16BitEPKhPsiiPKiib @4476
    _ZN3irr5video15CColorConverter18convert8BitTo16BitEPKhPsiiPKiib @4477
    _ZN3irr5video15CColorConverter19convert16BitTo16BitEPKsPsiiib @4478
    _ZN3irr5video15CColorConverter19convert24BitTo24BitEPKhPhiiibb @4479
    _ZN3irr5video15CColorConverter19convert32BitTo32BitEPKiPiiiib @4480
    _ZN3irr5video15CColorConverter22convert_R5G6B5toB8G8R8EPKviPv @4481
    _ZN3irr5video15CColorConverter22convert_R5G6B5toR5G6B5EPKviPv @4482
    _ZN3irr5video15CColorConverter22convert_R5G6B5toR8G8B8EPKviPv @4483
    _ZN3irr5video15CColorConverter22convert_R8G8B8toR5G6B5EPKviPv @4484
    _ZN3irr5video15CColorConverter22convert_R8G8B8toR8G8B8EPKviPv @4485
    _ZN3irr5video15CColorConverter24convert_A1R5G5B5toB8G8R8EPKviPv @4486
    _ZN3irr5video15CColorConverter24convert_A1R5G5B5toR5G6B5EPKviPv @4487
    _ZN3irr5video15CColorConverter24convert_A1R5G5B5toR8G8B8EPKviPv @4488
    _ZN3irr5video15CColorConverter24convert_A8R8G8B8toB8G8R8EPKviPv @4489
    _ZN3irr5video15CColorConverter24convert_A8R8G8B8toR3G3B2EPKviPv @4490
    _ZN3irr5video15CColorConverter24convert_A8R8G8B8toR5G6B5EPKviPv @4491
    _ZN3irr5video15CColorConverter24convert_A8R8G8B8toR8G8B8EPKviPv @4492
    _ZN3irr5video15CColorConverter24convert_B8G8R8toA8R8G8B8EPKviPv @4493
    _ZN3irr5video15CColorConverter24convert_R5G6B5toA1R5G5B5EPKviPv @4494
    _ZN3irr5video15CColorConverter24convert_R5G6B5toA8R8G8B8EPKviPv @4495
    _ZN3irr5video15CColorConverter24convert_R8G8B8toA1R5G5B5EPKviPv @4496
    _ZN3irr5video15CColorConverter24convert_R8G8B8toA8R8G8B8EPKviPv @4497
    _ZN3irr5video15CColorConverter26convert_A1R5G5B5toA1R5G5B5EPKviPv @4498
    _ZN3irr5video15CColorConverter26convert_A1R5G5B5toA8R8G8B8EPKviPv @4499
    _ZN3irr5video15CColorConverter26convert_A8R8G8B8toA1R5G5B5EPKviPv @4500
    _ZN3irr5video15CColorConverter26convert_A8R8G8B8toA8R8G8B8EPKviPv @4501
    _ZN3irr5video15CColorConverter26convert_B8G8R8A8toA8R8G8B8EPKviPv @4502
    _ZN3irr5video15CColorConverter31convert16bitToA8R8G8B8andResizeEPKsPiiiii @4503
    _ZN3irr5video15CImageLoaderBMPC1Ev @4504
    _ZN3irr5video15CImageLoaderBMPC2Ev @4505
    _ZN3irr5video15CImageLoaderBMPD0Ev @4506
    _ZN3irr5video15CImageLoaderBMPD1Ev @4507
    _ZN3irr5video15CImageLoaderJPG10error_exitEP18jpeg_common_struct @4508
    _ZN3irr5video15CImageLoaderJPG11init_sourceEP22jpeg_decompress_struct @4509
    _ZN3irr5video15CImageLoaderJPG11term_sourceEP22jpeg_decompress_struct @4510
    _ZN3irr5video15CImageLoaderJPG14output_messageEP18jpeg_common_struct @4511
    _ZN3irr5video15CImageLoaderJPG15skip_input_dataEP22jpeg_decompress_structl @4512
    _ZN3irr5video15CImageLoaderJPG17fill_input_bufferEP22jpeg_decompress_struct @4513
    _ZN3irr5video15CImageLoaderJPGC1Ev @4514
    _ZN3irr5video15CImageLoaderJPGC2Ev @4515
    _ZN3irr5video15CImageLoaderJPGD0Ev @4516
    _ZN3irr5video15CImageLoaderJPGD1Ev @4517
    _ZN3irr5video15CImageLoaderJPGD2Ev @4518
    _ZN3irr5video15CImageLoaderPCXC1Ev @4519
    _ZN3irr5video15CImageLoaderPCXC2Ev @4520
    _ZN3irr5video15CImageLoaderPCXD0Ev @4521
    _ZN3irr5video15CImageLoaderPCXD1Ev @4522
    _ZN3irr5video15CImageLoaderPPMC1Ev @4523
    _ZN3irr5video15CImageLoaderPPMC2Ev @4524
    _ZN3irr5video15CImageLoaderPPMD0Ev @4525
    _ZN3irr5video15CImageLoaderPPMD1Ev @4526
    _ZN3irr5video15CImageLoaderPSDC1Ev @4527
    _ZN3irr5video15CImageLoaderPSDC2Ev @4528
    _ZN3irr5video15CImageLoaderPSDD0Ev @4529
    _ZN3irr5video15CImageLoaderPSDD1Ev @4530
    _ZN3irr5video15CImageLoaderPngD0Ev @4531
    _ZN3irr5video15CImageLoaderPngD1Ev @4532
    _ZN3irr5video15CImageLoaderRGBC1Ev @4533
    _ZN3irr5video15CImageLoaderRGBC2Ev @4534
    _ZN3irr5video15CImageLoaderRGBD0Ev @4535
    _ZN3irr5video15CImageLoaderRGBD1Ev @4536
    _ZN3irr5video15CImageLoaderTGAD0Ev @4537
    _ZN3irr5video15CImageLoaderTGAD1Ev @4538
    _ZN3irr5video15CImageLoaderWAL16DefaultPaletteQ2E @4539 DATA
    _ZN3irr5video15CImageLoaderWALD0Ev @4540
    _ZN3irr5video15CImageLoaderWALD1Ev @4541
    _ZN3irr5video15CImageWriterBMPC1Ev @4542
    _ZN3irr5video15CImageWriterBMPC2Ev @4543
    _ZN3irr5video15CImageWriterBMPD0Ev @4544
    _ZN3irr5video15CImageWriterBMPD1Ev @4545
    _ZN3irr5video15CImageWriterJPGC1Ev @4546
    _ZN3irr5video15CImageWriterJPGC2Ev @4547
    _ZN3irr5video15CImageWriterJPGD0Ev @4548
    _ZN3irr5video15CImageWriterJPGD1Ev @4549
    _ZN3irr5video15CImageWriterPCXC1Ev @4550
    _ZN3irr5video15CImageWriterPCXC2Ev @4551
    _ZN3irr5video15CImageWriterPCXD0Ev @4552
    _ZN3irr5video15CImageWriterPCXD1Ev @4553
    _ZN3irr5video15CImageWriterPNGC1Ev @4554
    _ZN3irr5video15CImageWriterPNGC2Ev @4555
    _ZN3irr5video15CImageWriterPNGD0Ev @4556
    _ZN3irr5video15CImageWriterPNGD1Ev @4557
    _ZN3irr5video15CImageWriterPPMC1Ev @4558
    _ZN3irr5video15CImageWriterPPMC2Ev @4559
    _ZN3irr5video15CImageWriterPPMD0Ev @4560
    _ZN3irr5video15CImageWriterPPMD1Ev @4561
    _ZN3irr5video15CImageWriterPSDC1Ev @4562
    _ZN3irr5video15CImageWriterPSDC2Ev @4563
    _ZN3irr5video15CImageWriterPSDD0Ev @4564
    _ZN3irr5video15CImageWriterPSDD1Ev @4565
    _ZN3irr5video15CImageWriterTGAC1Ev @4566
    _ZN3irr5video15CImageWriterTGAC2Ev @4567
    _ZN3irr5video15CImageWriterTGAD0Ev @4568
    _ZN3irr5video15CImageWriterTGAD1Ev @4569
    _ZN3irr5video15CSoftwareDriver10beginSceneEbbNS0_6SColorERKNS0_17SExposedVideoDataEPNS_4core4rectIiEE @4570
    _ZN3irr5video15CSoftwareDriver10draw2DLineERKNS_4core8vector2dIiEES6_NS0_6SColorE @4571
    _ZN3irr5video15CSoftwareDriver10draw3DLineERKNS_4core8vector3dIfEES6_NS0_6SColorE @4572
    _ZN3irr5video15CSoftwareDriver11draw2DImageEPKNS0_8ITextureERKNS_4core8vector2dIiEERKNS5_4rectIiEEPSC_NS0_6SColorEb @4573
    _ZN3irr5video15CSoftwareDriver11setMaterialERKNS0_9SMaterialE @4574
    _ZN3irr5video15CSoftwareDriver11setViewPortERKNS_4core4rectIiEE @4575
    _ZN3irr5video15CSoftwareDriver12clearZBufferEv @4576
    _ZN3irr5video15CSoftwareDriver12clipTriangleEPf @4577
    _ZN3irr5video15CSoftwareDriver12setTransformENS0_22E_TRANSFORMATION_STATEERKNS_4core8CMatrix4IfEE @4578
    _ZN3irr5video15CSoftwareDriver15draw2DRectangleENS0_6SColorERKNS_4core4rectIiEEPS6_ @4579
    _ZN3irr5video15CSoftwareDriver15draw2DRectangleERKNS_4core4rectIiEENS0_6SColorES7_S7_S7_PS5_ @4580
    _ZN3irr5video15CSoftwareDriver15setRenderTargetEPNS0_6CImageE @4581
    _ZN3irr5video15CSoftwareDriver15setRenderTargetEPNS0_8ITextureEbbNS0_6SColorE @4582
    _ZN3irr5video15CSoftwareDriver16createScreenShotEv @4583
    _ZN3irr5video15CSoftwareDriver16setActiveTextureEjPNS0_8ITextureE @4584
    _ZN3irr5video15CSoftwareDriver22addRenderTargetTextureERKNS_4core11dimension2dIjEERKNS2_6stringIcNS2_12irrAllocatorIcEEEENS0_13ECOLOR_FORMATE @4585
    _ZN3irr5video15CSoftwareDriver23drawVertexPrimitiveListEPKvjS3_jNS0_13E_VERTEX_TYPEENS_5scene16E_PRIMITIVE_TYPEENS0_12E_INDEX_TYPEE @4586
    _ZN3irr5video15CSoftwareDriver24switchToTriangleRendererENS0_17ETriangleRendererE @4587
    _ZN3irr5video15CSoftwareDriver25drawVertexPrimitiveList16EPKvjPKtjNS0_13E_VERTEX_TYPEENS_5scene16E_PRIMITIVE_TYPEE @4588
    _ZN3irr5video15CSoftwareDriver27selectRightTriangleRendererEv @4589
    _ZN3irr5video15CSoftwareDriver28createDeviceDependentTextureEPNS0_6IImageERKNS_4core6stringIcNS4_12irrAllocatorIcEEEEPv @4590
    _ZN3irr5video15CSoftwareDriver31drawClippedIndexedTriangleListTINS0_17S3DVertex2TCoordsEEEvPKT_iPKti @4591
    _ZN3irr5video15CSoftwareDriver31drawClippedIndexedTriangleListTINS0_17S3DVertexTangentsEEEvPKT_iPKti @4592
    _ZN3irr5video15CSoftwareDriver31drawClippedIndexedTriangleListTINS0_9S3DVertexEEEvPKT_iPKti @4593
    _ZN3irr5video15CSoftwareDriver8OnResizeERKNS_4core11dimension2dIjEE @4594
    _ZN3irr5video15CSoftwareDriver8endSceneEv @4595
    _ZN3irr5video15CSoftwareDriver9drawPixelEjjRKNS0_6SColorE @4596
    _ZN3irr5video15CSoftwareDriverC1ERKNS_4core11dimension2dIjEEbPNS_2io11IFileSystemEPNS0_15IImagePresenterE @4597
    _ZN3irr5video15CSoftwareDriverC2ERKNS_4core11dimension2dIjEEbPNS_2io11IFileSystemEPNS0_15IImagePresenterE @4598
    _ZN3irr5video15CSoftwareDriverD0Ev @4599
    _ZN3irr5video15CSoftwareDriverD1Ev @4600
    _ZN3irr5video15CSoftwareDriverD2Ev @4601
    _ZN3irr5video15CTRTextureBlend12drawTriangleEPKNS0_9s4DVertexES4_S4_ @4602
    _ZN3irr5video15CTRTextureBlend15setZCompareFuncEj @4603
    _ZN3irr5video15CTRTextureBlend22fragment_dst_color_oneEv @4604
    _ZN3irr5video15CTRTextureBlend22fragment_src_alpha_oneEv @4605
    _ZN3irr5video15CTRTextureBlend23fragment_dst_color_zeroEv @4606
    _ZN3irr5video15CTRTextureBlend28fragment_dst_color_src_alphaEv @4607
    _ZN3irr5video15CTRTextureBlend28fragment_src_color_src_alphaEv @4608
    _ZN3irr5video15CTRTextureBlend32fragment_one_minus_dst_alpha_oneEv @4609
    _ZN3irr5video15CTRTextureBlend32fragment_one_one_minus_src_alphaEv @4610
    _ZN3irr5video15CTRTextureBlend33fragment_zero_one_minus_scr_colorEv @4611
    _ZN3irr5video15CTRTextureBlend38fragment_dst_color_one_minus_dst_alphaEv @4612
    _ZN3irr5video15CTRTextureBlend8setParamEjf @4613
    _ZN3irr5video15CTRTextureBlendC1EPNS0_12IDepthBufferE @4614
    _ZN3irr5video15CTRTextureBlendC2EPNS0_12IDepthBufferE @4615
    _ZN3irr5video15CTRTextureBlendD0Ev @4616
    _ZN3irr5video15CTRTextureBlendD1Ev @4617
    _ZN3irr5video15CTRTextureWire212drawTriangleEPKNS0_9s4DVertexES4_S4_ @4618
    _ZN3irr5video15CTRTextureWire28drawLineEPKNS0_9s4DVertexES4_ @4619
    _ZN3irr5video15CTRTextureWire2C1EPNS0_12IDepthBufferE @4620
    _ZN3irr5video15CTRTextureWire2C2EPNS0_12IDepthBufferE @4621
    _ZN3irr5video15CTRTextureWire2D0Ev @4622
    _ZN3irr5video15CTRTextureWire2D1Ev @4623
    _ZN3irr5video15IImagePresenterD0Ev @4624
    _ZN3irr5video15IImagePresenterD1Ev @4625
    _ZN3irr5video16CSoftwareTexture10getTextureEv @4626
    _ZN3irr5video16CSoftwareTexture22regenerateMipMapLevelsEPv @4627
    _ZN3irr5video16CSoftwareTexture4lockEbj @4628
    _ZN3irr5video16CSoftwareTexture6unlockEv @4629
    _ZN3irr5video16CSoftwareTexture8getImageEv @4630
    _ZN3irr5video16CSoftwareTextureC1EPNS0_6IImageERKNS_4core6stringIcNS4_12irrAllocatorIcEEEEbPv @4631
    _ZN3irr5video16CSoftwareTextureC2EPNS0_6IImageERKNS_4core6stringIcNS4_12irrAllocatorIcEEEEbPv @4632
    _ZN3irr5video16CSoftwareTextureD0Ev @4633
    _ZN3irr5video16CSoftwareTextureD1Ev @4634
    _ZN3irr5video16CSoftwareTextureD2Ev @4635
    _ZN3irr5video16CTRGouraudAlpha212drawTriangleEPKNS0_9s4DVertexES4_S4_ @4636
    _ZN3irr5video16CTRGouraudAlpha217scanline_bilinearEv @4637
    _ZN3irr5video16CTRGouraudAlpha2C1EPNS0_12IDepthBufferE @4638
    _ZN3irr5video16CTRGouraudAlpha2C2EPNS0_12IDepthBufferE @4639
    _ZN3irr5video16CTRGouraudAlpha2D0Ev @4640
    _ZN3irr5video16CTRGouraudAlpha2D1Ev @4641
    _ZN3irr5video16IdentityMaterialE @4642 DATA
    _ZN3irr5video16createNullDriverEPNS_2io11IFileSystemERKNS_4core11dimension2dIjEE @4643
    _ZN3irr5video17COpenGLFBOTexture7bindRTTEv @4644
    _ZN3irr5video17COpenGLFBOTexture9unbindRTTEv @4645
    _ZN3irr5video17COpenGLFBOTextureC1ERKNS_4core11dimension2dIjEERKNS2_6stringIcNS2_12irrAllocatorIcEEEEPNS0_13COpenGLDriverENS0_13ECOLOR_FORMATE @4646
    _ZN3irr5video17COpenGLFBOTextureC2ERKNS_4core11dimension2dIjEERKNS2_6stringIcNS2_12irrAllocatorIcEEEEPNS0_13COpenGLDriverENS0_13ECOLOR_FORMATE @4647
    _ZN3irr5video17COpenGLFBOTextureD0Ev @4648
    _ZN3irr5video17COpenGLFBOTextureD1Ev @4649
    _ZN3irr5video17COpenGLFBOTextureD2Ev @4650
    _ZN3irr5video17CSoftwareTexture222regenerateMipMapLevelsEPv @4651
    _ZN3irr5video17CSoftwareTexture24lockEbj @4652
    _ZN3irr5video17CSoftwareTexture26unlockEv @4653
    _ZN3irr5video17CSoftwareTexture2C1EPNS0_6IImageERKNS_4core6stringIcNS4_12irrAllocatorIcEEEEjPv @4654
    _ZN3irr5video17CSoftwareTexture2C2EPNS0_6IImageERKNS_4core6stringIcNS4_12irrAllocatorIcEEEEjPv @4655
    _ZN3irr5video17CSoftwareTexture2D0Ev @4656
    _ZN3irr5video17CSoftwareTexture2D1Ev @4657
    _ZN3irr5video17CSoftwareTexture2D2Ev @4658
    _ZN3irr5video17CTRTextureGouraud10setTextureEPNS0_6IImageE @4659
    _ZN3irr5video17CTRTextureGouraud15setRenderTargetEPNS0_6IImageERKNS_4core4rectIiEE @4660
    _ZN3irr5video17CTRTextureGouraud18setBackfaceCullingEb @4661
    _ZN3irr5video17CTRTextureGouraud23drawIndexedTriangleListEPNS0_9S2DVertexEiPKti @4662
    _ZN3irr5video17CTRTextureGouraudC1EPNS0_8IZBufferE @4663
    _ZN3irr5video17CTRTextureGouraudC2EPNS0_8IZBufferE @4664
    _ZN3irr5video17CTRTextureGouraudD0Ev @4665
    _ZN3irr5video17CTRTextureGouraudD1Ev @4666
    _ZN3irr5video17CTRTextureGouraudD2Ev @4667
    _ZN3irr5video17IMaterialRenderer13OnSetMaterialERKNS0_9SMaterialES4_bPNS0_25IMaterialRendererServicesE @4668
    _ZN3irr5video17IMaterialRenderer15OnUnsetMaterialEv @4669
    _ZN3irr5video17IMaterialRenderer8OnRenderEPNS0_25IMaterialRendererServicesENS0_13E_VERTEX_TYPEE @4670
    _ZN3irr5video17IMaterialRendererD0Ev @4671
    _ZN3irr5video17IMaterialRendererD1Ev @4672
    _ZN3irr5video17ITriangleRendererD0Ev @4673
    _ZN3irr5video17ITriangleRendererD1Ev @4674
    _ZN3irr5video17createDepthBufferERKNS_4core11dimension2dIjEE @4675
    _ZN3irr5video18CTRTextureFlatWire23drawIndexedTriangleListEPNS0_9S2DVertexEiPKti @4676
    _ZN3irr5video18CTRTextureFlatWireD0Ev @4677
    _ZN3irr5video18CTRTextureFlatWireD1Ev @4678
    _ZN3irr5video18CTRTextureGouraud212drawTriangleEPKNS0_9s4DVertexES4_S4_ @4679
    _ZN3irr5video18CTRTextureGouraud217scanline_bilinearEv @4680
    _ZN3irr5video18CTRTextureGouraud2C1EPNS0_12IDepthBufferE @4681
    _ZN3irr5video18CTRTextureGouraud2C2EPNS0_12IDepthBufferE @4682
    _ZN3irr5video18CTRTextureGouraud2D0Ev @4683
    _ZN3irr5video18CTRTextureGouraud2D1Ev @4684
    _ZN3irr5video18createOpenGLDriverERKNS_27SIrrlichtCreationParametersEPNS_2io11IFileSystemEPNS_15CIrrDeviceWin32E @4685
    _ZN3irr5video18user_read_data_fcnEP14png_struct_defPhj @4686
    _ZN3irr5video19CBurningVideoDriver10beginSceneEbbNS0_6SColorERKNS0_17SExposedVideoDataEPNS_4core4rectIiEE @4687
    _ZN3irr5video19CBurningVideoDriver10draw2DLineERKNS_4core8vector2dIiEES6_NS0_6SColorE @4688
    _ZN3irr5video19CBurningVideoDriver10draw3DLineERKNS_4core8vector3dIfEES6_NS0_6SColorE @4689
    _ZN3irr5video19CBurningVideoDriver11draw2DImageEPKNS0_8ITextureERKNS_4core8vector2dIiEERKNS5_4rectIiEEPSC_NS0_6SColorEb @4690
    _ZN3irr5video19CBurningVideoDriver11lightVertexEPNS0_9s4DVertexEj @4691
    _ZN3irr5video19CBurningVideoDriver11setMaterialERKNS0_9SMaterialE @4692
    _ZN3irr5video19CBurningVideoDriver11setViewPortERKNS_4core4rectIiEE @4693
    _ZN3irr5video19CBurningVideoDriver11turnLightOnEib @4694
    _ZN3irr5video19CBurningVideoDriver12clearZBufferEv @4695
    _ZN3irr5video19CBurningVideoDriver12setTransformENS0_22E_TRANSFORMATION_STATEERKNS_4core8CMatrix4IfEE @4696
    _ZN3irr5video19CBurningVideoDriver13clipToFrustumEPNS0_9s4DVertexES3_j @4697
    _ZN3irr5video19CBurningVideoDriver13getVendorInfoEv @4698
    _ZN3irr5video19CBurningVideoDriver15addDynamicLightERKNS0_6SLightE @4699
    _ZN3irr5video19CBurningVideoDriver15draw2DRectangleENS0_6SColorERKNS_4core4rectIiEEPS6_ @4700
    _ZN3irr5video19CBurningVideoDriver15draw2DRectangleERKNS_4core4rectIiEENS0_6SColorES7_S7_S7_PS5_ @4701
    _ZN3irr5video19CBurningVideoDriver15setAmbientLightERKNS0_7SColorfE @4702
    _ZN3irr5video19CBurningVideoDriver15setRenderTargetEPNS0_6CImageE @4703
    _ZN3irr5video19CBurningVideoDriver15setRenderTargetEPNS0_8ITextureEbbNS0_6SColorE @4704
    _ZN3irr5video19CBurningVideoDriver16VertexCache_fillEjj @4705
    _ZN3irr5video19CBurningVideoDriver16clipToHyperPlaneEPNS0_9s4DVertexEPKS2_jRKNS0_5sVec4E @4706
    _ZN3irr5video19CBurningVideoDriver16createScreenShotEv @4707
    _ZN3irr5video19CBurningVideoDriver16setCurrentShaderEv @4708
    _ZN3irr5video19CBurningVideoDriver17VertexCache_resetEPKvjS3_jNS0_13E_VERTEX_TYPEENS_5scene16E_PRIMITIVE_TYPEENS0_12E_INDEX_TYPEE @4709
    _ZN3irr5video19CBurningVideoDriver17drawStencilShadowEbNS0_6SColorES2_S2_S2_ @4710
    _ZN3irr5video19CBurningVideoDriver22addRenderTargetTextureERKNS_4core11dimension2dIjEERKNS2_6stringIcNS2_12irrAllocatorIcEEEENS0_13ECOLOR_FORMATE @4711
    _ZN3irr5video19CBurningVideoDriver22deleteAllDynamicLightsEv @4712
    _ZN3irr5video19CBurningVideoDriver22getCameraPosWorldSpaceEv @4713
    _ZN3irr5video19CBurningVideoDriver23drawStencilShadowVolumeEPKNS_4core8vector3dIfEEib @4714
    _ZN3irr5video19CBurningVideoDriver23drawVertexPrimitiveListEPKvjS3_jNS0_13E_VERTEX_TYPEENS_5scene16E_PRIMITIVE_TYPEENS0_12E_INDEX_TYPEE @4715
    _ZN3irr5video19CBurningVideoDriver28createDeviceDependentTextureEPNS0_6IImageERKNS_4core6stringIcNS4_12irrAllocatorIcEEEEPv @4716
    _ZN3irr5video19CBurningVideoDriver5vSizeE @4717 DATA
    _ZN3irr5video19CBurningVideoDriver6setFogENS0_6SColorENS0_10E_FOG_TYPEEfffbb @4718
    _ZN3irr5video19CBurningVideoDriver8NDCPlaneE @4719 DATA
    _ZN3irr5video19CBurningVideoDriver8OnResizeERKNS_4core11dimension2dIjEE @4720
    _ZN3irr5video19CBurningVideoDriver8endSceneEv @4721
    _ZN3irr5video19CBurningVideoDriver9drawPixelEjjRKNS0_6SColorE @4722
    _ZN3irr5video19CBurningVideoDriverC1ERKNS_4core11dimension2dIjEEbPNS_2io11IFileSystemEPNS0_15IImagePresenterE @4723
    _ZN3irr5video19CBurningVideoDriverC2ERKNS_4core11dimension2dIjEEbPNS_2io11IFileSystemEPNS0_15IImagePresenterE @4724
    _ZN3irr5video19CBurningVideoDriverD0Ev @4725
    _ZN3irr5video19CBurningVideoDriverD1Ev @4726
    _ZN3irr5video19CBurningVideoDriverD2Ev @4727
    _ZN3irr5video19CTRGouraudAlphaNoZ212drawTriangleEPKNS0_9s4DVertexES4_S4_ @4728
    _ZN3irr5video19CTRGouraudAlphaNoZ217scanline_bilinearEv @4729
    _ZN3irr5video19CTRGouraudAlphaNoZ2C1EPNS0_12IDepthBufferE @4730
    _ZN3irr5video19CTRGouraudAlphaNoZ2C2EPNS0_12IDepthBufferE @4731
    _ZN3irr5video19CTRGouraudAlphaNoZ2D0Ev @4732
    _ZN3irr5video19CTRGouraudAlphaNoZ2D1Ev @4733
    _ZN3irr5video19SphereMapMatrixD3D9E @4734 DATA
    _ZN3irr5video19user_write_data_fcnEP14png_struct_defPhj @4735
    _ZN3irr5video20CTRTextureDetailMap212drawTriangleEPKNS0_9s4DVertexES4_S4_ @4736
    _ZN3irr5video20CTRTextureDetailMap217scanline_bilinearEv @4737
    _ZN3irr5video20CTRTextureDetailMap2C1EPNS0_12IDepthBufferE @4738
    _ZN3irr5video20CTRTextureDetailMap2C2EPNS0_12IDepthBufferE @4739
    _ZN3irr5video20CTRTextureDetailMap2D0Ev @4740
    _ZN3irr5video20CTRTextureDetailMap2D1Ev @4741
    _ZN3irr5video20CTRTextureGouraudAdd23drawIndexedTriangleListEPNS0_9S2DVertexEiPKti @4742
    _ZN3irr5video20CTRTextureGouraudAddC1EPNS0_8IZBufferE @4743
    _ZN3irr5video20CTRTextureGouraudAddC2EPNS0_8IZBufferE @4744
    _ZN3irr5video20CTRTextureGouraudAddD0Ev @4745
    _ZN3irr5video20CTRTextureGouraudAddD1Ev @4746
    _ZN3irr5video20CTRTextureGouraudNoZ23drawIndexedTriangleListEPNS0_9S2DVertexEiPKti @4747
    _ZN3irr5video20CTRTextureGouraudNoZD0Ev @4748
    _ZN3irr5video20CTRTextureGouraudNoZD1Ev @4749
    _ZN3irr5video20createDirectX9DriverERKNS_4core11dimension2dIjEEP6HWND__jbbPNS_2io11IFileSystemEbbbh @4750
    _ZN3irr5video20createImageLoaderBMPEv @4751
    _ZN3irr5video20createImageLoaderJPGEv @4752
    _ZN3irr5video20createImageLoaderPCXEv @4753
    _ZN3irr5video20createImageLoaderPNGEv @4754
    _ZN3irr5video20createImageLoaderPPMEv @4755
    _ZN3irr5video20createImageLoaderPSDEv @4756
    _ZN3irr5video20createImageLoaderRGBEv @4757
    _ZN3irr5video20createImageLoaderTGAEv @4758
    _ZN3irr5video20createImageLoaderWALEv @4759
    _ZN3irr5video20createImageWriterBMPEv @4760
    _ZN3irr5video20createImageWriterJPGEv @4761
    _ZN3irr5video20createImageWriterPCXEv @4762
    _ZN3irr5video20createImageWriterPNGEv @4763
    _ZN3irr5video20createImageWriterPPMEv @4764
    _ZN3irr5video20createImageWriterPSDEv @4765
    _ZN3irr5video20createImageWriterTGAEv @4766
    _ZN3irr5video20createSoftwareDriverERKNS_4core11dimension2dIjEEbPNS_2io11IFileSystemEPNS0_15IImagePresenterE @4767
    _ZN3irr5video20createTRTextureBlendEPNS0_12IDepthBufferE @4768
    _ZN3irr5video21CD3D9MaterialRenderer11setVariableEbPKcPKfi @4769
    _ZN3irr5video21CD3D9MaterialRendererD0Ev @4770
    _ZN3irr5video21CD3D9MaterialRendererD1Ev @4771
    _ZN3irr5video21CTRTextureGouraudAdd212drawTriangleEPKNS0_9s4DVertexES4_S4_ @4772
    _ZN3irr5video21CTRTextureGouraudAdd217scanline_bilinearEv @4773
    _ZN3irr5video21CTRTextureGouraudAdd2C1EPNS0_12IDepthBufferE @4774
    _ZN3irr5video21CTRTextureGouraudAdd2C2EPNS0_12IDepthBufferE @4775
    _ZN3irr5video21CTRTextureGouraudAdd2D0Ev @4776
    _ZN3irr5video21CTRTextureGouraudAdd2D1Ev @4777
    _ZN3irr5video21CTRTextureGouraudNoZ212drawTriangleEPKNS0_9s4DVertexES4_S4_ @4778
    _ZN3irr5video21CTRTextureGouraudNoZ217scanline_bilinearEv @4779
    _ZN3irr5video21CTRTextureGouraudNoZ2C1EPNS0_12IDepthBufferE @4780
    _ZN3irr5video21CTRTextureGouraudNoZ2C2EPNS0_12IDepthBufferE @4781
    _ZN3irr5video21CTRTextureGouraudNoZ2D0Ev @4782
    _ZN3irr5video21CTRTextureGouraudNoZ2D1Ev @4783
    _ZN3irr5video21CTRTextureGouraudWire23drawIndexedTriangleListEPNS0_9S2DVertexEiPKti @4784
    _ZN3irr5video21CTRTextureGouraudWireD0Ev @4785
    _ZN3irr5video21CTRTextureGouraudWireD1Ev @4786
    _ZN3irr5video21createSoftwareDriver2ERKNS_4core11dimension2dIjEEbPNS_2io11IFileSystemEPNS0_15IImagePresenterE @4787
    _ZN3irr5video22CD3D9NormalMapRenderer14OnSetConstantsEPNS0_25IMaterialRendererServicesEi @4788
    _ZN3irr5video22CD3D9NormalMapRenderer8OnRenderEPNS0_25IMaterialRendererServicesENS0_13E_VERTEX_TYPEE @4789
    _ZN3irr5video22CD3D9NormalMapRendererC1EP16IDirect3DDevice9PNS0_12IVideoDriverERiPNS0_17IMaterialRendererE @4790
    _ZN3irr5video22CD3D9NormalMapRendererC2EP16IDirect3DDevice9PNS0_12IVideoDriverERiPNS0_17IMaterialRendererE @4791
    _ZN3irr5video22CD3D9NormalMapRendererD0Ev @4792
    _ZN3irr5video22CD3D9NormalMapRendererD1Ev @4793
    _ZN3irr5video22CD3D9NormalMapRendererD2Ev @4794
    _ZN3irr5video22COpenGLFBODepthTexture6attachEPNS0_8ITextureE @4795
    _ZN3irr5video22COpenGLFBODepthTexture7bindRTTEv @4796
    _ZN3irr5video22COpenGLFBODepthTexture9unbindRTTEv @4797
    _ZN3irr5video22COpenGLFBODepthTextureC1ERKNS_4core11dimension2dIjEERKNS2_6stringIcNS2_12irrAllocatorIcEEEEPNS0_13COpenGLDriverEb @4798
    _ZN3irr5video22COpenGLFBODepthTextureC2ERKNS_4core11dimension2dIjEERKNS2_6stringIcNS2_12irrAllocatorIcEEEEPNS0_13COpenGLDriverEb @4799
    _ZN3irr5video22COpenGLFBODepthTextureD0Ev @4800
    _ZN3irr5video22COpenGLFBODepthTextureD1Ev @4801
    _ZN3irr5video22COpenGLFBODepthTextureD2Ev @4802
    _ZN3irr5video22CTRTextureLightMap2_M112drawTriangleEPKNS0_9s4DVertexES4_S4_ @4803
    _ZN3irr5video22CTRTextureLightMap2_M1C1EPNS0_12IDepthBufferE @4804
    _ZN3irr5video22CTRTextureLightMap2_M1C2EPNS0_12IDepthBufferE @4805
    _ZN3irr5video22CTRTextureLightMap2_M1D0Ev @4806
    _ZN3irr5video22CTRTextureLightMap2_M1D1Ev @4807
    _ZN3irr5video22CTRTextureLightMap2_M212drawTriangleEPKNS0_9s4DVertexES4_S4_ @4808
    _ZN3irr5video22CTRTextureLightMap2_M2C1EPNS0_12IDepthBufferE @4809
    _ZN3irr5video22CTRTextureLightMap2_M2C2EPNS0_12IDepthBufferE @4810
    _ZN3irr5video22CTRTextureLightMap2_M2D0Ev @4811
    _ZN3irr5video22CTRTextureLightMap2_M2D1Ev @4812
    _ZN3irr5video22CTRTextureLightMap2_M412drawTriangleEPKNS0_9s4DVertexES4_S4_ @4813
    _ZN3irr5video22CTRTextureLightMap2_M416drawTriangle_MagEPKNS0_9s4DVertexES4_S4_ @4814
    _ZN3irr5video22CTRTextureLightMap2_M416drawTriangle_MinEPKNS0_9s4DVertexES4_S4_ @4815
    _ZN3irr5video22CTRTextureLightMap2_M4C1EPNS0_12IDepthBufferE @4816
    _ZN3irr5video22CTRTextureLightMap2_M4C2EPNS0_12IDepthBufferE @4817
    _ZN3irr5video22CTRTextureLightMap2_M4D0Ev @4818
    _ZN3irr5video22CTRTextureLightMap2_M4D1Ev @4819
    _ZN3irr5video22CTRTextureVertexAlpha212drawTriangleEPKNS0_9s4DVertexES4_S4_ @4820
    _ZN3irr5video22CTRTextureVertexAlpha217scanline_bilinearEv @4821
    _ZN3irr5video22CTRTextureVertexAlpha2C1EPNS0_12IDepthBufferE @4822
    _ZN3irr5video22CTRTextureVertexAlpha2C2EPNS0_12IDepthBufferE @4823
    _ZN3irr5video22CTRTextureVertexAlpha2D0Ev @4824
    _ZN3irr5video22CTRTextureVertexAlpha2D1Ev @4825
    _ZN3irr5video22SBurningShaderMaterialD1Ev @4826
    _ZN3irr5video23COpenGLExtensionHandler14initExtensionsEb @4827
    _ZN3irr5video23COpenGLExtensionHandler15extGlBufferDataEjiPKvj @4828
    _ZN3irr5video23COpenGLExtensionHandler22extGlProgramParameteriEjji @4829
    _ZN3irr5video23COpenGLExtensionHandler24extGlClientActiveTextureEj @4830
    _ZN3irr5video23COpenGLExtensionHandlerC1Ev @4831
    _ZN3irr5video23COpenGLExtensionHandlerC2Ev @4832
    _ZN3irr5video23COpenGLMaterialRendererD0Ev @4833
    _ZN3irr5video23COpenGLMaterialRendererD1Ev @4834
    _ZN3irr5video23CTRGTextureLightMap2_M412drawTriangleEPKNS0_9s4DVertexES4_S4_ @4835
    _ZN3irr5video23CTRGTextureLightMap2_M417scanline_bilinearEv @4836
    _ZN3irr5video23CTRGTextureLightMap2_M4C1EPNS0_12IDepthBufferE @4837
    _ZN3irr5video23CTRGTextureLightMap2_M4C2EPNS0_12IDepthBufferE @4838
    _ZN3irr5video23CTRGTextureLightMap2_M4D0Ev @4839
    _ZN3irr5video23CTRGTextureLightMap2_M4D1Ev @4840
    _ZN3irr5video23CTRTextureGouraudAlpha212drawTriangleEPKNS0_9s4DVertexES4_S4_ @4841
    _ZN3irr5video23CTRTextureGouraudAlpha217scanline_bilinearEv @4842
    _ZN3irr5video23CTRTextureGouraudAlpha28setParamEjf @4843
    _ZN3irr5video23CTRTextureGouraudAlpha2C1EPNS0_12IDepthBufferE @4844
    _ZN3irr5video23CTRTextureGouraudAlpha2C2EPNS0_12IDepthBufferE @4845
    _ZN3irr5video23CTRTextureGouraudAlpha2D0Ev @4846
    _ZN3irr5video23CTRTextureGouraudAlpha2D1Ev @4847
    _ZN3irr5video23CTRTextureLightMap2_Add12drawTriangleEPKNS0_9s4DVertexES4_S4_ @4848
    _ZN3irr5video23CTRTextureLightMap2_AddC1EPNS0_12IDepthBufferE @4849
    _ZN3irr5video23CTRTextureLightMap2_AddC2EPNS0_12IDepthBufferE @4850
    _ZN3irr5video23CTRTextureLightMap2_AddD0Ev @4851
    _ZN3irr5video23CTRTextureLightMap2_AddD1Ev @4852
    _ZN3irr5video23IGPUProgrammingServicesD0Ev @4853
    _ZN3irr5video23IGPUProgrammingServicesD1Ev @4854
    _ZN3irr5video24CD3D9ParallaxMapRenderer13OnSetMaterialERKNS0_9SMaterialE @4855
    _ZN3irr5video24CD3D9ParallaxMapRenderer13OnSetMaterialERKNS0_9SMaterialES4_bPNS0_25IMaterialRendererServicesE @4856
    _ZN3irr5video24CD3D9ParallaxMapRenderer14OnSetConstantsEPNS0_25IMaterialRendererServicesEi @4857
    _ZN3irr5video24CD3D9ParallaxMapRenderer8OnRenderEPNS0_25IMaterialRendererServicesENS0_13E_VERTEX_TYPEE @4858
    _ZN3irr5video24CD3D9ParallaxMapRendererC1EP16IDirect3DDevice9PNS0_12IVideoDriverERiPNS0_17IMaterialRendererE @4859
    _ZN3irr5video24CD3D9ParallaxMapRendererC2EP16IDirect3DDevice9PNS0_12IVideoDriverERiPNS0_17IMaterialRendererE @4860
    _ZN3irr5video24CD3D9ParallaxMapRendererD0Ev @4861
    _ZN3irr5video24CD3D9ParallaxMapRendererD1Ev @4862
    _ZN3irr5video24CD3D9ParallaxMapRendererD2Ev @4863
    _ZN3irr5video24COpenGLNormalMapRenderer14OnSetConstantsEPNS0_25IMaterialRendererServicesEi @4864
    _ZN3irr5video24COpenGLNormalMapRendererC1EPNS0_13COpenGLDriverERiPNS0_17IMaterialRendererE @4865
    _ZN3irr5video24COpenGLNormalMapRendererC2EPNS0_13COpenGLDriverERiPNS0_17IMaterialRendererE @4866
    _ZN3irr5video24COpenGLNormalMapRendererD0Ev @4867
    _ZN3irr5video24COpenGLNormalMapRendererD1Ev @4868
    _ZN3irr5video24COpenGLNormalMapRendererD2Ev @4869
    _ZN3irr5video24CTRTextureGouraudAddNoZ212drawTriangleEPKNS0_9s4DVertexES4_S4_ @4870
    _ZN3irr5video24CTRTextureGouraudAddNoZ217scanline_bilinearEv @4871
    _ZN3irr5video24CTRTextureGouraudAddNoZ2C1EPNS0_12IDepthBufferE @4872
    _ZN3irr5video24CTRTextureGouraudAddNoZ2C2EPNS0_12IDepthBufferE @4873
    _ZN3irr5video24CTRTextureGouraudAddNoZ2D0Ev @4874
    _ZN3irr5video24CTRTextureGouraudAddNoZ2D1Ev @4875
    _ZN3irr5video24SBurningShaderLightSpaceD1Ev @4876
    _ZN3irr5video24createTRGouraudAlphaNoZ2EPNS0_12IDepthBufferE @4877
    _ZN3irr5video25CD3D9HLSLMaterialRenderer11setVariableEbPKcPKfi @4878
    _ZN3irr5video25CD3D9HLSLMaterialRenderer18printHLSLVariablesEP18ID3DXConstantTable @4879
    _ZN3irr5video25CD3D9HLSLMaterialRenderer21createHLSLPixelShaderEPKcS3_S3_ @4880
    _ZN3irr5video25CD3D9HLSLMaterialRenderer22createHLSLVertexShaderEPKcS3_S3_ @4881
    _ZN3irr5video25CD3D9HLSLMaterialRenderer8OnRenderEPNS0_25IMaterialRendererServicesENS0_13E_VERTEX_TYPEE @4882
    _ZN3irr5video25CD3D9HLSLMaterialRendererC1EP16IDirect3DDevice9PNS0_12IVideoDriverERiPKcS8_NS0_20E_VERTEX_SHADER_TYPEES8_S8_NS0_19E_PIXEL_SHADER_TYPEEPNS0_26IShaderConstantSetCallBackEPNS0_17IMaterialRendererEi @4883
    _ZN3irr5video25CD3D9HLSLMaterialRendererC2EP16IDirect3DDevice9PNS0_12IVideoDriverERiPKcS8_NS0_20E_VERTEX_SHADER_TYPEES8_S8_NS0_19E_PIXEL_SHADER_TYPEEPNS0_26IShaderConstantSetCallBackEPNS0_17IMaterialRendererEi @4884
    _ZN3irr5video25CD3D9HLSLMaterialRendererD0Ev @4885
    _ZN3irr5video25CD3D9HLSLMaterialRendererD1Ev @4886
    _ZN3irr5video25CD3D9HLSLMaterialRendererD2Ev @4887
    _ZN3irr5video25COpenGLSLMaterialRenderer11linkProgramEv @4888
    _ZN3irr5video25COpenGLSLMaterialRenderer12createShaderEjPKc @4889
    _ZN3irr5video25COpenGLSLMaterialRenderer13OnSetMaterialERKNS0_9SMaterialES4_bPNS0_25IMaterialRendererServicesE @4890
    _ZN3irr5video25COpenGLSLMaterialRenderer13createProgramEv @4891
    _ZN3irr5video25COpenGLSLMaterialRenderer14getVideoDriverEv @4892
    _ZN3irr5video25COpenGLSLMaterialRenderer15OnUnsetMaterialEv @4893
    _ZN3irr5video25COpenGLSLMaterialRenderer20setBasicRenderStatesERKNS0_9SMaterialES4_b @4894
    _ZN3irr5video25COpenGLSLMaterialRenderer22setPixelShaderConstantEPKcPKfi @4895
    _ZN3irr5video25COpenGLSLMaterialRenderer22setPixelShaderConstantEPKfii @4896
    _ZN3irr5video25COpenGLSLMaterialRenderer23setVertexShaderConstantEPKcPKfi @4897
    _ZN3irr5video25COpenGLSLMaterialRenderer23setVertexShaderConstantEPKfii @4898
    _ZN3irr5video25COpenGLSLMaterialRenderer4initERiPKcS4_S4_NS_5scene16E_PRIMITIVE_TYPEES6_j @4899
    _ZN3irr5video25COpenGLSLMaterialRenderer8OnRenderEPNS0_25IMaterialRendererServicesENS0_13E_VERTEX_TYPEE @4900
    _ZN3irr5video25COpenGLSLMaterialRendererC1EPNS0_13COpenGLDriverEPNS0_26IShaderConstantSetCallBackEPNS0_17IMaterialRendererEi @4901
    _ZN3irr5video25COpenGLSLMaterialRendererC1EPNS0_13COpenGLDriverERiPKcS6_NS0_20E_VERTEX_SHADER_TYPEES6_S6_NS0_19E_PIXEL_SHADER_TYPEES6_S6_NS0_22E_GEOMETRY_SHADER_TYPEENS_5scene16E_PRIMITIVE_TYPEESB_jPNS0_26IShaderConstantSetCallBackEPNS0_17IMaterialRendererEi @4902
    _ZN3irr5video25COpenGLSLMaterialRendererC2EPNS0_13COpenGLDriverEPNS0_26IShaderConstantSetCallBackEPNS0_17IMaterialRendererEi @4903
    _ZN3irr5video25COpenGLSLMaterialRendererC2EPNS0_13COpenGLDriverERiPKcS6_NS0_20E_VERTEX_SHADER_TYPEES6_S6_NS0_19E_PIXEL_SHADER_TYPEES6_S6_NS0_22E_GEOMETRY_SHADER_TYPEENS_5scene16E_PRIMITIVE_TYPEESB_jPNS0_26IShaderConstantSetCallBackEPNS0_17IMaterialRendererEi @4904
    _ZN3irr5video25COpenGLSLMaterialRendererD0Ev @4905
    _ZN3irr5video25COpenGLSLMaterialRendererD1Ev @4906
    _ZN3irr5video25COpenGLSLMaterialRendererD2Ev @4907
    _ZN3irr5video25CTRTextureGouraudAlphaNoZ12drawTriangleEPKNS0_9s4DVertexES4_S4_ @4908
    _ZN3irr5video25CTRTextureGouraudAlphaNoZ17scanline_bilinearEv @4909
    _ZN3irr5video25CTRTextureGouraudAlphaNoZ8setParamEjf @4910
    _ZN3irr5video25CTRTextureGouraudAlphaNoZC1EPNS0_12IDepthBufferE @4911
    _ZN3irr5video25CTRTextureGouraudAlphaNoZC2EPNS0_12IDepthBufferE @4912
    _ZN3irr5video25CTRTextureGouraudAlphaNoZD0Ev @4913
    _ZN3irr5video25CTRTextureGouraudAlphaNoZD1Ev @4914
    _ZN3irr5video25IMaterialRendererServicesD0Ev @4915
    _ZN3irr5video25IMaterialRendererServicesD1Ev @4916
    _ZN3irr5video26COpenGLParallaxMapRenderer13OnSetMaterialERKNS0_9SMaterialE @4917
    _ZN3irr5video26COpenGLParallaxMapRenderer13OnSetMaterialERKNS0_9SMaterialES4_bPNS0_25IMaterialRendererServicesE @4918
    _ZN3irr5video26COpenGLParallaxMapRenderer14OnSetConstantsEPNS0_25IMaterialRendererServicesEi @4919
    _ZN3irr5video26COpenGLParallaxMapRendererC1EPNS0_13COpenGLDriverERiPNS0_17IMaterialRendererE @4920
    _ZN3irr5video26COpenGLParallaxMapRendererC2EPNS0_13COpenGLDriverERiPNS0_17IMaterialRendererE @4921
    _ZN3irr5video26COpenGLParallaxMapRendererD0Ev @4922
    _ZN3irr5video26COpenGLParallaxMapRendererD1Ev @4923
    _ZN3irr5video26COpenGLParallaxMapRendererD2Ev @4924
    _ZN3irr5video26CSoftware2MaterialRendererD0Ev @4925
    _ZN3irr5video26CSoftware2MaterialRendererD1Ev @4926
    _ZN3irr5video26IShaderConstantSetCallBack13OnSetMaterialERKNS0_9SMaterialE @4927
    _ZN3irr5video26IShaderConstantSetCallBackD0Ev @4928
    _ZN3irr5video26IShaderConstantSetCallBackD1Ev @4929
    _ZN3irr5video26createTRTextureGouraudAdd2EPNS0_12IDepthBufferE @4930
    _ZN3irr5video26createTRTextureGouraudNoZ2Ev @4931
    _ZN3irr5video26createTriangleRendererFlatEPNS0_8IZBufferE @4932
    _ZN3irr5video27CD3D9MaterialRenderer_SOLID13OnSetMaterialERKNS0_9SMaterialES4_bPNS0_25IMaterialRendererServicesE @4933
    _ZN3irr5video27CD3D9MaterialRenderer_SOLIDD0Ev @4934
    _ZN3irr5video27CD3D9MaterialRenderer_SOLIDD1Ev @4935
    _ZN3irr5video27CD3D9ShaderMaterialRenderer13OnSetMaterialERKNS0_9SMaterialES4_bPNS0_25IMaterialRendererServicesE @4936
    _ZN3irr5video27CD3D9ShaderMaterialRenderer15OnUnsetMaterialEv @4937
    _ZN3irr5video27CD3D9ShaderMaterialRenderer17createPixelShaderEPKc @4938
    _ZN3irr5video27CD3D9ShaderMaterialRenderer18createVertexShaderEPKc @4939
    _ZN3irr5video27CD3D9ShaderMaterialRenderer21stubD3DXCompileShaderEPKcjPK10_D3DXMACROP12ID3DXIncludeS3_S3_mPP11ID3DXBufferSB_PP18ID3DXConstantTable @4940
    _ZN3irr5video27CD3D9ShaderMaterialRenderer22stubD3DXAssembleShaderEPKcjPK10_D3DXMACROP12ID3DXIncludemPP11ID3DXBufferSB_ @4941
    _ZN3irr5video27CD3D9ShaderMaterialRenderer29stubD3DXCompileShaderFromFileEPKcPK10_D3DXMACROP12ID3DXIncludeS3_S3_mPP11ID3DXBufferSB_PP18ID3DXConstantTable @4942
    _ZN3irr5video27CD3D9ShaderMaterialRenderer30stubD3DXAssembleShaderFromFileEPKcPK10_D3DXMACROP12ID3DXIncludemPP11ID3DXBufferSB_ @4943
    _ZN3irr5video27CD3D9ShaderMaterialRenderer4initERiPKcS4_ @4944
    _ZN3irr5video27CD3D9ShaderMaterialRenderer8OnRenderEPNS0_25IMaterialRendererServicesENS0_13E_VERTEX_TYPEE @4945
    _ZN3irr5video27CD3D9ShaderMaterialRendererC1EP16IDirect3DDevice9PNS0_12IVideoDriverEPNS0_26IShaderConstantSetCallBackEPNS0_17IMaterialRendererEi @4946
    _ZN3irr5video27CD3D9ShaderMaterialRendererC1EP16IDirect3DDevice9PNS0_12IVideoDriverERiPKcS8_PNS0_26IShaderConstantSetCallBackEPNS0_17IMaterialRendererEi @4947
    _ZN3irr5video27CD3D9ShaderMaterialRendererC2EP16IDirect3DDevice9PNS0_12IVideoDriverEPNS0_26IShaderConstantSetCallBackEPNS0_17IMaterialRendererEi @4948
    _ZN3irr5video27CD3D9ShaderMaterialRendererC2EP16IDirect3DDevice9PNS0_12IVideoDriverERiPKcS8_PNS0_26IShaderConstantSetCallBackEPNS0_17IMaterialRendererEi @4949
    _ZN3irr5video27CD3D9ShaderMaterialRendererD0Ev @4950
    _ZN3irr5video27CD3D9ShaderMaterialRendererD1Ev @4951
    _ZN3irr5video27CD3D9ShaderMaterialRendererD2Ev @4952
    _ZN3irr5video27createTRTextureGouraudAlphaEPNS0_12IDepthBufferE @4953
    _ZN3irr5video29COpenGLMaterialRenderer_SOLID13OnSetMaterialERKNS0_9SMaterialES4_bPNS0_25IMaterialRendererServicesE @4954
    _ZN3irr5video29COpenGLMaterialRenderer_SOLIDD0Ev @4955
    _ZN3irr5video29COpenGLMaterialRenderer_SOLIDD1Ev @4956
    _ZN3irr5video29COpenGLShaderMaterialRenderer10checkErrorEPKc @4957
    _ZN3irr5video29COpenGLShaderMaterialRenderer13OnSetMaterialERKNS0_9SMaterialES4_bPNS0_25IMaterialRendererServicesE @4958
    _ZN3irr5video29COpenGLShaderMaterialRenderer15OnUnsetMaterialEv @4959
    _ZN3irr5video29COpenGLShaderMaterialRenderer17createPixelShaderEPKc @4960
    _ZN3irr5video29COpenGLShaderMaterialRenderer18createVertexShaderEPKc @4961
    _ZN3irr5video29COpenGLShaderMaterialRenderer4initERiPKcS4_NS0_13E_VERTEX_TYPEE @4962
    _ZN3irr5video29COpenGLShaderMaterialRenderer8OnRenderEPNS0_25IMaterialRendererServicesENS0_13E_VERTEX_TYPEE @4963
    _ZN3irr5video29COpenGLShaderMaterialRendererC1EPNS0_13COpenGLDriverEPNS0_26IShaderConstantSetCallBackEPNS0_17IMaterialRendererEi @4964
    _ZN3irr5video29COpenGLShaderMaterialRendererC1EPNS0_13COpenGLDriverERiPKcS6_PNS0_26IShaderConstantSetCallBackEPNS0_17IMaterialRendererEi @4965
    _ZN3irr5video29COpenGLShaderMaterialRendererC2EPNS0_13COpenGLDriverEPNS0_26IShaderConstantSetCallBackEPNS0_17IMaterialRendererEi @4966
    _ZN3irr5video29COpenGLShaderMaterialRendererC2EPNS0_13COpenGLDriverERiPKcS6_PNS0_26IShaderConstantSetCallBackEPNS0_17IMaterialRendererEi @4967
    _ZN3irr5video29COpenGLShaderMaterialRendererD0Ev @4968
    _ZN3irr5video29COpenGLShaderMaterialRendererD1Ev @4969
    _ZN3irr5video29COpenGLShaderMaterialRendererD2Ev @4970
    _ZN3irr5video29createTRTextureGouraudAddNoZ2EPNS0_12IDepthBufferE @4971
    _ZN3irr5video29createTriangleRendererGouraudEPNS0_8IZBufferE @4972
    _ZN3irr5video30CD3D9MaterialRenderer_LIGHTMAP13OnSetMaterialERKNS0_9SMaterialES4_bPNS0_25IMaterialRendererServicesE @4973
    _ZN3irr5video30CD3D9MaterialRenderer_LIGHTMAPD0Ev @4974
    _ZN3irr5video30CD3D9MaterialRenderer_LIGHTMAPD1Ev @4975
    _ZN3irr5video30createTRTextureGouraudAlphaNoZEPNS0_12IDepthBufferE @4976
    _ZN3irr5video30createTriangleRendererFlatWireEPNS0_8IZBufferE @4977
    _ZN3irr5video30createTriangleRendererGouraud2EPNS0_12IDepthBufferE @4978
    _ZN3irr5video31CBurningShader_Raster_Reference11setMaterialERKNS0_22SBurningShaderMaterialE @4979
    _ZN3irr5video31CBurningShader_Raster_Reference12drawTriangleEPKNS0_9s4DVertexES4_S4_ @4980
    _ZN3irr5video31CBurningShader_Raster_Reference23pShader_EMT_LIGHTMAP_M4Ev @4981
    _ZN3irr5video31CBurningShader_Raster_Reference9pShader_1Ev @4982
    _ZN3irr5video31CBurningShader_Raster_ReferenceC1EPNS0_12IDepthBufferE @4983
    _ZN3irr5video31CBurningShader_Raster_ReferenceC2EPNS0_12IDepthBufferE @4984
    _ZN3irr5video31CBurningShader_Raster_ReferenceD0Ev @4985
    _ZN3irr5video31CBurningShader_Raster_ReferenceD1Ev @4986
    _ZN3irr5video31createTriangleRendererReferenceEPNS0_12IDepthBufferE @4987
    _ZN3irr5video32CD3D9MaterialRenderer_DETAIL_MAP13OnSetMaterialERKNS0_9SMaterialES4_bPNS0_25IMaterialRendererServicesE @4988
    _ZN3irr5video32CD3D9MaterialRenderer_DETAIL_MAPD0Ev @4989
    _ZN3irr5video32CD3D9MaterialRenderer_DETAIL_MAPD1Ev @4990
    _ZN3irr5video32CD3D9MaterialRenderer_SPHERE_MAP13OnSetMaterialERKNS0_9SMaterialES4_bPNS0_25IMaterialRendererServicesE @4991
    _ZN3irr5video32CD3D9MaterialRenderer_SPHERE_MAP15OnUnsetMaterialEv @4992
    _ZN3irr5video32CD3D9MaterialRenderer_SPHERE_MAPD0Ev @4993
    _ZN3irr5video32CD3D9MaterialRenderer_SPHERE_MAPD1Ev @4994
    _ZN3irr5video32COpenGLMaterialRenderer_LIGHTMAP13OnSetMaterialERKNS0_9SMaterialES4_bPNS0_25IMaterialRendererServicesE @4995
    _ZN3irr5video32COpenGLMaterialRenderer_LIGHTMAP15OnUnsetMaterialEv @4996
    _ZN3irr5video32COpenGLMaterialRenderer_LIGHTMAPD0Ev @4997
    _ZN3irr5video32COpenGLMaterialRenderer_LIGHTMAPD1Ev @4998
    _ZN3irr5video32CSoftware2MaterialRenderer_SOLIDD0Ev @4999
    _ZN3irr5video32CSoftware2MaterialRenderer_SOLIDD1Ev @5000
    _ZN3irr5video33createTriangleRendererGouraudWireEPNS0_8IZBufferE @5001
    _ZN3irr5video33createTriangleRendererTextureFlatEPNS0_8IZBufferE @5002
    _ZN3irr5video34COpenGLMaterialRenderer_DETAIL_MAP13OnSetMaterialERKNS0_9SMaterialES4_bPNS0_25IMaterialRendererServicesE @5003
    _ZN3irr5video34COpenGLMaterialRenderer_DETAIL_MAP15OnUnsetMaterialEv @5004
    _ZN3irr5video34COpenGLMaterialRenderer_DETAIL_MAPD0Ev @5005
    _ZN3irr5video34COpenGLMaterialRenderer_DETAIL_MAPD1Ev @5006
    _ZN3irr5video34COpenGLMaterialRenderer_SPHERE_MAP13OnSetMaterialERKNS0_9SMaterialES4_bPNS0_25IMaterialRendererServicesE @5007
    _ZN3irr5video34COpenGLMaterialRenderer_SPHERE_MAP15OnUnsetMaterialEv @5008
    _ZN3irr5video34COpenGLMaterialRenderer_SPHERE_MAPD0Ev @5009
    _ZN3irr5video34COpenGLMaterialRenderer_SPHERE_MAPD1Ev @5010
    _ZN3irr5video35CD3D9MaterialRenderer_SOLID_2_LAYER13OnSetMaterialERKNS0_9SMaterialES4_bPNS0_25IMaterialRendererServicesE @5011
    _ZN3irr5video35CD3D9MaterialRenderer_SOLID_2_LAYERD0Ev @5012
    _ZN3irr5video35CD3D9MaterialRenderer_SOLID_2_LAYERD1Ev @5013
    _ZN3irr5video35createTriangleRendererGouraudAlpha2EPNS0_12IDepthBufferE @5014
    _ZN3irr5video36createTriangleRendererTextureGouraudEPNS0_8IZBufferE @5015
    _ZN3irr5video37COpenGLMaterialRenderer_SOLID_2_LAYER13OnSetMaterialERKNS0_9SMaterialES4_bPNS0_25IMaterialRendererServicesE @5016
    _ZN3irr5video37COpenGLMaterialRenderer_SOLID_2_LAYER15OnUnsetMaterialEv @5017
    _ZN3irr5video37COpenGLMaterialRenderer_SOLID_2_LAYERD0Ev @5018
    _ZN3irr5video37COpenGLMaterialRenderer_SOLID_2_LAYERD1Ev @5019
    _ZN3irr5video37createTriangleRendererTextureFlatWireEPNS0_8IZBufferE @5020
    _ZN3irr5video37createTriangleRendererTextureGouraud2EPNS0_12IDepthBufferE @5021
    _ZN3irr5video38CD3D9MaterialRenderer_ONETEXTURE_BLEND13OnSetMaterialERKNS0_9SMaterialES4_bPNS0_25IMaterialRendererServicesE @5022
    _ZN3irr5video38CD3D9MaterialRenderer_ONETEXTURE_BLENDD0Ev @5023
    _ZN3irr5video38CD3D9MaterialRenderer_ONETEXTURE_BLENDD1Ev @5024
    _ZN3irr5video38CSoftware2MaterialRenderer_UNSUPPORTEDD0Ev @5025
    _ZN3irr5video38CSoftware2MaterialRenderer_UNSUPPORTEDD1Ev @5026
    _ZN3irr5video39createTriangleRendererTextureDetailMap2EPNS0_12IDepthBufferE @5027
    _ZN3irr5video39createTriangleRendererTextureGouraudAddEPNS0_8IZBufferE @5028
    _ZN3irr5video39createTriangleRendererTextureGouraudNoZEv @5029
    _ZN3irr5video40CD3D9MaterialRenderer_REFLECTION_2_LAYER13OnSetMaterialERKNS0_9SMaterialES4_bPNS0_25IMaterialRendererServicesE @5030
    _ZN3irr5video40CD3D9MaterialRenderer_REFLECTION_2_LAYER15OnUnsetMaterialEv @5031
    _ZN3irr5video40CD3D9MaterialRenderer_REFLECTION_2_LAYERD0Ev @5032
    _ZN3irr5video40CD3D9MaterialRenderer_REFLECTION_2_LAYERD1Ev @5033
    _ZN3irr5video40COpenGLMaterialRenderer_ONETEXTURE_BLEND13OnSetMaterialERKNS0_9SMaterialES4_bPNS0_25IMaterialRendererServicesE @5034
    _ZN3irr5video40COpenGLMaterialRenderer_ONETEXTURE_BLEND15OnUnsetMaterialEv @5035
    _ZN3irr5video40COpenGLMaterialRenderer_ONETEXTURE_BLENDD0Ev @5036
    _ZN3irr5video40COpenGLMaterialRenderer_ONETEXTURE_BLENDD1Ev @5037
    _ZN3irr5video40createTriangleRendererTextureGouraudWireEPNS0_8IZBufferE @5038
    _ZN3irr5video41createTriangleRendererTextureGouraudWire2EPNS0_12IDepthBufferE @5039
    _ZN3irr5video41createTriangleRendererTextureLightMap2_M1EPNS0_12IDepthBufferE @5040
    _ZN3irr5video41createTriangleRendererTextureLightMap2_M2EPNS0_12IDepthBufferE @5041
    _ZN3irr5video41createTriangleRendererTextureLightMap2_M4EPNS0_12IDepthBufferE @5042
    _ZN3irr5video41createTriangleRendererTextureVertexAlpha2EPNS0_12IDepthBufferE @5043
    _ZN3irr5video42COpenGLMaterialRenderer_REFLECTION_2_LAYER13OnSetMaterialERKNS0_9SMaterialES4_bPNS0_25IMaterialRendererServicesE @5044
    _ZN3irr5video42COpenGLMaterialRenderer_REFLECTION_2_LAYER15OnUnsetMaterialEv @5045
    _ZN3irr5video42COpenGLMaterialRenderer_REFLECTION_2_LAYERD0Ev @5046
    _ZN3irr5video42COpenGLMaterialRenderer_REFLECTION_2_LAYERD1Ev @5047
    _ZN3irr5video42createTriangleRendererGTextureLightMap2_M4EPNS0_12IDepthBufferE @5048
    _ZN3irr5video42createTriangleRendererTextureLightMap2_AddEPNS0_12IDepthBufferE @5049
    _ZN3irr5video43CD3D9MaterialRenderer_TRANSPARENT_ADD_COLOR13OnSetMaterialERKNS0_9SMaterialES4_bPNS0_25IMaterialRendererServicesE @5050
    _ZN3irr5video43CD3D9MaterialRenderer_TRANSPARENT_ADD_COLORD0Ev @5051
    _ZN3irr5video43CD3D9MaterialRenderer_TRANSPARENT_ADD_COLORD1Ev @5052
    _ZN3irr5video45COpenGLMaterialRenderer_TRANSPARENT_ADD_COLOR13OnSetMaterialERKNS0_9SMaterialES4_bPNS0_25IMaterialRendererServicesE @5053
    _ZN3irr5video45COpenGLMaterialRenderer_TRANSPARENT_ADD_COLOR15OnUnsetMaterialEv @5054
    _ZN3irr5video45COpenGLMaterialRenderer_TRANSPARENT_ADD_COLORD0Ev @5055
    _ZN3irr5video45COpenGLMaterialRenderer_TRANSPARENT_ADD_COLORD1Ev @5056
    _ZN3irr5video46CD3D9MaterialRenderer_TRANSPARENT_VERTEX_ALPHA13OnSetMaterialERKNS0_9SMaterialES4_bPNS0_25IMaterialRendererServicesE @5057
    _ZN3irr5video46CD3D9MaterialRenderer_TRANSPARENT_VERTEX_ALPHAD0Ev @5058
    _ZN3irr5video46CD3D9MaterialRenderer_TRANSPARENT_VERTEX_ALPHAD1Ev @5059
    _ZN3irr5video47CD3D9MaterialRenderer_TRANSPARENT_ALPHA_CHANNEL13OnSetMaterialERKNS0_9SMaterialES4_bPNS0_25IMaterialRendererServicesE @5060
    _ZN3irr5video47CD3D9MaterialRenderer_TRANSPARENT_ALPHA_CHANNEL15OnUnsetMaterialEv @5061
    _ZN3irr5video47CD3D9MaterialRenderer_TRANSPARENT_ALPHA_CHANNELD0Ev @5062
    _ZN3irr5video47CD3D9MaterialRenderer_TRANSPARENT_ALPHA_CHANNELD1Ev @5063
    _ZN3irr5video48COpenGLMaterialRenderer_TRANSPARENT_VERTEX_ALPHA13OnSetMaterialERKNS0_9SMaterialES4_bPNS0_25IMaterialRendererServicesE @5064
    _ZN3irr5video48COpenGLMaterialRenderer_TRANSPARENT_VERTEX_ALPHA15OnUnsetMaterialEv @5065
    _ZN3irr5video48COpenGLMaterialRenderer_TRANSPARENT_VERTEX_ALPHAD0Ev @5066
    _ZN3irr5video48COpenGLMaterialRenderer_TRANSPARENT_VERTEX_ALPHAD1Ev @5067
    _ZN3irr5video48CSoftware2MaterialRenderer_TRANSPARENT_ADD_COLORD0Ev @5068
    _ZN3irr5video48CSoftware2MaterialRenderer_TRANSPARENT_ADD_COLORD1Ev @5069
    _ZN3irr5video49COpenGLMaterialRenderer_TRANSPARENT_ALPHA_CHANNEL13OnSetMaterialERKNS0_9SMaterialES4_bPNS0_25IMaterialRendererServicesE @5070
    _ZN3irr5video49COpenGLMaterialRenderer_TRANSPARENT_ALPHA_CHANNEL15OnUnsetMaterialEv @5071
    _ZN3irr5video49COpenGLMaterialRenderer_TRANSPARENT_ALPHA_CHANNELD0Ev @5072
    _ZN3irr5video49COpenGLMaterialRenderer_TRANSPARENT_ALPHA_CHANNELD1Ev @5073
    _ZN3irr5video51CD3D9MaterialRenderer_TRANSPARENT_ALPHA_CHANNEL_REF13OnSetMaterialERKNS0_9SMaterialES4_bPNS0_25IMaterialRendererServicesE @5074
    _ZN3irr5video51CD3D9MaterialRenderer_TRANSPARENT_ALPHA_CHANNEL_REF15OnUnsetMaterialEv @5075
    _ZN3irr5video51CD3D9MaterialRenderer_TRANSPARENT_ALPHA_CHANNEL_REFD0Ev @5076
    _ZN3irr5video51CD3D9MaterialRenderer_TRANSPARENT_ALPHA_CHANNEL_REFD1Ev @5077
    _ZN3irr5video52CD3D9MaterialRenderer_TRANSPARENT_REFLECTION_2_LAYER13OnSetMaterialERKNS0_9SMaterialES4_bPNS0_25IMaterialRendererServicesE @5078
    _ZN3irr5video52CD3D9MaterialRenderer_TRANSPARENT_REFLECTION_2_LAYER15OnUnsetMaterialEv @5079
    _ZN3irr5video52CD3D9MaterialRenderer_TRANSPARENT_REFLECTION_2_LAYERD0Ev @5080
    _ZN3irr5video52CD3D9MaterialRenderer_TRANSPARENT_REFLECTION_2_LAYERD1Ev @5081
    _ZN3irr5video53COpenGLMaterialRenderer_TRANSPARENT_ALPHA_CHANNEL_REF13OnSetMaterialERKNS0_9SMaterialES4_bPNS0_25IMaterialRendererServicesE @5082
    _ZN3irr5video53COpenGLMaterialRenderer_TRANSPARENT_ALPHA_CHANNEL_REF15OnUnsetMaterialEv @5083
    _ZN3irr5video53COpenGLMaterialRenderer_TRANSPARENT_ALPHA_CHANNEL_REFD0Ev @5084
    _ZN3irr5video53COpenGLMaterialRenderer_TRANSPARENT_ALPHA_CHANNEL_REFD1Ev @5085
    _ZN3irr5video54COpenGLMaterialRenderer_TRANSPARENT_REFLECTION_2_LAYER13OnSetMaterialERKNS0_9SMaterialES4_bPNS0_25IMaterialRendererServicesE @5086
    _ZN3irr5video54COpenGLMaterialRenderer_TRANSPARENT_REFLECTION_2_LAYER15OnUnsetMaterialEv @5087
    _ZN3irr5video54COpenGLMaterialRenderer_TRANSPARENT_REFLECTION_2_LAYERD0Ev @5088
    _ZN3irr5video54COpenGLMaterialRenderer_TRANSPARENT_REFLECTION_2_LAYERD1Ev @5089
    _ZN3irr5video6CImage13copyToScalingEPNS0_6IImageE @5090
    _ZN3irr5video6CImage13copyToScalingEPvjjNS0_13ECOLOR_FORMATEj @5091
    _ZN3irr5video6CImage13drawRectangleERKNS_4core4rectIiEERKNS0_6SColorE @5092
    _ZN3irr5video6CImage15copyToWithAlphaEPNS0_6IImageERKNS_4core8vector2dIiEERKNS4_4rectIiEERKNS0_6SColorEPSB_ @5093
    _ZN3irr5video6CImage22copyToScalingBoxFilterEPNS0_6IImageEib @5094
    _ZN3irr5video6CImage4fillERKNS0_6SColorE @5095
    _ZN3irr5video6CImage4lockEv @5096
    _ZN3irr5video6CImage6copyToEPNS0_6IImageERKNS_4core8vector2dIiEE @5097
    _ZN3irr5video6CImage6copyToEPNS0_6IImageERKNS_4core8vector2dIiEERKNS4_4rectIiEEPSB_ @5098
    _ZN3irr5video6CImage6unlockEv @5099
    _ZN3irr5video6CImage8drawLineERKNS_4core8vector2dIiEES6_RKNS0_6SColorE @5100
    _ZN3irr5video6CImage8initDataEv @5101
    _ZN3irr5video6CImage8setPixelEjjRKNS0_6SColorEb @5102
    _ZN3irr5video6CImageC1ENS0_13ECOLOR_FORMATERKNS_4core11dimension2dIjEE @5103
    _ZN3irr5video6CImageC1ENS0_13ECOLOR_FORMATERKNS_4core11dimension2dIjEEPvbb @5104
    _ZN3irr5video6CImageC2ENS0_13ECOLOR_FORMATERKNS_4core11dimension2dIjEE @5105
    _ZN3irr5video6CImageC2ENS0_13ECOLOR_FORMATERKNS_4core11dimension2dIjEEPvbb @5106
    _ZN3irr5video6CImageD0Ev @5107
    _ZN3irr5video6CImageD1Ev @5108
    _ZN3irr5video6CImageD2Ev @5109
    _ZN3irr5video6IImageD0Ev @5110
    _ZN3irr5video6IImageD1Ev @5111
    _ZN3irr5video7CTRFlat23drawIndexedTriangleListEPNS0_9S2DVertexEiPKti @5112
    _ZN3irr5video7CTRFlatD0Ev @5113
    _ZN3irr5video7CTRFlatD1Ev @5114
    _ZN3irr5video8CZBuffer4lockEv @5115
    _ZN3irr5video8CZBuffer5clearEv @5116
    _ZN3irr5video8CZBuffer6unlockEv @5117
    _ZN3irr5video8CZBuffer7setSizeERKNS_4core11dimension2dIjEE @5118
    _ZN3irr5video8CZBufferC1ERKNS_4core11dimension2dIjEE @5119
    _ZN3irr5video8CZBufferC2ERKNS_4core11dimension2dIjEE @5120
    _ZN3irr5video8CZBufferD0Ev @5121
    _ZN3irr5video8CZBufferD1Ev @5122
    _ZN3irr5video8CZBufferD2Ev @5123
    _ZN3irr5video8ITextureD0Ev @5124
    _ZN3irr5video8ITextureD1Ev @5125
    _ZN3irr5video8ITextureD2Ev @5126
    _ZN3irr5video8IZBufferD0Ev @5127
    _ZN3irr5video8IZBufferD1Ev @5128
    _ZN3irr5video8_RGBdataD1Ev @5129
    _ZN3irr5video9SMaterial7setFlagENS0_15E_MATERIAL_FLAGEb @5130
    _ZN3irr5video9SMaterialC1ERKS1_ @5131
    _ZN3irr5video9SMaterialC1Ev @5132
    _ZN3irr5video9SMaterialD1Ev @5133
    _ZN3irr5video9SMaterialaSERKS1_ @5134
    _ZN3irr6CTimer4stopEv @5135
    _ZN3irr6CTimer4tickEv @5136
    _ZN3irr6CTimer5startEv @5137
    _ZN3irr6CTimer7setTimeEj @5138
    _ZN3irr6CTimer8setSpeedEf @5139
    _ZN3irr6CTimerD0Ev @5140
    _ZN3irr6CTimerD1Ev @5141
    _ZN3irr6ITimerD0Ev @5142
    _ZN3irr6ITimerD1Ev @5143
    _ZN3irr6OctreeINS_5video17S3DVertex2TCoordsEE10OctreeNodeC1ERjjRKNS_4core5arrayINS3_10SMeshChunkENS6_12irrAllocatorIS8_EEEEPNS7_INS3_11SIndexChunkENS9_ISE_EEEEi @5144
    _ZN3irr6OctreeINS_5video17S3DVertex2TCoordsEE10OctreeNodeD1Ev @5145
    _ZN3irr6OctreeINS_5video17S3DVertex2TCoordsEE10SMeshChunkC1ERKS4_ @5146
    _ZN3irr6OctreeINS_5video17S3DVertex2TCoordsEE10SMeshChunkD0Ev @5147
    _ZN3irr6OctreeINS_5video17S3DVertex2TCoordsEE10SMeshChunkD1Ev @5148
    _ZN3irr6OctreeINS_5video17S3DVertex2TCoordsEE10SMeshChunkaSERKS4_ @5149
    _ZN3irr6OctreeINS_5video17S3DVertexTangentsEE10OctreeNodeC1ERjjRKNS_4core5arrayINS3_10SMeshChunkENS6_12irrAllocatorIS8_EEEEPNS7_INS3_11SIndexChunkENS9_ISE_EEEEi @5150
    _ZN3irr6OctreeINS_5video17S3DVertexTangentsEE10OctreeNodeD1Ev @5151
    _ZN3irr6OctreeINS_5video17S3DVertexTangentsEE10SMeshChunkC1ERKS4_ @5152
    _ZN3irr6OctreeINS_5video17S3DVertexTangentsEE10SMeshChunkD0Ev @5153
    _ZN3irr6OctreeINS_5video17S3DVertexTangentsEE10SMeshChunkD1Ev @5154
    _ZN3irr6OctreeINS_5video17S3DVertexTangentsEE10SMeshChunkaSERKS4_ @5155
    _ZN3irr6OctreeINS_5video9S3DVertexEE10OctreeNodeC1ERjjRKNS_4core5arrayINS3_10SMeshChunkENS6_12irrAllocatorIS8_EEEEPNS7_INS3_11SIndexChunkENS9_ISE_EEEEi @5156
    _ZN3irr6OctreeINS_5video9S3DVertexEE10OctreeNodeD1Ev @5157
    _ZN3irr6OctreeINS_5video9S3DVertexEE10SMeshChunkC1ERKS4_ @5158
    _ZN3irr6OctreeINS_5video9S3DVertexEE10SMeshChunkD0Ev @5159
    _ZN3irr6OctreeINS_5video9S3DVertexEE10SMeshChunkD1Ev @5160
    _ZN3irr6OctreeINS_5video9S3DVertexEE10SMeshChunkaSERKS4_ @5161
    _ZN3irr7CLogger11setLogLevelENS_10ELOG_LEVELE @5162
    _ZN3irr7CLogger11setReceiverEPNS_14IEventReceiverE @5163
    _ZN3irr7CLogger3logEPKcNS_10ELOG_LEVELE @5164
    _ZN3irr7CLogger3logEPKcPKwNS_10ELOG_LEVELE @5165
    _ZN3irr7CLogger3logEPKcS2_NS_10ELOG_LEVELE @5166
    _ZN3irr7CLogger3logEPKwNS_10ELOG_LEVELE @5167
    _ZN3irr7CLogger3logEPKwS2_NS_10ELOG_LEVELE @5168
    _ZN3irr7CLoggerC1EPNS_14IEventReceiverE @5169
    _ZN3irr7CLoggerC2EPNS_14IEventReceiverE @5170
    _ZN3irr7CLoggerD0Ev @5171
    _ZN3irr7CLoggerD1Ev @5172
    _ZN3irr7ILoggerD0Ev @5173
    _ZN3irr7ILoggerD1Ev @5174
    _ZNK3irr11COSOperator15copyToClipboardEPKc @5175
    _ZNK3irr11COSOperator15getSystemMemoryEPjS1_ @5176
    _ZNK3irr11COSOperator20getProcessorSpeedMHzEPj @5177
    _ZNK3irr11COSOperator20getTextFromClipboardEv @5178
    _ZNK3irr11COSOperator25getOperationSystemVersionEv @5179
    _ZNK3irr14CIrrDeviceStub10getVersionEv @5180
    _ZNK3irr14CIrrDeviceStub12isFullscreenEv @5181
    _ZNK3irr14CIrrDeviceStub14getColorFormatEv @5182
    _ZNK3irr14CIrrDeviceStub18getDoubleClickTimeEv @5183
    _ZNK3irr15CIrrDeviceWin3214CCursorControl9isVisibleEv @5184
    _ZNK3irr15CIrrDeviceWin3214isWindowActiveEv @5185
    _ZNK3irr15CIrrDeviceWin3215isWindowFocusedEv @5186
    _ZNK3irr15CIrrDeviceWin3217isWindowMinimizedEv @5187
    _ZNK3irr15CIrrDeviceWin327getTypeEv @5188
    _ZNK3irr17CIrrDeviceConsole14isWindowActiveEv @5189
    _ZNK3irr17CIrrDeviceConsole15isWindowFocusedEv @5190
    _ZNK3irr17CIrrDeviceConsole17isWindowMinimizedEv @5191
    _ZNK3irr17CIrrDeviceConsole7getTypeEv @5192
    _ZNK3irr17IReferenceCounted4dropEv @5193
    _ZNK3irr2io10CNPKReader11getFileListEv @5194
    _ZNK3irr2io10CNPKReader14getArchiveNameEv @5195
    _ZNK3irr2io10CNPKReader7getTypeEv @5196
    _ZNK3irr2io10CPakReader11getFileListEv @5197
    _ZNK3irr2io10CPakReader14getArchiveNameEv @5198
    _ZNK3irr2io10CPakReader7getTypeEv @5199
    _ZNK3irr2io10CTarReader11getFileListEv @5200
    _ZNK3irr2io10CTarReader7getTypeEv @5201
    _ZNK3irr2io10CWriteFile11getFileNameEv @5202
    _ZNK3irr2io10CWriteFile6getPosEv @5203
    _ZNK3irr2io10CZipReader11getFileListEv @5204
    _ZNK3irr2io10CZipReader7getTypeEv @5205
    _ZNK3irr2io11CAttributes17getAttributeCountEv @5206
    _ZNK3irr2io11CFileSystem10getFileDirERKNS_4core6stringIcNS2_12irrAllocatorIcEEEE @5207
    _ZNK3irr2io11CFileSystem15flattenFilenameERNS_4core6stringIcNS2_12irrAllocatorIcEEEERKS6_ @5208
    _ZNK3irr2io11CFileSystem15getAbsolutePathERKNS_4core6stringIcNS2_12irrAllocatorIcEEEE @5209
    _ZNK3irr2io11CFileSystem15getFileBasenameERKNS_4core6stringIcNS2_12irrAllocatorIcEEEEb @5210
    _ZNK3irr2io11CFileSystem19getFileArchiveCountEv @5211
    _ZNK3irr2io11CFileSystem9existFileERKNS_4core6stringIcNS2_12irrAllocatorIcEEEE @5212
    _ZNK3irr2io11CMemoryFile11getFileNameEv @5213
    _ZNK3irr2io11CMemoryFile6getPosEv @5214
    _ZNK3irr2io11CMemoryFile7getSizeEv @5215
    _ZNK3irr2io12IFileArchive7getTypeEv @5216
    _ZNK3irr2io13CIntAttribute13getTypeStringEv @5217
    _ZNK3irr2io13CIntAttribute7getTypeEv @5218
    _ZNK3irr2io14CBBoxAttribute13getTypeStringEv @5219
    _ZNK3irr2io14CBBoxAttribute7getTypeEv @5220
    _ZNK3irr2io14CBoolAttribute13getTypeStringEv @5221
    _ZNK3irr2io14CBoolAttribute7getTypeEv @5222
    _ZNK3irr2io14CEnumAttribute13getTypeStringEv @5223
    _ZNK3irr2io14CEnumAttribute7getTypeEv @5224
    _ZNK3irr2io14CLimitReadFile11getFileNameEv @5225
    _ZNK3irr2io14CLimitReadFile6getPosEv @5226
    _ZNK3irr2io14CLimitReadFile7getSizeEv @5227
    _ZNK3irr2io14CRectAttribute13getTypeStringEv @5228
    _ZNK3irr2io14CRectAttribute7getTypeEv @5229
    _ZNK3irr2io14CXMLReaderImplIcNS0_8IXMLBaseEE11getNodeDataEv @5230
    _ZNK3irr2io14CXMLReaderImplIcNS0_8IXMLBaseEE11getNodeNameEv @5231
    _ZNK3irr2io14CXMLReaderImplIcNS0_8IXMLBaseEE11getNodeTypeEv @5232
    _ZNK3irr2io14CXMLReaderImplIcNS0_8IXMLBaseEE14isEmptyElementEv @5233
    _ZNK3irr2io14CXMLReaderImplIcNS0_8IXMLBaseEE15getParserFormatEv @5234
    _ZNK3irr2io14CXMLReaderImplIcNS0_8IXMLBaseEE15getSourceFormatEv @5235
    _ZNK3irr2io14CXMLReaderImplIcNS0_8IXMLBaseEE16getAttributeNameEi @5236
    _ZNK3irr2io14CXMLReaderImplIcNS0_8IXMLBaseEE17getAttributeCountEv @5237
    _ZNK3irr2io14CXMLReaderImplIcNS0_8IXMLBaseEE17getAttributeValueEPKc @5238
    _ZNK3irr2io14CXMLReaderImplIcNS0_8IXMLBaseEE17getAttributeValueEi @5239
    _ZNK3irr2io14CXMLReaderImplIcNS0_8IXMLBaseEE21getAttributeValueSafeEPKc @5240
    _ZNK3irr2io14CXMLReaderImplIcNS0_8IXMLBaseEE22getAttributeValueAsIntEPKc @5241
    _ZNK3irr2io14CXMLReaderImplIcNS0_8IXMLBaseEE22getAttributeValueAsIntEi @5242
    _ZNK3irr2io14CXMLReaderImplIcNS0_8IXMLBaseEE24getAttributeValueAsFloatEPKc @5243
    _ZNK3irr2io14CXMLReaderImplIcNS0_8IXMLBaseEE24getAttributeValueAsFloatEi @5244
    _ZNK3irr2io14CXMLReaderImplIcNS_17IReferenceCountedEE11getNodeDataEv @5245
    _ZNK3irr2io14CXMLReaderImplIcNS_17IReferenceCountedEE11getNodeNameEv @5246
    _ZNK3irr2io14CXMLReaderImplIcNS_17IReferenceCountedEE11getNodeTypeEv @5247
    _ZNK3irr2io14CXMLReaderImplIcNS_17IReferenceCountedEE14isEmptyElementEv @5248
    _ZNK3irr2io14CXMLReaderImplIcNS_17IReferenceCountedEE15getParserFormatEv @5249
    _ZNK3irr2io14CXMLReaderImplIcNS_17IReferenceCountedEE15getSourceFormatEv @5250
    _ZNK3irr2io14CXMLReaderImplIcNS_17IReferenceCountedEE16getAttributeNameEi @5251
    _ZNK3irr2io14CXMLReaderImplIcNS_17IReferenceCountedEE17getAttributeCountEv @5252
    _ZNK3irr2io14CXMLReaderImplIcNS_17IReferenceCountedEE17getAttributeValueEPKc @5253
    _ZNK3irr2io14CXMLReaderImplIcNS_17IReferenceCountedEE17getAttributeValueEi @5254
    _ZNK3irr2io14CXMLReaderImplIcNS_17IReferenceCountedEE21getAttributeValueSafeEPKc @5255
    _ZNK3irr2io14CXMLReaderImplIcNS_17IReferenceCountedEE22getAttributeValueAsIntEPKc @5256
    _ZNK3irr2io14CXMLReaderImplIcNS_17IReferenceCountedEE22getAttributeValueAsIntEi @5257
    _ZNK3irr2io14CXMLReaderImplIcNS_17IReferenceCountedEE24getAttributeValueAsFloatEPKc @5258
    _ZNK3irr2io14CXMLReaderImplIcNS_17IReferenceCountedEE24getAttributeValueAsFloatEi @5259
    _ZNK3irr2io14CXMLReaderImplImNS0_8IXMLBaseEE11getNodeDataEv @5260
    _ZNK3irr2io14CXMLReaderImplImNS0_8IXMLBaseEE11getNodeNameEv @5261
    _ZNK3irr2io14CXMLReaderImplImNS0_8IXMLBaseEE11getNodeTypeEv @5262
    _ZNK3irr2io14CXMLReaderImplImNS0_8IXMLBaseEE14isEmptyElementEv @5263
    _ZNK3irr2io14CXMLReaderImplImNS0_8IXMLBaseEE15getParserFormatEv @5264
    _ZNK3irr2io14CXMLReaderImplImNS0_8IXMLBaseEE15getSourceFormatEv @5265
    _ZNK3irr2io14CXMLReaderImplImNS0_8IXMLBaseEE16getAttributeNameEi @5266
    _ZNK3irr2io14CXMLReaderImplImNS0_8IXMLBaseEE17getAttributeCountEv @5267
    _ZNK3irr2io14CXMLReaderImplImNS0_8IXMLBaseEE17getAttributeValueEPKm @5268
    _ZNK3irr2io14CXMLReaderImplImNS0_8IXMLBaseEE17getAttributeValueEi @5269
    _ZNK3irr2io14CXMLReaderImplImNS0_8IXMLBaseEE18getAttributeByNameEPKm @5270
    _ZNK3irr2io14CXMLReaderImplImNS0_8IXMLBaseEE21getAttributeValueSafeEPKm @5271
    _ZNK3irr2io14CXMLReaderImplImNS0_8IXMLBaseEE22getAttributeValueAsIntEPKm @5272
    _ZNK3irr2io14CXMLReaderImplImNS0_8IXMLBaseEE22getAttributeValueAsIntEi @5273
    _ZNK3irr2io14CXMLReaderImplImNS0_8IXMLBaseEE24getAttributeValueAsFloatEPKm @5274
    _ZNK3irr2io14CXMLReaderImplImNS0_8IXMLBaseEE24getAttributeValueAsFloatEi @5275
    _ZNK3irr2io14CXMLReaderImplItNS0_8IXMLBaseEE11getNodeDataEv @5276
    _ZNK3irr2io14CXMLReaderImplItNS0_8IXMLBaseEE11getNodeNameEv @5277
    _ZNK3irr2io14CXMLReaderImplItNS0_8IXMLBaseEE11getNodeTypeEv @5278
    _ZNK3irr2io14CXMLReaderImplItNS0_8IXMLBaseEE14isEmptyElementEv @5279
    _ZNK3irr2io14CXMLReaderImplItNS0_8IXMLBaseEE15getParserFormatEv @5280
    _ZNK3irr2io14CXMLReaderImplItNS0_8IXMLBaseEE15getSourceFormatEv @5281
    _ZNK3irr2io14CXMLReaderImplItNS0_8IXMLBaseEE16getAttributeNameEi @5282
    _ZNK3irr2io14CXMLReaderImplItNS0_8IXMLBaseEE17getAttributeCountEv @5283
    _ZNK3irr2io14CXMLReaderImplItNS0_8IXMLBaseEE17getAttributeValueEPKt @5284
    _ZNK3irr2io14CXMLReaderImplItNS0_8IXMLBaseEE17getAttributeValueEi @5285
    _ZNK3irr2io14CXMLReaderImplItNS0_8IXMLBaseEE18getAttributeByNameEPKt @5286
    _ZNK3irr2io14CXMLReaderImplItNS0_8IXMLBaseEE21getAttributeValueSafeEPKt @5287
    _ZNK3irr2io14CXMLReaderImplItNS0_8IXMLBaseEE22getAttributeValueAsIntEPKt @5288
    _ZNK3irr2io14CXMLReaderImplItNS0_8IXMLBaseEE22getAttributeValueAsIntEi @5289
    _ZNK3irr2io14CXMLReaderImplItNS0_8IXMLBaseEE24getAttributeValueAsFloatEPKt @5290
    _ZNK3irr2io14CXMLReaderImplItNS0_8IXMLBaseEE24getAttributeValueAsFloatEi @5291
    _ZNK3irr2io14CXMLReaderImplIwNS_17IReferenceCountedEE11getNodeDataEv @5292
    _ZNK3irr2io14CXMLReaderImplIwNS_17IReferenceCountedEE11getNodeNameEv @5293
    _ZNK3irr2io14CXMLReaderImplIwNS_17IReferenceCountedEE11getNodeTypeEv @5294
    _ZNK3irr2io14CXMLReaderImplIwNS_17IReferenceCountedEE14isEmptyElementEv @5295
    _ZNK3irr2io14CXMLReaderImplIwNS_17IReferenceCountedEE15getParserFormatEv @5296
    _ZNK3irr2io14CXMLReaderImplIwNS_17IReferenceCountedEE15getSourceFormatEv @5297
    _ZNK3irr2io14CXMLReaderImplIwNS_17IReferenceCountedEE16getAttributeNameEi @5298
    _ZNK3irr2io14CXMLReaderImplIwNS_17IReferenceCountedEE17getAttributeCountEv @5299
    _ZNK3irr2io14CXMLReaderImplIwNS_17IReferenceCountedEE17getAttributeValueEPKw @5300
    _ZNK3irr2io14CXMLReaderImplIwNS_17IReferenceCountedEE17getAttributeValueEi @5301
    _ZNK3irr2io14CXMLReaderImplIwNS_17IReferenceCountedEE18getAttributeByNameEPKw @5302
    _ZNK3irr2io14CXMLReaderImplIwNS_17IReferenceCountedEE21getAttributeValueSafeEPKw @5303
    _ZNK3irr2io14CXMLReaderImplIwNS_17IReferenceCountedEE22getAttributeValueAsIntEPKw @5304
    _ZNK3irr2io14CXMLReaderImplIwNS_17IReferenceCountedEE22getAttributeValueAsIntEi @5305
    _ZNK3irr2io14CXMLReaderImplIwNS_17IReferenceCountedEE24getAttributeValueAsFloatEPKw @5306
    _ZNK3irr2io14CXMLReaderImplIwNS_17IReferenceCountedEE24getAttributeValueAsFloatEi @5307
    _ZNK3irr2io15CColorAttribute13getTypeStringEv @5308
    _ZNK3irr2io15CColorAttribute7getTypeEv @5309
    _ZNK3irr2io15CFloatAttribute13getTypeStringEv @5310
    _ZNK3irr2io15CFloatAttribute7getTypeEv @5311
    _ZNK3irr2io15CPlaneAttribute13getTypeStringEv @5312
    _ZNK3irr2io15CPlaneAttribute7getTypeEv @5313
    _ZNK3irr2io16CBinaryAttribute13getTypeStringEv @5314
    _ZNK3irr2io16CBinaryAttribute7getTypeEv @5315
    _ZNK3irr2io16CColorfAttribute13getTypeStringEv @5316
    _ZNK3irr2io16CColorfAttribute7getTypeEv @5317
    _ZNK3irr2io16CLine2dAttribute13getTypeStringEv @5318
    _ZNK3irr2io16CLine2dAttribute7getTypeEv @5319
    _ZNK3irr2io16CLine3dAttribute13getTypeStringEv @5320
    _ZNK3irr2io16CLine3dAttribute7getTypeEv @5321
    _ZNK3irr2io16CMatrixAttribute13getTypeStringEv @5322
    _ZNK3irr2io16CMatrixAttribute7getTypeEv @5323
    _ZNK3irr2io16CStringAttribute13getTypeStringEv @5324
    _ZNK3irr2io16CStringAttribute7getTypeEv @5325
    _ZNK3irr2io17CArchiveLoaderNPK13createArchiveEPNS0_9IReadFileEbb @5326
    _ZNK3irr2io17CArchiveLoaderNPK13createArchiveERKNS_4core6stringIcNS2_12irrAllocatorIcEEEEbb @5327
    _ZNK3irr2io17CArchiveLoaderNPK21isALoadableFileFormatENS0_19E_FILE_ARCHIVE_TYPEE @5328
    _ZNK3irr2io17CArchiveLoaderNPK21isALoadableFileFormatEPNS0_9IReadFileE @5329
    _ZNK3irr2io17CArchiveLoaderNPK21isALoadableFileFormatERKNS_4core6stringIcNS2_12irrAllocatorIcEEEE @5330
    _ZNK3irr2io17CArchiveLoaderNPK7getTypeEv @5331
    _ZNK3irr2io17CArchiveLoaderPAK13createArchiveEPNS0_9IReadFileEbb @5332
    _ZNK3irr2io17CArchiveLoaderPAK13createArchiveERKNS_4core6stringIcNS2_12irrAllocatorIcEEEEbb @5333
    _ZNK3irr2io17CArchiveLoaderPAK21isALoadableFileFormatENS0_19E_FILE_ARCHIVE_TYPEE @5334
    _ZNK3irr2io17CArchiveLoaderPAK21isALoadableFileFormatEPNS0_9IReadFileE @5335
    _ZNK3irr2io17CArchiveLoaderPAK21isALoadableFileFormatERKNS_4core6stringIcNS2_12irrAllocatorIcEEEE @5336
    _ZNK3irr2io17CArchiveLoaderPAK7getTypeEv @5337
    _ZNK3irr2io17CArchiveLoaderTAR13createArchiveEPNS0_9IReadFileEbb @5338
    _ZNK3irr2io17CArchiveLoaderTAR13createArchiveERKNS_4core6stringIcNS2_12irrAllocatorIcEEEEbb @5339
    _ZNK3irr2io17CArchiveLoaderTAR21isALoadableFileFormatENS0_19E_FILE_ARCHIVE_TYPEE @5340
    _ZNK3irr2io17CArchiveLoaderTAR21isALoadableFileFormatEPNS0_9IReadFileE @5341
    _ZNK3irr2io17CArchiveLoaderTAR21isALoadableFileFormatERKNS_4core6stringIcNS2_12irrAllocatorIcEEEE @5342
    _ZNK3irr2io17CArchiveLoaderZIP13createArchiveEPNS0_9IReadFileEbb @5343
    _ZNK3irr2io17CArchiveLoaderZIP13createArchiveERKNS_4core6stringIcNS2_12irrAllocatorIcEEEEbb @5344
    _ZNK3irr2io17CArchiveLoaderZIP21isALoadableFileFormatENS0_19E_FILE_ARCHIVE_TYPEE @5345
    _ZNK3irr2io17CArchiveLoaderZIP21isALoadableFileFormatEPNS0_9IReadFileE @5346
    _ZNK3irr2io17CArchiveLoaderZIP21isALoadableFileFormatERKNS_4core6stringIcNS2_12irrAllocatorIcEEEE @5347
    _ZNK3irr2io17CFileReadCallBack7getSizeEv @5348
    _ZNK3irr2io17CMountPointReader11getFileListEv @5349
    _ZNK3irr2io17CMountPointReader7getTypeEv @5350
    _ZNK3irr2io17CNumbersAttribute13getTypeStringEv @5351
    _ZNK3irr2io17CNumbersAttribute7getTypeEv @5352
    _ZNK3irr2io17CTextureAttribute13getTypeStringEv @5353
    _ZNK3irr2io17CTextureAttribute7getTypeEv @5354
    _ZNK3irr2io18CTriangleAttribute13getTypeStringEv @5355
    _ZNK3irr2io18CTriangleAttribute7getTypeEv @5356
    _ZNK3irr2io18CVector3DAttribute13getTypeStringEv @5357
    _ZNK3irr2io18CVector3DAttribute7getTypeEv @5358
    _ZNK3irr2io19CArchiveLoaderMount13createArchiveEPNS0_9IReadFileEbb @5359
    _ZNK3irr2io19CArchiveLoaderMount13createArchiveERKNS_4core6stringIcNS2_12irrAllocatorIcEEEEbb @5360
    _ZNK3irr2io19CArchiveLoaderMount21isALoadableFileFormatENS0_19E_FILE_ARCHIVE_TYPEE @5361
    _ZNK3irr2io19CArchiveLoaderMount21isALoadableFileFormatEPNS0_9IReadFileE @5362
    _ZNK3irr2io19CArchiveLoaderMount21isALoadableFileFormatERKNS_4core6stringIcNS2_12irrAllocatorIcEEEE @5363
    _ZNK3irr2io20CPosition2DAttribute13getTypeStringEv @5364
    _ZNK3irr2io20CPosition2DAttribute7getTypeEv @5365
    _ZNK3irr2io20CQuaternionAttribute13getTypeStringEv @5366
    _ZNK3irr2io20CQuaternionAttribute7getTypeEv @5367
    _ZNK3irr2io21CUserPointerAttribute13getTypeStringEv @5368
    _ZNK3irr2io21CUserPointerAttribute7getTypeEv @5369
    _ZNK3irr2io22CStringWArrayAttribute13getTypeStringEv @5370
    _ZNK3irr2io22CStringWArrayAttribute7getTypeEv @5371
    _ZNK3irr2io23CIrrXMLFileReadCallBack7getSizeEv @5372
    _ZNK3irr2io26IAttributeExchangingObject19serializeAttributesEPNS0_11IAttributesEPNS0_26SAttributeReadWriteOptionsE @5373
    _ZNK3irr2io9CFileList11getFileNameEj @5374
    _ZNK3irr2io9CFileList11getFileSizeEj @5375
    _ZNK3irr2io9CFileList11isDirectoryEj @5376
    _ZNK3irr2io9CFileList12getFileCountEv @5377
    _ZNK3irr2io9CFileList15getFullFileNameEj @5378
    _ZNK3irr2io9CFileList5getIDEj @5379
    _ZNK3irr2io9CFileList7getPathEv @5380
    _ZNK3irr2io9CFileList8findFileERKNS_4core6stringIcNS2_12irrAllocatorIcEEEEb @5381
    _ZNK3irr2io9CReadFile11getFileNameEv @5382
    _ZNK3irr2io9CReadFile6getPosEv @5383
    _ZNK3irr2io9CReadFile6isOpenEv @5384
    _ZNK3irr2io9CReadFile7getSizeEv @5385
    _ZNK3irr3gui10CGUIButton12isPushButtonEv @5386
    _ZNK3irr3gui10CGUIButton14isScalingImageEv @5387
    _ZNK3irr3gui10CGUIButton15isDrawingBorderEv @5388
    _ZNK3irr3gui10CGUIButton18isAlphaChannelUsedEv @5389
    _ZNK3irr3gui10CGUIButton19serializeAttributesEPNS_2io11IAttributesEPNS2_26SAttributeReadWriteOptionsE @5390
    _ZNK3irr3gui10CGUIButton9isPressedEv @5391
    _ZNK3irr3gui10CGUIWindow11isDraggableEv @5392
    _ZNK3irr3gui10CGUIWindow13getClientRectEv @5393
    _ZNK3irr3gui10CGUIWindow14getCloseButtonEv @5394
    _ZNK3irr3gui10CGUIWindow15getDrawTitlebarEv @5395
    _ZNK3irr3gui10CGUIWindow17getDrawBackgroundEv @5396
    _ZNK3irr3gui10CGUIWindow17getMaximizeButtonEv @5397
    _ZNK3irr3gui10CGUIWindow17getMinimizeButtonEv @5398
    _ZNK3irr3gui10CGUIWindow19serializeAttributesEPNS_2io11IAttributesEPNS2_26SAttributeReadWriteOptionsE @5399
    _ZNK3irr3gui11CGUIEditBox13isPasswordBoxEv @5400
    _ZNK3irr3gui11CGUIEditBox17isWordWrapEnabledEv @5401
    _ZNK3irr3gui11CGUIEditBox18isMultiLineEnabledEv @5402
    _ZNK3irr3gui11CGUIEditBox19isAutoScrollEnabledEv @5403
    _ZNK3irr3gui11CGUIEditBox19serializeAttributesEPNS_2io11IAttributesEPNS2_26SAttributeReadWriteOptionsE @5404
    _ZNK3irr3gui11CGUIEditBox6getMaxEv @5405
    _ZNK3irr3gui11CGUIListBox11getListItemEj @5406
    _ZNK3irr3gui11CGUIListBox11getSelectedEv @5407
    _ZNK3irr3gui11CGUIListBox12getItemCountEv @5408
    _ZNK3irr3gui11CGUIListBox19getItemDefaultColorENS0_18EGUI_LISTBOX_COLORE @5409
    _ZNK3irr3gui11CGUIListBox19isAutoScrollEnabledEv @5410
    _ZNK3irr3gui11CGUIListBox19serializeAttributesEPNS_2io11IAttributesEPNS2_26SAttributeReadWriteOptionsE @5411
    _ZNK3irr3gui11CGUIListBox20getItemOverrideColorEjNS0_18EGUI_LISTBOX_COLORE @5412
    _ZNK3irr3gui11CGUIListBox20hasItemOverrideColorEjNS0_18EGUI_LISTBOX_COLORE @5413
    _ZNK3irr3gui11CGUIListBox22getSerializationLabelsENS0_18EGUI_LISTBOX_COLORERNS_4core6stringIcNS3_12irrAllocatorIcEEEES8_ @5414
    _ZNK3irr3gui11CGUIListBox7getIconEj @5415
    _ZNK3irr3gui11CGUISpinBox10getEditBoxEv @5416
    _ZNK3irr3gui11CGUISpinBox11getStepSizeEv @5417
    _ZNK3irr3gui11CGUISpinBox19serializeAttributesEPNS_2io11IAttributesEPNS2_26SAttributeReadWriteOptionsE @5418
    _ZNK3irr3gui11CGUISpinBox6getMaxEv @5419
    _ZNK3irr3gui11CGUISpinBox6getMinEv @5420
    _ZNK3irr3gui11CGUISpinBox7getTextEv @5421
    _ZNK3irr3gui11CGUISpinBox8getValueEv @5422
    _ZNK3irr3gui11IGUIElement11getChildrenEv @5423
    _ZNK3irr3gui11IGUIElement11getTypeNameEv @5424
    _ZNK3irr3gui11IGUIElement12isSubElementEv @5425
    _ZNK3irr3gui11IGUIElement13isPointInsideERKNS_4core8vector2dIiEE @5426
    _ZNK3irr3gui11IGUIElement14getToolTipTextEv @5427
    _ZNK3irr3gui11IGUIElement16getElementFromIdEib @5428
    _ZNK3irr3gui11IGUIElement19serializeAttributesEPNS_2io11IAttributesEPNS2_26SAttributeReadWriteOptionsE @5429
    _ZNK3irr3gui11IGUIElement5getIDEv @5430
    _ZNK3irr3gui11IGUIElement7getTextEv @5431
    _ZNK3irr3gui11IGUIElement7hasTypeENS0_17EGUI_ELEMENT_TYPEE @5432
    _ZNK3irr3gui11IGUIElement9isEnabledEv @5433
    _ZNK3irr3gui11IGUIElement9isVisibleEv @5434
    _ZNK3irr3gui12CGUICheckBox19serializeAttributesEPNS_2io11IAttributesEPNS2_26SAttributeReadWriteOptionsE @5435
    _ZNK3irr3gui12CGUICheckBox9isCheckedEv @5436
    _ZNK3irr3gui12CGUIComboBox11getItemDataEj @5437
    _ZNK3irr3gui12CGUIComboBox11getSelectedEv @5438
    _ZNK3irr3gui12CGUIComboBox12getItemCountEv @5439
    _ZNK3irr3gui12CGUIComboBox19getIndexForItemDataEj @5440
    _ZNK3irr3gui12CGUIComboBox19serializeAttributesEPNS_2io11IAttributesEPNS2_26SAttributeReadWriteOptionsE @5441
    _ZNK3irr3gui12CGUIComboBox7getItemEj @5442
    _ZNK3irr3gui12CGUIComboBox7getTextEv @5443
    _ZNK3irr3gui12CGUITreeView11getSelectedEv @5444
    _ZNK3irr3gui12CGUITreeView12getImageListEv @5445
    _ZNK3irr3gui12CGUITreeView15getLinesVisibleEv @5446
    _ZNK3irr3gui12CGUITreeView16getLastEventNodeEv @5447
    _ZNK3irr3gui12CGUITreeView18getImageLeftOfIconEv @5448
    _ZNK3irr3gui12CGUITreeView7getRootEv @5449
    _ZNK3irr3gui13CGUIImageList12getImageSizeEv @5450
    _ZNK3irr3gui13CGUIImageList13getImageCountEv @5451
    _ZNK3irr3gui13CGUIScrollBar12getLargeStepEv @5452
    _ZNK3irr3gui13CGUIScrollBar12getSmallStepEv @5453
    _ZNK3irr3gui13CGUIScrollBar18getPosFromMousePosERKNS_4core8vector2dIiEE @5454
    _ZNK3irr3gui13CGUIScrollBar19serializeAttributesEPNS_2io11IAttributesEPNS2_26SAttributeReadWriteOptionsE @5455
    _ZNK3irr3gui13CGUIScrollBar6getMaxEv @5456
    _ZNK3irr3gui13CGUIScrollBar6getMinEv @5457
    _ZNK3irr3gui13CGUIScrollBar6getPosEv @5458
    _ZNK3irr3gui14CGUIInOutFader19serializeAttributesEPNS_2io11IAttributesEPNS2_26SAttributeReadWriteOptionsE @5459
    _ZNK3irr3gui14CGUIInOutFader7isReadyEv @5460
    _ZNK3irr3gui14CGUIInOutFader8getColorEv @5461
    _ZNK3irr3gui14CGUIMeshViewer11getMaterialEv @5462
    _ZNK3irr3gui14CGUIMeshViewer7getMeshEv @5463
    _ZNK3irr3gui14CGUIMessageBox19serializeAttributesEPNS_2io11IAttributesEPNS2_26SAttributeReadWriteOptionsE @5464
    _ZNK3irr3gui14CGUISpriteBank10getTextureEj @5465
    _ZNK3irr3gui14CGUISpriteBank15getTextureCountEv @5466
    _ZNK3irr3gui14CGUIStaticText12getTextWidthEv @5467
    _ZNK3irr3gui14CGUIStaticText13getTextHeightEv @5468
    _ZNK3irr3gui14CGUIStaticText15getOverrideFontEv @5469
    _ZNK3irr3gui14CGUIStaticText16getOverrideColorEv @5470
    _ZNK3irr3gui14CGUIStaticText17isWordWrapEnabledEv @5471
    _ZNK3irr3gui14CGUIStaticText19serializeAttributesEPNS_2io11IAttributesEPNS2_26SAttributeReadWriteOptionsE @5472
    _ZNK3irr3gui14CGUIStaticText22isOverrideColorEnabledEv @5473
    _ZNK3irr3gui14CGUITabControl11getTabCountEv @5474
    _ZNK3irr3gui14CGUITabControl12getActiveTabEv @5475
    _ZNK3irr3gui14CGUITabControl12getTabHeightEv @5476
    _ZNK3irr3gui14CGUITabControl14getTabMaxWidthEv @5477
    _ZNK3irr3gui14CGUITabControl16getTabExtraWidthEv @5478
    _ZNK3irr3gui14CGUITabControl19serializeAttributesEPNS_2io11IAttributesEPNS2_26SAttributeReadWriteOptionsE @5479
    _ZNK3irr3gui14CGUITabControl23getTabVerticalAlignmentEv @5480
    _ZNK3irr3gui14CGUITabControl6getTabEi @5481
    _ZNK3irr3gui14IGUIFontBitmap7getTypeEv @5482
    _ZNK3irr3gui15CGUIContextMenu10getSubMenuEj @5483
    _ZNK3irr3gui15CGUIContextMenu11getItemTextEj @5484
    _ZNK3irr3gui15CGUIContextMenu12getItemCountEv @5485
    _ZNK3irr3gui15CGUIContextMenu13isItemCheckedEj @5486
    _ZNK3irr3gui15CGUIContextMenu13isItemEnabledEj @5487
    _ZNK3irr3gui15CGUIContextMenu14hasOpenSubMenuEv @5488
    _ZNK3irr3gui15CGUIContextMenu15getSelectedItemEv @5489
    _ZNK3irr3gui15CGUIContextMenu16getCloseHandlingEv @5490
    _ZNK3irr3gui15CGUIContextMenu16getItemCommandIdEj @5491
    _ZNK3irr3gui15CGUIContextMenu19getItemAutoCheckingEj @5492
    _ZNK3irr3gui15CGUIContextMenu19serializeAttributesEPNS_2io11IAttributesEPNS2_26SAttributeReadWriteOptionsE @5493
    _ZNK3irr3gui15CGUIContextMenu21findItemWithCommandIdEij @5494
    _ZNK3irr3gui15CGUIContextMenu7getRectERKNS1_5SItemERKNS_4core4rectIiEE @5495
    _ZNK3irr3gui15CGUIContextMenu8getHRectERKNS1_5SItemERKNS_4core4rectIiEE @5496
    _ZNK3irr3gui15CGUIEnvironment13getFileSystemEv @5497
    _ZNK3irr3gui15CGUIEnvironment13getOSOperatorEv @5498
    _ZNK3irr3gui15CGUIEnvironment14getBuiltInFontEv @5499
    _ZNK3irr3gui15CGUIEnvironment14getVideoDriverEv @5500
    _ZNK3irr3gui15CGUIEnvironment19serializeAttributesEPNS_2io11IAttributesEPNS2_26SAttributeReadWriteOptionsE @5501
    _ZNK3irr3gui15CGUIEnvironment20getGUIElementFactoryEj @5502
    _ZNK3irr3gui15CGUIEnvironment27getDefaultGUIElementFactoryEv @5503
    _ZNK3irr3gui15CGUIEnvironment35getRegisteredGUIElementFactoryCountEv @5504
    _ZNK3irr3gui15CGUIEnvironment7getSkinEv @5505
    _ZNK3irr3gui15CGUIEnvironment8getFocusEv @5506
    _ZNK3irr3gui15CGUIEnvironment8hasFocusEPNS0_11IGUIElementE @5507
    _ZNK3irr3gui15CGUIModalScreen12canTakeFocusEPNS0_11IGUIElementE @5508
    _ZNK3irr3gui15CGUIModalScreen13isPointInsideERKNS_4core8vector2dIiEE @5509
    _ZNK3irr3gui15CGUIModalScreen19serializeAttributesEPNS_2io11IAttributesEPNS2_26SAttributeReadWriteOptionsE @5510
    _ZNK3irr3gui15CGUIModalScreen9isVisibleEv @5511
    _ZNK3irr3gui16CGUITreeViewNode11getExpandedEv @5512
    _ZNK3irr3gui16CGUITreeViewNode11getSelectedEv @5513
    _ZNK3irr3gui16CGUITreeViewNode12getLastChildEv @5514
    _ZNK3irr3gui16CGUITreeViewNode13getChildCountEv @5515
    _ZNK3irr3gui16CGUITreeViewNode13getFirstChildEv @5516
    _ZNK3irr3gui16CGUITreeViewNode13getImageIndexEv @5517
    _ZNK3irr3gui16CGUITreeViewNode14getNextSiblingEv @5518
    _ZNK3irr3gui16CGUITreeViewNode14getNextVisibleEv @5519
    _ZNK3irr3gui16CGUITreeViewNode14getPrevSiblingEv @5520
    _ZNK3irr3gui16CGUITreeViewNode21getSelectedImageIndexEv @5521
    _ZNK3irr3gui16CGUITreeViewNode6isRootEv @5522
    _ZNK3irr3gui16CGUITreeViewNode7getDataEv @5523
    _ZNK3irr3gui16CGUITreeViewNode7getIconEv @5524
    _ZNK3irr3gui16CGUITreeViewNode7getTextEv @5525
    _ZNK3irr3gui16CGUITreeViewNode8getData2Ev @5526
    _ZNK3irr3gui16CGUITreeViewNode8getLevelEv @5527
    _ZNK3irr3gui16CGUITreeViewNode8getOwnerEv @5528
    _ZNK3irr3gui16CGUITreeViewNode9getParentEv @5529
    _ZNK3irr3gui16CGUITreeViewNode9hasChildsEv @5530
    _ZNK3irr3gui16CGUITreeViewNode9isVisibleEv @5531
    _ZNK3irr3gui18CGUIFileOpenDialog11getFileNameEv @5532
    _ZNK3irr3gui25CDefaultGUIElementFactory15getTypeFromNameEPKc @5533
    _ZNK3irr3gui25CDefaultGUIElementFactory27getCreateableGUIElementTypeEi @5534
    _ZNK3irr3gui25CDefaultGUIElementFactory31getCreatableGUIElementTypeCountEv @5535
    _ZNK3irr3gui25CDefaultGUIElementFactory31getCreateableGUIElementTypeNameENS0_17EGUI_ELEMENT_TYPEE @5536
    _ZNK3irr3gui25CDefaultGUIElementFactory31getCreateableGUIElementTypeNameEi @5537
    _ZNK3irr3gui7CGUITab12getTextColorEv @5538
    _ZNK3irr3gui7CGUITab18getBackgroundColorEv @5539
    _ZNK3irr3gui7CGUITab19isDrawingBackgroundEv @5540
    _ZNK3irr3gui7CGUITab19serializeAttributesEPNS_2io11IAttributesEPNS2_26SAttributeReadWriteOptionsE @5541
    _ZNK3irr3gui7CGUITab9getNumberEv @5542
    _ZNK3irr3gui8CGUIFont12getDimensionEPKw @5543
    _ZNK3irr3gui8CGUIFont13getSpriteBankEv @5544
    _ZNK3irr3gui8CGUIFont15getKerningWidthEPKwS3_ @5545
    _ZNK3irr3gui8CGUIFont16getKerningHeightEv @5546
    _ZNK3irr3gui8CGUIFont19getCharacterFromPosEPKwi @5547
    _ZNK3irr3gui8CGUIFont19getSpriteNoFromCharEPKw @5548
    _ZNK3irr3gui8CGUIFont20getAreaFromCharacterEw @5549
    _ZNK3irr3gui8CGUIFont7getTypeEv @5550
    _ZNK3irr3gui8CGUIMenu7getRectERKNS0_15CGUIContextMenu5SItemERKNS_4core4rectIiEE @5551
    _ZNK3irr3gui8CGUIMenu8getHRectERKNS0_15CGUIContextMenu5SItemERKNS_4core4rectIiEE @5552
    _ZNK3irr3gui8CGUISkin13getSpriteBankEv @5553
    _ZNK3irr3gui8CGUISkin14getDefaultTextENS0_17EGUI_DEFAULT_TEXTE @5554
    _ZNK3irr3gui8CGUISkin19serializeAttributesEPNS_2io11IAttributesEPNS2_26SAttributeReadWriteOptionsE @5555
    _ZNK3irr3gui8CGUISkin7getFontENS0_17EGUI_DEFAULT_FONTE @5556
    _ZNK3irr3gui8CGUISkin7getIconENS0_17EGUI_DEFAULT_ICONE @5557
    _ZNK3irr3gui8CGUISkin7getSizeENS0_17EGUI_DEFAULT_SIZEE @5558
    _ZNK3irr3gui8CGUISkin7getTypeEv @5559
    _ZNK3irr3gui8CGUISkin8getColorENS0_18EGUI_DEFAULT_COLORE @5560
    _ZNK3irr3gui8IGUIFont7getTypeEv @5561
    _ZNK3irr3gui8IGUISkin7getTypeEv @5562
    _ZNK3irr3gui9CGUIImage13isImageScaledEv @5563
    _ZNK3irr3gui9CGUIImage18isAlphaChannelUsedEv @5564
    _ZNK3irr3gui9CGUIImage19serializeAttributesEPNS_2io11IAttributesEPNS2_26SAttributeReadWriteOptionsE @5565
    _ZNK3irr3gui9CGUITable11getCellDataEjj @5566
    _ZNK3irr3gui9CGUITable11getCellTextEjj @5567
    _ZNK3irr3gui9CGUITable11getRowCountEv @5568
    _ZNK3irr3gui9CGUITable11getSelectedEv @5569
    _ZNK3irr3gui9CGUITable12getDrawFlagsEv @5570
    _ZNK3irr3gui9CGUITable14getColumnCountEv @5571
    _ZNK3irr3gui9CGUITable15getActiveColumnEv @5572
    _ZNK3irr3gui9CGUITable19hasResizableColumnsEv @5573
    _ZNK3irr3gui9CGUITable19serializeAttributesEPNS_2io11IAttributesEPNS2_26SAttributeReadWriteOptionsE @5574
    _ZNK3irr3gui9CGUITable23getActiveColumnOrderingEv @5575
    _ZNK3irr4core3mapINS0_6stringIcNS0_12irrAllocatorIcEEEEjE4findERKS5_ @5576
    _ZNK3irr4core6stringIcNS0_12irrAllocatorIcEEE28equals_substring_ignore_caseERKS4_i @5577
    _ZNK3irr4core6stringIcNS0_12irrAllocatorIcEEE9subStringEji @5578
    _ZNK3irr4core6stringIcNS0_12irrAllocatorIcEEEeqEPKc @5579
    _ZNK3irr4core6stringIcNS0_12irrAllocatorIcEEEplERKS4_ @5580
    _ZNK3irr4core6stringIcNS0_12irrAllocatorIcEEEplIcEES4_PKT_ @5581
    _ZNK3irr4core6stringImNS0_12irrAllocatorImEEE9subStringEji @5582
    _ZNK3irr4core6stringItNS0_12irrAllocatorItEEE9subStringEji @5583
    _ZNK3irr4core6stringIwNS0_12irrAllocatorIwEEE18equals_ignore_caseERKS4_ @5584
    _ZNK3irr4core6stringIwNS0_12irrAllocatorIwEEE9subStringEji @5585
    _ZNK3irr4core6stringIwNS0_12irrAllocatorIwEEEeqEPKw @5586
    _ZNK3irr4core6stringIwNS0_12irrAllocatorIwEEEplERKS4_ @5587
    _ZNK3irr4core6stringIwNS0_12irrAllocatorIwEEEplIwEES4_PKT_ @5588
    _ZNK3irr4core7plane3dIfE25getIntersectionWithPlanesERKS2_S4_RNS0_8vector3dIfEE @5589
    _ZNK3irr4core8CMatrix4IfE10getInverseERS2_ @5590
    _ZNK3irr4core8CMatrix4IfE8getScaleEv @5591
    _ZNK3irr4core8CMatrix4IfEmlERKS2_ @5592
    _ZNK3irr4core8aabbox3dIfE7isEmptyEv @5593
    _ZNK3irr4core8aabbox3dIfE8getEdgesEPNS0_8vector3dIfEE @5594
    _ZNK3irr4core8vector3dIfE6equalsERKS2_f @5595
    _ZNK3irr4core8vector3dIfEltERKS2_ @5596
    _ZNK3irr5scene10CCSMLoader24isALoadableFileExtensionERKNS_4core6stringIcNS2_12irrAllocatorIcEEEE @5597
    _ZNK3irr5scene10CDMFLoader24isALoadableFileExtensionERKNS_4core6stringIcNS2_12irrAllocatorIcEEEE @5598
    _ZNK3irr5scene10CMeshCache11getMeshNameEPKNS0_13IAnimatedMeshE @5599
    _ZNK3irr5scene10CMeshCache11getMeshNameEPKNS0_5IMeshE @5600
    _ZNK3irr5scene10CMeshCache11getMeshNameEj @5601
    _ZNK3irr5scene10CMeshCache12getMeshCountEv @5602
    _ZNK3irr5scene10CMeshCache12getMeshIndexEPKNS0_13IAnimatedMeshE @5603
    _ZNK3irr5scene10CMeshCache12getMeshIndexEPKNS0_5IMeshE @5604
    _ZNK3irr5scene10COCTLoader24isALoadableFileExtensionERKNS_4core6stringIcNS2_12irrAllocatorIcEEEE @5605
    _ZNK3irr5scene10ISceneNode11getPositionEv @5606
    _ZNK3irr5scene10ISceneNode11getRotationEv @5607
    _ZNK3irr5scene10ISceneNode14isTrulyVisibleEv @5608
    _ZNK3irr5scene10ISceneNode15getSceneManagerEv @5609
    _ZNK3irr5scene10ISceneNode16getMaterialCountEv @5610
    _ZNK3irr5scene10ISceneNode19getAbsolutePositionEv @5611
    _ZNK3irr5scene10ISceneNode19getTriangleSelectorEv @5612
    _ZNK3irr5scene10ISceneNode19serializeAttributesEPNS_2io11IAttributesEPNS2_26SAttributeReadWriteOptionsE @5613
    _ZNK3irr5scene10ISceneNode25getAbsoluteTransformationEv @5614
    _ZNK3irr5scene10ISceneNode25getRelativeTransformationEv @5615
    _ZNK3irr5scene10ISceneNode25getTransformedBoundingBoxEv @5616
    _ZNK3irr5scene10ISceneNode5getIDEv @5617
    _ZNK3irr5scene10ISceneNode7getNameEv @5618
    _ZNK3irr5scene10ISceneNode7getTypeEv @5619
    _ZNK3irr5scene10ISceneNode8getScaleEv @5620
    _ZNK3irr5scene10ISceneNode9isVisibleEv @5621
    _ZNK3irr5scene11CMeshBufferINS_5video17S3DVertex2TCoordsEE10getIndicesEv @5622
    _ZNK3irr5scene11CMeshBufferINS_5video17S3DVertex2TCoordsEE10getTCoordsEj @5623
    _ZNK3irr5scene11CMeshBufferINS_5video17S3DVertex2TCoordsEE11getMaterialEv @5624
    _ZNK3irr5scene11CMeshBufferINS_5video17S3DVertex2TCoordsEE11getPositionEj @5625
    _ZNK3irr5scene11CMeshBufferINS_5video17S3DVertex2TCoordsEE11getVerticesEv @5626
    _ZNK3irr5scene11CMeshBufferINS_5video17S3DVertex2TCoordsEE12getIndexTypeEv @5627
    _ZNK3irr5scene11CMeshBufferINS_5video17S3DVertex2TCoordsEE13getIndexCountEv @5628
    _ZNK3irr5scene11CMeshBufferINS_5video17S3DVertex2TCoordsEE13getVertexTypeEv @5629
    _ZNK3irr5scene11CMeshBufferINS_5video17S3DVertex2TCoordsEE14getBoundingBoxEv @5630
    _ZNK3irr5scene11CMeshBufferINS_5video17S3DVertex2TCoordsEE14getVertexCountEv @5631
    _ZNK3irr5scene11CMeshBufferINS_5video17S3DVertex2TCoordsEE18getChangedID_IndexEv @5632
    _ZNK3irr5scene11CMeshBufferINS_5video17S3DVertex2TCoordsEE19getChangedID_VertexEv @5633
    _ZNK3irr5scene11CMeshBufferINS_5video17S3DVertex2TCoordsEE28getHardwareMappingHint_IndexEv @5634
    _ZNK3irr5scene11CMeshBufferINS_5video17S3DVertex2TCoordsEE29getHardwareMappingHint_VertexEv @5635
    _ZNK3irr5scene11CMeshBufferINS_5video17S3DVertex2TCoordsEE9getNormalEj @5636
    _ZNK3irr5scene11CMeshBufferINS_5video17S3DVertexTangentsEE10getIndicesEv @5637
    _ZNK3irr5scene11CMeshBufferINS_5video17S3DVertexTangentsEE10getTCoordsEj @5638
    _ZNK3irr5scene11CMeshBufferINS_5video17S3DVertexTangentsEE11getMaterialEv @5639
    _ZNK3irr5scene11CMeshBufferINS_5video17S3DVertexTangentsEE11getPositionEj @5640
    _ZNK3irr5scene11CMeshBufferINS_5video17S3DVertexTangentsEE11getVerticesEv @5641
    _ZNK3irr5scene11CMeshBufferINS_5video17S3DVertexTangentsEE12getIndexTypeEv @5642
    _ZNK3irr5scene11CMeshBufferINS_5video17S3DVertexTangentsEE13getIndexCountEv @5643
    _ZNK3irr5scene11CMeshBufferINS_5video17S3DVertexTangentsEE13getVertexTypeEv @5644
    _ZNK3irr5scene11CMeshBufferINS_5video17S3DVertexTangentsEE14getBoundingBoxEv @5645
    _ZNK3irr5scene11CMeshBufferINS_5video17S3DVertexTangentsEE14getVertexCountEv @5646
    _ZNK3irr5scene11CMeshBufferINS_5video17S3DVertexTangentsEE18getChangedID_IndexEv @5647
    _ZNK3irr5scene11CMeshBufferINS_5video17S3DVertexTangentsEE19getChangedID_VertexEv @5648
    _ZNK3irr5scene11CMeshBufferINS_5video17S3DVertexTangentsEE28getHardwareMappingHint_IndexEv @5649
    _ZNK3irr5scene11CMeshBufferINS_5video17S3DVertexTangentsEE29getHardwareMappingHint_VertexEv @5650
    _ZNK3irr5scene11CMeshBufferINS_5video17S3DVertexTangentsEE9getNormalEj @5651
    _ZNK3irr5scene11CMeshBufferINS_5video9S3DVertexEE10getIndicesEv @5652
    _ZNK3irr5scene11CMeshBufferINS_5video9S3DVertexEE10getTCoordsEj @5653
    _ZNK3irr5scene11CMeshBufferINS_5video9S3DVertexEE11getMaterialEv @5654
    _ZNK3irr5scene11CMeshBufferINS_5video9S3DVertexEE11getPositionEj @5655
    _ZNK3irr5scene11CMeshBufferINS_5video9S3DVertexEE11getVerticesEv @5656
    _ZNK3irr5scene11CMeshBufferINS_5video9S3DVertexEE12getIndexTypeEv @5657
    _ZNK3irr5scene11CMeshBufferINS_5video9S3DVertexEE13getIndexCountEv @5658
    _ZNK3irr5scene11CMeshBufferINS_5video9S3DVertexEE13getVertexTypeEv @5659
    _ZNK3irr5scene11CMeshBufferINS_5video9S3DVertexEE14getBoundingBoxEv @5660
    _ZNK3irr5scene11CMeshBufferINS_5video9S3DVertexEE14getVertexCountEv @5661
    _ZNK3irr5scene11CMeshBufferINS_5video9S3DVertexEE18getChangedID_IndexEv @5662
    _ZNK3irr5scene11CMeshBufferINS_5video9S3DVertexEE19getChangedID_VertexEv @5663
    _ZNK3irr5scene11CMeshBufferINS_5video9S3DVertexEE28getHardwareMappingHint_IndexEv @5664
    _ZNK3irr5scene11CMeshBufferINS_5video9S3DVertexEE29getHardwareMappingHint_VertexEv @5665
    _ZNK3irr5scene11CMeshBufferINS_5video9S3DVertexEE9getNormalEj @5666
    _ZNK3irr5scene12CIndexBuffer12getChangedIDEv @5667
    _ZNK3irr5scene12CIndexBuffer14allocated_sizeEv @5668
    _ZNK3irr5scene12CIndexBuffer18CSpecificIndexListIjE14allocated_sizeEv @5669
    _ZNK3irr5scene12CIndexBuffer18CSpecificIndexListIjE4sizeEv @5670
    _ZNK3irr5scene12CIndexBuffer18CSpecificIndexListIjE6strideEv @5671
    _ZNK3irr5scene12CIndexBuffer18CSpecificIndexListIjE7getTypeEv @5672
    _ZNK3irr5scene12CIndexBuffer18CSpecificIndexListIjEixEj @5673
    _ZNK3irr5scene12CIndexBuffer18CSpecificIndexListItE14allocated_sizeEv @5674
    _ZNK3irr5scene12CIndexBuffer18CSpecificIndexListItE4sizeEv @5675
    _ZNK3irr5scene12CIndexBuffer18CSpecificIndexListItE6strideEv @5676
    _ZNK3irr5scene12CIndexBuffer18CSpecificIndexListItE7getTypeEv @5677
    _ZNK3irr5scene12CIndexBuffer18CSpecificIndexListItEixEj @5678
    _ZNK3irr5scene12CIndexBuffer22getHardwareMappingHintEv @5679
    _ZNK3irr5scene12CIndexBuffer4sizeEv @5680
    _ZNK3irr5scene12CIndexBuffer6strideEv @5681
    _ZNK3irr5scene12CIndexBuffer7getTypeEv @5682
    _ZNK3irr5scene12CIndexBufferixEj @5683
    _ZNK3irr5scene12CQ3LevelMesh11getMeshTypeEv @5684
    _ZNK3irr5scene12CQ3LevelMesh13getFrameCountEv @5685
    _ZNK3irr5scene12CQ3LevelMesh13getMeshBufferERKNS_5video9SMaterialE @5686
    _ZNK3irr5scene12CQ3LevelMesh13getMeshBufferEj @5687
    _ZNK3irr5scene12CQ3LevelMesh14getBoundingBoxEv @5688
    _ZNK3irr5scene12CQ3LevelMesh17setShaderMaterialERNS_5video9SMaterialEPKNS1_8tBSPFaceE @5689
    _ZNK3irr5scene12CQ3LevelMesh18getMeshBufferCountEv @5690
    _ZNK3irr5scene12CQ3LevelMesh20S3DVertex2TCoords_6425getInterpolated_quadraticERKS2_S4_d @5691
    _ZNK3irr5scene12CQ3LevelMesh20S3DVertex2TCoords_644copyERNS_5video17S3DVertex2TCoordsE @5692
    _ZNK3irr5scene12CQ3LevelMesh20setShaderFogMaterialERNS_5video9SMaterialEPKNS1_8tBSPFaceE @5693
    _ZNK3irr5scene12CQ3LevelMesh4copyEPNS1_20S3DVertex2TCoords_64EPKNS1_10tBSPVertexEi @5694
    _ZNK3irr5scene12CQ3LevelMesh9getShaderEj @5695
    _ZNK3irr5scene12CSkinnedMesh11getMeshTypeEv @5696
    _ZNK3irr5scene12CSkinnedMesh12getAllJointsEv @5697
    _ZNK3irr5scene12CSkinnedMesh12getJointNameEj @5698
    _ZNK3irr5scene12CSkinnedMesh13getFrameCountEv @5699
    _ZNK3irr5scene12CSkinnedMesh13getJointCountEv @5700
    _ZNK3irr5scene12CSkinnedMesh13getMeshBufferERKNS_5video9SMaterialE @5701
    _ZNK3irr5scene12CSkinnedMesh13getMeshBufferEj @5702
    _ZNK3irr5scene12CSkinnedMesh14getBoundingBoxEv @5703
    _ZNK3irr5scene12CSkinnedMesh14getJointNumberEPKc @5704
    _ZNK3irr5scene12CSkinnedMesh18getMeshBufferCountEv @5705
    _ZNK3irr5scene13CSceneManager14getBoundingBoxEv @5706
    _ZNK3irr5scene13CSceneManager14getShadowColorEv @5707
    _ZNK3irr5scene13CSceneManager15getActiveCameraEv @5708
    _ZNK3irr5scene13CSceneManager15getAmbientLightEv @5709
    _ZNK3irr5scene13CSceneManager18getGeometryCreatorEv @5710
    _ZNK3irr5scene13CSceneManager19serializeAttributesEPNS_2io11IAttributesEPNS2_26SAttributeReadWriteOptionsE @5711
    _ZNK3irr5scene13CSceneManager22getSceneNodeRenderPassEv @5712
    _ZNK3irr5scene13CSceneManager34getRegisteredSceneNodeFactoryCountEv @5713
    _ZNK3irr5scene13CSceneManager42getRegisteredSceneNodeAnimatorFactoryCountEv @5714
    _ZNK3irr5scene13CSceneManager7getTypeEv @5715
    _ZNK3irr5scene13CSceneManager8isCulledEPKNS0_10ISceneNodeE @5716
    _ZNK3irr5scene13CVertexBuffer12getChangedIDEv @5717
    _ZNK3irr5scene13CVertexBuffer14allocated_sizeEv @5718
    _ZNK3irr5scene13CVertexBuffer19CSpecificVertexListINS_5video17S3DVertex2TCoordsEE14allocated_sizeEv @5719
    _ZNK3irr5scene13CVertexBuffer19CSpecificVertexListINS_5video17S3DVertex2TCoordsEE4sizeEv @5720
    _ZNK3irr5scene13CVertexBuffer19CSpecificVertexListINS_5video17S3DVertex2TCoordsEE6strideEv @5721
    _ZNK3irr5scene13CVertexBuffer19CSpecificVertexListINS_5video17S3DVertex2TCoordsEE7getTypeEv @5722
    _ZNK3irr5scene13CVertexBuffer19CSpecificVertexListINS_5video17S3DVertex2TCoordsEEixEj @5723
    _ZNK3irr5scene13CVertexBuffer19CSpecificVertexListINS_5video17S3DVertexTangentsEE14allocated_sizeEv @5724
    _ZNK3irr5scene13CVertexBuffer19CSpecificVertexListINS_5video17S3DVertexTangentsEE4sizeEv @5725
    _ZNK3irr5scene13CVertexBuffer19CSpecificVertexListINS_5video17S3DVertexTangentsEE6strideEv @5726
    _ZNK3irr5scene13CVertexBuffer19CSpecificVertexListINS_5video17S3DVertexTangentsEE7getTypeEv @5727
    _ZNK3irr5scene13CVertexBuffer19CSpecificVertexListINS_5video17S3DVertexTangentsEEixEj @5728
    _ZNK3irr5scene13CVertexBuffer19CSpecificVertexListINS_5video9S3DVertexEE14allocated_sizeEv @5729
    _ZNK3irr5scene13CVertexBuffer19CSpecificVertexListINS_5video9S3DVertexEE4sizeEv @5730
    _ZNK3irr5scene13CVertexBuffer19CSpecificVertexListINS_5video9S3DVertexEE6strideEv @5731
    _ZNK3irr5scene13CVertexBuffer19CSpecificVertexListINS_5video9S3DVertexEE7getTypeEv @5732
    _ZNK3irr5scene13CVertexBuffer19CSpecificVertexListINS_5video9S3DVertexEEixEj @5733
    _ZNK3irr5scene13CVertexBuffer22getHardwareMappingHintEv @5734
    _ZNK3irr5scene13CVertexBuffer4sizeEv @5735
    _ZNK3irr5scene13CVertexBuffer6strideEv @5736
    _ZNK3irr5scene13CVertexBuffer7getTypeEv @5737
    _ZNK3irr5scene13CVertexBufferixEj @5738
    _ZNK3irr5scene13IAnimatedMesh11getMeshTypeEv @5739
    _ZNK3irr5scene13SAnimatedMesh11getMeshTypeEv @5740
    _ZNK3irr5scene13SAnimatedMesh13getFrameCountEv @5741
    _ZNK3irr5scene13SAnimatedMesh13getMeshBufferERKNS_5video9SMaterialE @5742
    _ZNK3irr5scene13SAnimatedMesh13getMeshBufferEj @5743
    _ZNK3irr5scene13SAnimatedMesh14getBoundingBoxEv @5744
    _ZNK3irr5scene13SAnimatedMesh18getMeshBufferCountEv @5745
    _ZNK3irr5scene14CBoneSceneNode12getBoneIndexEv @5746
    _ZNK3irr5scene14CBoneSceneNode14getBoundingBoxEv @5747
    _ZNK3irr5scene14CBoneSceneNode16getAnimationModeEv @5748
    _ZNK3irr5scene14CBoneSceneNode16getSkinningSpaceEv @5749
    _ZNK3irr5scene14CBoneSceneNode19serializeAttributesEPNS_2io11IAttributesEPNS2_26SAttributeReadWriteOptionsE @5750
    _ZNK3irr5scene14CCubeSceneNode14getBoundingBoxEv @5751
    _ZNK3irr5scene14CCubeSceneNode16getMaterialCountEv @5752
    _ZNK3irr5scene14CCubeSceneNode19isReadOnlyMaterialsEv @5753
    _ZNK3irr5scene14CCubeSceneNode19serializeAttributesEPNS_2io11IAttributesEPNS2_26SAttributeReadWriteOptionsE @5754
    _ZNK3irr5scene14CCubeSceneNode7getTypeEv @5755
    _ZNK3irr5scene14CIrrMeshWriter21getVectorAsStringLineERKNS_4core8vector2dIfEE @5756
    _ZNK3irr5scene14CIrrMeshWriter21getVectorAsStringLineERKNS_4core8vector3dIfEE @5757
    _ZNK3irr5scene14CIrrMeshWriter7getTypeEv @5758
    _ZNK3irr5scene14CMeshSceneNode14getBoundingBoxEv @5759
    _ZNK3irr5scene14CMeshSceneNode16getMaterialCountEv @5760
    _ZNK3irr5scene14CMeshSceneNode19isReadOnlyMaterialsEv @5761
    _ZNK3irr5scene14CMeshSceneNode19serializeAttributesEPNS_2io11IAttributesEPNS2_26SAttributeReadWriteOptionsE @5762
    _ZNK3irr5scene14CMeshSceneNode7getTypeEv @5763
    _ZNK3irr5scene14COBJMeshWriter20getColorAsStringLineERKNS_5video6SColorEPKcRNS_4core6stringIcNS8_12irrAllocatorIcEEEE @5764
    _ZNK3irr5scene14COBJMeshWriter21getVectorAsStringLineERKNS_4core8vector2dIfEERNS2_6stringIcNS2_12irrAllocatorIcEEEE @5765
    _ZNK3irr5scene14COBJMeshWriter21getVectorAsStringLineERKNS_4core8vector3dIfEERNS2_6stringIcNS2_12irrAllocatorIcEEEE @5766
    _ZNK3irr5scene14COBJMeshWriter7getTypeEv @5767
    _ZNK3irr5scene14CPLYMeshWriter7getTypeEv @5768
    _ZNK3irr5scene14CSTLMeshWriter21getVectorAsStringLineERKNS_4core8vector3dIfEERNS2_6stringIcNS2_12irrAllocatorIcEEEE @5769
    _ZNK3irr5scene14CSTLMeshWriter7getTypeEv @5770
    _ZNK3irr5scene14CTextSceneNode14getBoundingBoxEv @5771
    _ZNK3irr5scene14CTextSceneNode7getTypeEv @5772
    _ZNK3irr5scene14IBoneSceneNode11getBoneNameEv @5773
    _ZNK3irr5scene15CEmptySceneNode14getBoundingBoxEv @5774
    _ZNK3irr5scene15CEmptySceneNode7getTypeEv @5775
    _ZNK3irr5scene15CLightSceneNode12getLightDataEv @5776
    _ZNK3irr5scene15CLightSceneNode12getLightTypeEv @5777
    _ZNK3irr5scene15CLightSceneNode13getCastShadowEv @5778
    _ZNK3irr5scene15CLightSceneNode14getBoundingBoxEv @5779
    _ZNK3irr5scene15CLightSceneNode19serializeAttributesEPNS_2io11IAttributesEPNS2_26SAttributeReadWriteOptionsE @5780
    _ZNK3irr5scene15CLightSceneNode7getTypeEv @5781
    _ZNK3irr5scene15CLightSceneNode9getRadiusEv @5782
    _ZNK3irr5scene15SSkinMeshBuffer10getIndicesEv @5783
    _ZNK3irr5scene15SSkinMeshBuffer10getTCoordsEj @5784
    _ZNK3irr5scene15SSkinMeshBuffer11getMaterialEv @5785
    _ZNK3irr5scene15SSkinMeshBuffer11getPositionEj @5786
    _ZNK3irr5scene15SSkinMeshBuffer11getVerticesEv @5787
    _ZNK3irr5scene15SSkinMeshBuffer12getIndexTypeEv @5788
    _ZNK3irr5scene15SSkinMeshBuffer13getIndexCountEv @5789
    _ZNK3irr5scene15SSkinMeshBuffer13getVertexTypeEv @5790
    _ZNK3irr5scene15SSkinMeshBuffer14getBoundingBoxEv @5791
    _ZNK3irr5scene15SSkinMeshBuffer14getVertexCountEv @5792
    _ZNK3irr5scene15SSkinMeshBuffer18getChangedID_IndexEv @5793
    _ZNK3irr5scene15SSkinMeshBuffer19getChangedID_VertexEv @5794
    _ZNK3irr5scene15SSkinMeshBuffer28getHardwareMappingHint_IndexEv @5795
    _ZNK3irr5scene15SSkinMeshBuffer29getHardwareMappingHint_VertexEv @5796
    _ZNK3irr5scene15SSkinMeshBuffer9getNormalEj @5797
    _ZNK3irr5scene16CAnimatedMeshMD211getMeshTypeEv @5798
    _ZNK3irr5scene16CAnimatedMeshMD212getFrameLoopENS0_19EMD2_ANIMATION_TYPEERiS3_S3_ @5799
    _ZNK3irr5scene16CAnimatedMeshMD212getFrameLoopEPKcRiS4_S4_ @5800
    _ZNK3irr5scene16CAnimatedMeshMD213getFrameCountEv @5801
    _ZNK3irr5scene16CAnimatedMeshMD213getMeshBufferERKNS_5video9SMaterialE @5802
    _ZNK3irr5scene16CAnimatedMeshMD213getMeshBufferEj @5803
    _ZNK3irr5scene16CAnimatedMeshMD214getBoundingBoxEv @5804
    _ZNK3irr5scene16CAnimatedMeshMD216getAnimationNameEi @5805
    _ZNK3irr5scene16CAnimatedMeshMD217getAnimationCountEv @5806
    _ZNK3irr5scene16CAnimatedMeshMD218getMeshBufferCountEv @5807
    _ZNK3irr5scene16CAnimatedMeshMD311getMeshTypeEv @5808
    _ZNK3irr5scene16CAnimatedMeshMD313getFrameCountEv @5809
    _ZNK3irr5scene16CAnimatedMeshMD313getMeshBufferERKNS_5video9SMaterialE @5810
    _ZNK3irr5scene16CAnimatedMeshMD313getMeshBufferEj @5811
    _ZNK3irr5scene16CAnimatedMeshMD314getBoundingBoxEv @5812
    _ZNK3irr5scene16CAnimatedMeshMD318getMeshBufferCountEv @5813
    _ZNK3irr5scene16CCameraSceneNode11getFarValueEv @5814
    _ZNK3irr5scene16CCameraSceneNode11getUpVectorEv @5815
    _ZNK3irr5scene16CCameraSceneNode12getNearValueEv @5816
    _ZNK3irr5scene16CCameraSceneNode13getViewMatrixEv @5817
    _ZNK3irr5scene16CCameraSceneNode14getAspectRatioEv @5818
    _ZNK3irr5scene16CCameraSceneNode14getBoundingBoxEv @5819
    _ZNK3irr5scene16CCameraSceneNode14getViewFrustumEv @5820
    _ZNK3irr5scene16CCameraSceneNode19getProjectionMatrixEv @5821
    _ZNK3irr5scene16CCameraSceneNode19serializeAttributesEPNS_2io11IAttributesEPNS2_26SAttributeReadWriteOptionsE @5822
    _ZNK3irr5scene16CCameraSceneNode21getViewMatrixAffectorEv @5823
    _ZNK3irr5scene16CCameraSceneNode22isInputReceiverEnabledEv @5824
    _ZNK3irr5scene16CCameraSceneNode27getTargetAndRotationBindingEv @5825
    _ZNK3irr5scene16CCameraSceneNode6getFOVEv @5826
    _ZNK3irr5scene16CCameraSceneNode7getTypeEv @5827
    _ZNK3irr5scene16CCameraSceneNode9getTargetEv @5828
    _ZNK3irr5scene16CGeometryCreator11addToBufferERKNS_5video9S3DVertexEPNS0_11CMeshBufferIS3_EE @5829
    _ZNK3irr5scene16CGeometryCreator14createConeMeshEffjRKNS_5video6SColorES5_f @5830
    _ZNK3irr5scene16CGeometryCreator14createCubeMeshERKNS_4core8vector3dIfEE @5831
    _ZNK3irr5scene16CGeometryCreator15createArrowMeshEjjffffNS_5video6SColorES3_ @5832
    _ZNK3irr5scene16CGeometryCreator16createSphereMeshEfjj @5833
    _ZNK3irr5scene16CGeometryCreator17createTerrainMeshEPNS_5video6IImageES4_RKNS_4core11dimension2dIfEEfPNS2_12IVideoDriverERKNS6_IjEEb @5834
    _ZNK3irr5scene16CGeometryCreator18createCylinderMeshEffjRKNS_5video6SColorEbf @5835
    _ZNK3irr5scene16CGeometryCreator19createHillPlaneMeshERKNS_4core11dimension2dIfEERKNS3_IjEEPNS_5video9SMaterialEfS6_S6_ @5836
    _ZNK3irr5scene16CGeometryCreator21createVolumeLightMeshEjjNS_5video6SColorES3_fRKNS_4core8vector3dIfEE @5837
    _ZNK3irr5scene16CMeshManipulator12flipSurfacesEPNS0_5IMeshE @5838
    _ZNK3irr5scene16CMeshManipulator12getPolyCountEPNS0_13IAnimatedMeshE @5839
    _ZNK3irr5scene16CMeshManipulator12getPolyCountEPNS0_5IMeshE @5840
    _ZNK3irr5scene16CMeshManipulator14createMeshCopyEPNS0_5IMeshE @5841
    _ZNK3irr5scene16CMeshManipulator16createMeshWeldedEPNS0_5IMeshEf @5842
    _ZNK3irr5scene16CMeshManipulator18createAnimatedMeshEPNS0_5IMeshENS0_20E_ANIMATED_MESH_TYPEE @5843
    _ZNK3irr5scene16CMeshManipulator18recalculateNormalsEPNS0_11IMeshBufferEbb @5844
    _ZNK3irr5scene16CMeshManipulator18recalculateNormalsEPNS0_5IMeshEbb @5845
    _ZNK3irr5scene16CMeshManipulator19recalculateTangentsEPNS0_5IMeshEbbb @5846
    _ZNK3irr5scene16CMeshManipulator22createMeshWith1TCoordsEPNS0_5IMeshE @5847
    _ZNK3irr5scene16CMeshManipulator22createMeshWith2TCoordsEPNS0_5IMeshE @5848
    _ZNK3irr5scene16CMeshManipulator22createMeshWithTangentsEPNS0_5IMeshEbbbb @5849
    _ZNK3irr5scene16CMeshManipulator24makePlanarTextureMappingEPNS0_11IMeshBufferEf @5850
    _ZNK3irr5scene16CMeshManipulator24makePlanarTextureMappingEPNS0_11IMeshBufferEffhRKNS_4core8vector3dIfEE @5851
    _ZNK3irr5scene16CMeshManipulator24makePlanarTextureMappingEPNS0_5IMeshEf @5852
    _ZNK3irr5scene16CMeshManipulator26createMeshUniquePrimitivesEPNS0_5IMeshE @5853
    _ZNK3irr5scene16COctreeSceneNode14getBoundingBoxEv @5854
    _ZNK3irr5scene16COctreeSceneNode16getMaterialCountEv @5855
    _ZNK3irr5scene16COctreeSceneNode19isReadOnlyMaterialsEv @5856
    _ZNK3irr5scene16COctreeSceneNode19serializeAttributesEPNS_2io11IAttributesEPNS2_26SAttributeReadWriteOptionsE @5857
    _ZNK3irr5scene16COctreeSceneNode7getTypeEv @5858
    _ZNK3irr5scene16CSkyBoxSceneNode14getBoundingBoxEv @5859
    _ZNK3irr5scene16CSkyBoxSceneNode16getMaterialCountEv @5860
    _ZNK3irr5scene16CSkyBoxSceneNode7getTypeEv @5861
    _ZNK3irr5scene16CSphereSceneNode14getBoundingBoxEv @5862
    _ZNK3irr5scene16CSphereSceneNode16getMaterialCountEv @5863
    _ZNK3irr5scene16CSphereSceneNode19isReadOnlyMaterialsEv @5864
    _ZNK3irr5scene16CSphereSceneNode19serializeAttributesEPNS_2io11IAttributesEPNS2_26SAttributeReadWriteOptionsE @5865
    _ZNK3irr5scene16CSphereSceneNode7getTypeEv @5866
    _ZNK3irr5scene16CXMeshFileLoader24isALoadableFileExtensionERKNS_4core6stringIcNS2_12irrAllocatorIcEEEE @5867
    _ZNK3irr5scene16ICameraSceneNode12isOrthogonalEv @5868
    _ZNK3irr5scene16IMeshManipulator13transformMeshEPNS0_5IMeshERKNS_4core8CMatrix4IfEE @5869
    _ZNK3irr5scene16IMeshManipulator15setVertexColorsEPNS0_5IMeshENS_5video6SColorE @5870
    _ZNK3irr5scene16IMeshManipulator19setVertexColorAlphaEPNS0_5IMeshEi @5871
    _ZNK3irr5scene16IParticleEmitter7getTypeEv @5872
    _ZNK3irr5scene17CSkyDomeSceneNode14getBoundingBoxEv @5873
    _ZNK3irr5scene17CSkyDomeSceneNode16getMaterialCountEv @5874
    _ZNK3irr5scene17CSkyDomeSceneNode19serializeAttributesEPNS_2io11IAttributesEPNS2_26SAttributeReadWriteOptionsE @5875
    _ZNK3irr5scene17CSkyDomeSceneNode7getTypeEv @5876
    _ZNK3irr5scene17CTerrainSceneNode11getPositionEv @5877
    _ZNK3irr5scene17CTerrainSceneNode11getRotationEv @5878
    _ZNK3irr5scene17CTerrainSceneNode13getIndexCountEv @5879
    _ZNK3irr5scene17CTerrainSceneNode14getBoundingBoxEii @5880
    _ZNK3irr5scene17CTerrainSceneNode14getBoundingBoxEv @5881
    _ZNK3irr5scene17CTerrainSceneNode16getMaterialCountEv @5882
    _ZNK3irr5scene17CTerrainSceneNode16getTerrainCenterEv @5883
    _ZNK3irr5scene17CTerrainSceneNode19getMeshBufferForLODERNS0_18IDynamicMeshBufferEi @5884
    _ZNK3irr5scene17CTerrainSceneNode19serializeAttributesEPNS_2io11IAttributesEPNS2_26SAttributeReadWriteOptionsE @5885
    _ZNK3irr5scene17CTerrainSceneNode22getCurrentLODOfPatchesERNS_4core5arrayIiNS2_12irrAllocatorIiEEEE @5886
    _ZNK3irr5scene17CTerrainSceneNode7getTypeEv @5887
    _ZNK3irr5scene17CTerrainSceneNode8getIndexEiiijj @5888
    _ZNK3irr5scene17CTerrainSceneNode8getScaleEv @5889
    _ZNK3irr5scene17CTerrainSceneNode9getHeightEff @5890
    _ZNK3irr5scene17CTriangleSelector12getTrianglesEPNS_4core10triangle3dIfEEiRiPKNS2_8CMatrix4IfEE @5891
    _ZNK3irr5scene17CTriangleSelector12getTrianglesEPNS_4core10triangle3dIfEEiRiRKNS2_6line3dIfEEPKNS2_8CMatrix4IfEE @5892
    _ZNK3irr5scene17CTriangleSelector12getTrianglesEPNS_4core10triangle3dIfEEiRiRKNS2_8aabbox3dIfEEPKNS2_8CMatrix4IfEE @5893
    _ZNK3irr5scene17CTriangleSelector14updateFromMeshEPKNS0_5IMeshE @5894
    _ZNK3irr5scene17CTriangleSelector16getTriangleCountEv @5895
    _ZNK3irr5scene17CTriangleSelector23getSceneNodeForTriangleEj @5896
    _ZNK3irr5scene17CTriangleSelector6updateEv @5897
    _ZNK3irr5scene17IParticleAffector10getEnabledEv @5898
    _ZNK3irr5scene18C3DSMeshFileLoader24isALoadableFileExtensionERKNS_4core6stringIcNS2_12irrAllocatorIcEEEE @5899
    _ZNK3irr5scene18CB3DMeshFileLoader12loadTexturesERNS1_12SB3dMaterialE @5900
    _ZNK3irr5scene18CB3DMeshFileLoader24isALoadableFileExtensionERKNS_4core6stringIcNS2_12irrAllocatorIcEEEE @5901
    _ZNK3irr5scene18CBSPMeshFileLoader24isALoadableFileExtensionERKNS_4core6stringIcNS2_12irrAllocatorIcEEEE @5902
    _ZNK3irr5scene18CColladaFileLoader24isALoadableFileExtensionERKNS_4core6stringIcNS2_12irrAllocatorIcEEEE @5903
    _ZNK3irr5scene18CColladaMeshWriter27hasSecondTextureCoordinatesENS_5video13E_VERTEX_TYPEE @5904
    _ZNK3irr5scene18CColladaMeshWriter7getTypeEv @5905
    _ZNK3irr5scene18CDynamicMeshBuffer11getMaterialEv @5906
    _ZNK3irr5scene18CDynamicMeshBuffer14getBoundingBoxEv @5907
    _ZNK3irr5scene18CDynamicMeshBuffer14getIndexBufferEv @5908
    _ZNK3irr5scene18CDynamicMeshBuffer15getVertexBufferEv @5909
    _ZNK3irr5scene18CIrrMeshFileLoader24isALoadableFileExtensionERKNS_4core6stringIcNS2_12irrAllocatorIcEEEE @5910
    _ZNK3irr5scene18CLWOMeshFileLoader24isALoadableFileExtensionERKNS_4core6stringIcNS2_12irrAllocatorIcEEEE @5911
    _ZNK3irr5scene18CMD2MeshFileLoader24isALoadableFileExtensionERKNS_4core6stringIcNS2_12irrAllocatorIcEEEE @5912
    _ZNK3irr5scene18CMD3MeshFileLoader24isALoadableFileExtensionERKNS_4core6stringIcNS2_12irrAllocatorIcEEEE @5913
    _ZNK3irr5scene18COBJMeshFileLoader24isALoadableFileExtensionERKNS_4core6stringIcNS2_12irrAllocatorIcEEEE @5914
    _ZNK3irr5scene18CPLYMeshFileLoader15getPropertyTypeEPKc @5915
    _ZNK3irr5scene18CPLYMeshFileLoader24isALoadableFileExtensionERKNS_4core6stringIcNS2_12irrAllocatorIcEEEE @5916
    _ZNK3irr5scene18CSTLMeshFileLoader10goNextLineEPNS_2io9IReadFileE @5917
    _ZNK3irr5scene18CSTLMeshFileLoader10goNextWordEPNS_2io9IReadFileE @5918
    _ZNK3irr5scene18CSTLMeshFileLoader12getNextTokenEPNS_2io9IReadFileERNS_4core6stringIcNS5_12irrAllocatorIcEEEE @5919
    _ZNK3irr5scene18CSTLMeshFileLoader13getNextVectorEPNS_2io9IReadFileERNS_4core8vector3dIfEEb @5920
    _ZNK3irr5scene18CSTLMeshFileLoader24isALoadableFileExtensionERKNS_4core6stringIcNS2_12irrAllocatorIcEEEE @5921
    _ZNK3irr5scene18IDynamicMeshBuffer10getIndicesEv @5922
    _ZNK3irr5scene18IDynamicMeshBuffer10getTCoordsEj @5923
    _ZNK3irr5scene18IDynamicMeshBuffer11getPositionEj @5924
    _ZNK3irr5scene18IDynamicMeshBuffer11getVerticesEv @5925
    _ZNK3irr5scene18IDynamicMeshBuffer12getIndexTypeEv @5926
    _ZNK3irr5scene18IDynamicMeshBuffer13getIndexCountEv @5927
    _ZNK3irr5scene18IDynamicMeshBuffer13getVertexTypeEv @5928
    _ZNK3irr5scene18IDynamicMeshBuffer14getVertexCountEv @5929
    _ZNK3irr5scene18IDynamicMeshBuffer18getChangedID_IndexEv @5930
    _ZNK3irr5scene18IDynamicMeshBuffer19getChangedID_VertexEv @5931
    _ZNK3irr5scene18IDynamicMeshBuffer28getHardwareMappingHint_IndexEv @5932
    _ZNK3irr5scene18IDynamicMeshBuffer29getHardwareMappingHint_VertexEv @5933
    _ZNK3irr5scene18IDynamicMeshBuffer9getNormalEj @5934
    _ZNK3irr5scene18ISceneNodeAnimator11hasFinishedEv @5935
    _ZNK3irr5scene18ISceneNodeAnimator22isEventReceiverEnabledEv @5936
    _ZNK3irr5scene18ISceneNodeAnimator7getTypeEv @5937
    _ZNK3irr5scene19CBillboardSceneNode14getBoundingBoxEv @5938
    _ZNK3irr5scene19CBillboardSceneNode16getMaterialCountEv @5939
    _ZNK3irr5scene19CBillboardSceneNode19serializeAttributesEPNS_2io11IAttributesEPNS2_26SAttributeReadWriteOptionsE @5940
    _ZNK3irr5scene19CBillboardSceneNode7getSizeEv @5941
    _ZNK3irr5scene19CBillboardSceneNode7getTypeEv @5942
    _ZNK3irr5scene19CBillboardSceneNode8getColorERNS_5video6SColorES4_ @5943
    _ZNK3irr5scene19CLMTSMeshFileLoader24isALoadableFileExtensionERKNS_4core6stringIcNS2_12irrAllocatorIcEEEE @5944
    _ZNK3irr5scene19CMS3DMeshFileLoader19stripPathFromStringERKNS_4core6stringIcNS2_12irrAllocatorIcEEEEb @5945
    _ZNK3irr5scene19CMS3DMeshFileLoader24isALoadableFileExtensionERKNS_4core6stringIcNS2_12irrAllocatorIcEEEE @5946
    _ZNK3irr5scene19CMY3DMeshFileLoader13getChildNodesEv @5947
    _ZNK3irr5scene19CMY3DMeshFileLoader24isALoadableFileExtensionERKNS_4core6stringIcNS2_12irrAllocatorIcEEEE @5948
    _ZNK3irr5scene19COgreMeshFileLoader24isALoadableFileExtensionERKNS_4core6stringIcNS2_12irrAllocatorIcEEEE @5949
    _ZNK3irr5scene19CParticleBoxEmitter12getDirectionEv @5950
    _ZNK3irr5scene19CParticleBoxEmitter15getMaxStartSizeEv @5951
    _ZNK3irr5scene19CParticleBoxEmitter15getMinStartSizeEv @5952
    _ZNK3irr5scene19CParticleBoxEmitter16getMaxStartColorEv @5953
    _ZNK3irr5scene19CParticleBoxEmitter16getMinStartColorEv @5954
    _ZNK3irr5scene19CParticleBoxEmitter19serializeAttributesEPNS_2io11IAttributesEPNS2_26SAttributeReadWriteOptionsE @5955
    _ZNK3irr5scene19CParticleBoxEmitter24getMaxParticlesPerSecondEv @5956
    _ZNK3irr5scene19CParticleBoxEmitter24getMinParticlesPerSecondEv @5957
    _ZNK3irr5scene19CParticleBoxEmitter6getBoxEv @5958
    _ZNK3irr5scene19CTriangleBBSelector12getTrianglesEPNS_4core10triangle3dIfEEiRiPKNS2_8CMatrix4IfEE @5959
    _ZNK3irr5scene19IParticleBoxEmitter7getTypeEv @5960
    _ZNK3irr5scene20CParticleMeshEmitter12getDirectionEv @5961
    _ZNK3irr5scene20CParticleMeshEmitter15getMaxStartSizeEv @5962
    _ZNK3irr5scene20CParticleMeshEmitter15getMinStartSizeEv @5963
    _ZNK3irr5scene20CParticleMeshEmitter16getMaxStartColorEv @5964
    _ZNK3irr5scene20CParticleMeshEmitter16getMinStartColorEv @5965
    _ZNK3irr5scene20CParticleMeshEmitter18getEveryMeshVertexEv @5966
    _ZNK3irr5scene20CParticleMeshEmitter22isUsingNormalDirectionEv @5967
    _ZNK3irr5scene20CParticleMeshEmitter24getMaxParticlesPerSecondEv @5968
    _ZNK3irr5scene20CParticleMeshEmitter24getMinParticlesPerSecondEv @5969
    _ZNK3irr5scene20CParticleMeshEmitter26getNormalDirectionModifierEv @5970
    _ZNK3irr5scene20CParticleMeshEmitter7getMeshEv @5971
    _ZNK3irr5scene20CParticleRingEmitter12getDirectionEv @5972
    _ZNK3irr5scene20CParticleRingEmitter15getMaxStartSizeEv @5973
    _ZNK3irr5scene20CParticleRingEmitter15getMinStartSizeEv @5974
    _ZNK3irr5scene20CParticleRingEmitter16getMaxStartColorEv @5975
    _ZNK3irr5scene20CParticleRingEmitter16getMinStartColorEv @5976
    _ZNK3irr5scene20CParticleRingEmitter16getRingThicknessEv @5977
    _ZNK3irr5scene20CParticleRingEmitter19serializeAttributesEPNS_2io11IAttributesEPNS2_26SAttributeReadWriteOptionsE @5978
    _ZNK3irr5scene20CParticleRingEmitter24getMaxParticlesPerSecondEv @5979
    _ZNK3irr5scene20CParticleRingEmitter24getMinParticlesPerSecondEv @5980
    _ZNK3irr5scene20CParticleRingEmitter9getCenterEv @5981
    _ZNK3irr5scene20CParticleRingEmitter9getRadiusEv @5982
    _ZNK3irr5scene20IParticleMeshEmitter7getTypeEv @5983
    _ZNK3irr5scene20IParticleRingEmitter7getTypeEv @5984
    _ZNK3irr5scene21CMetaTriangleSelector12getTrianglesEPNS_4core10triangle3dIfEEiRiPKNS2_8CMatrix4IfEE @5985
    _ZNK3irr5scene21CMetaTriangleSelector12getTrianglesEPNS_4core10triangle3dIfEEiRiRKNS2_6line3dIfEEPKNS2_8CMatrix4IfEE @5986
    _ZNK3irr5scene21CMetaTriangleSelector12getTrianglesEPNS_4core10triangle3dIfEEiRiRKNS2_8aabbox3dIfEEPKNS2_8CMatrix4IfEE @5987
    _ZNK3irr5scene21CMetaTriangleSelector16getTriangleCountEv @5988
    _ZNK3irr5scene21CMetaTriangleSelector23getSceneNodeForTriangleEj @5989
    _ZNK3irr5scene21CParticlePointEmitter12getDirectionEv @5990
    _ZNK3irr5scene21CParticlePointEmitter15getMaxStartSizeEv @5991
    _ZNK3irr5scene21CParticlePointEmitter15getMinStartSizeEv @5992
    _ZNK3irr5scene21CParticlePointEmitter16getMaxStartColorEv @5993
    _ZNK3irr5scene21CParticlePointEmitter16getMinStartColorEv @5994
    _ZNK3irr5scene21CParticlePointEmitter19serializeAttributesEPNS_2io11IAttributesEPNS2_26SAttributeReadWriteOptionsE @5995
    _ZNK3irr5scene21CParticlePointEmitter24getMaxParticlesPerSecondEv @5996
    _ZNK3irr5scene21CParticlePointEmitter24getMinParticlesPerSecondEv @5997
    _ZNK3irr5scene21CVolumeLightSceneNode12getFootColorEv @5998
    _ZNK3irr5scene21CVolumeLightSceneNode12getTailColorEv @5999
    _ZNK3irr5scene21CVolumeLightSceneNode13getSubDivideUEv @6000
    _ZNK3irr5scene21CVolumeLightSceneNode13getSubDivideVEv @6001
    _ZNK3irr5scene21CVolumeLightSceneNode14getBoundingBoxEv @6002
    _ZNK3irr5scene21CVolumeLightSceneNode16getMaterialCountEv @6003
    _ZNK3irr5scene21CVolumeLightSceneNode19serializeAttributesEPNS_2io11IAttributesEPNS2_26SAttributeReadWriteOptionsE @6004
    _ZNK3irr5scene21CVolumeLightSceneNode7getTypeEv @6005
    _ZNK3irr5scene21IVolumeLightSceneNode7getTypeEv @6006
    _ZNK3irr5scene22CAnimatedMeshSceneNode10getFrameNrEv @6007
    _ZNK3irr5scene22CAnimatedMeshSceneNode11getEndFrameEv @6008
    _ZNK3irr5scene22CAnimatedMeshSceneNode13getJointCountEv @6009
    _ZNK3irr5scene22CAnimatedMeshSceneNode13getStartFrameEv @6010
    _ZNK3irr5scene22CAnimatedMeshSceneNode14getBoundingBoxEv @6011
    _ZNK3irr5scene22CAnimatedMeshSceneNode16getMaterialCountEv @6012
    _ZNK3irr5scene22CAnimatedMeshSceneNode17getAnimationSpeedEv @6013
    _ZNK3irr5scene22CAnimatedMeshSceneNode19isReadOnlyMaterialsEv @6014
    _ZNK3irr5scene22CAnimatedMeshSceneNode19serializeAttributesEPNS_2io11IAttributesEPNS2_26SAttributeReadWriteOptionsE @6015
    _ZNK3irr5scene22CAnimatedMeshSceneNode7getTypeEv @6016
    _ZNK3irr5scene22CParticleScaleAffector19serializeAttributesEPNS_2io11IAttributesEPNS2_26SAttributeReadWriteOptionsE @6017
    _ZNK3irr5scene22CParticleScaleAffector7getTypeEv @6018
    _ZNK3irr5scene22CParticleSphereEmitter12getDirectionEv @6019
    _ZNK3irr5scene22CParticleSphereEmitter15getMaxStartSizeEv @6020
    _ZNK3irr5scene22CParticleSphereEmitter15getMinStartSizeEv @6021
    _ZNK3irr5scene22CParticleSphereEmitter16getMaxStartColorEv @6022
    _ZNK3irr5scene22CParticleSphereEmitter16getMinStartColorEv @6023
    _ZNK3irr5scene22CParticleSphereEmitter19serializeAttributesEPNS_2io11IAttributesEPNS2_26SAttributeReadWriteOptionsE @6024
    _ZNK3irr5scene22CParticleSphereEmitter24getMaxParticlesPerSecondEv @6025
    _ZNK3irr5scene22CParticleSphereEmitter24getMinParticlesPerSecondEv @6026
    _ZNK3irr5scene22CParticleSphereEmitter9getCenterEv @6027
    _ZNK3irr5scene22CParticleSphereEmitter9getRadiusEv @6028
    _ZNK3irr5scene22CQuake3ShaderSceneNode14getBoundingBoxEv @6029
    _ZNK3irr5scene22CQuake3ShaderSceneNode14getRenderStageEv @6030
    _ZNK3irr5scene22CQuake3ShaderSceneNode16getMaterialCountEv @6031
    _ZNK3irr5scene22CQuake3ShaderSceneNode19isReadOnlyMaterialsEv @6032
    _ZNK3irr5scene22CQuake3ShaderSceneNode7getTypeEv @6033
    _ZNK3irr5scene22CShadowVolumeSceneNode14getBoundingBoxEv @6034
    _ZNK3irr5scene22CShadowVolumeSceneNode7getTypeEv @6035
    _ZNK3irr5scene22CWaterSurfaceSceneNode19serializeAttributesEPNS_2io11IAttributesEPNS2_26SAttributeReadWriteOptionsE @6036
    _ZNK3irr5scene22CWaterSurfaceSceneNode7getTypeEv @6037
    _ZNK3irr5scene22IParticleSphereEmitter7getTypeEv @6038
    _ZNK3irr5scene23CBillboardTextSceneNode14getBoundingBoxEv @6039
    _ZNK3irr5scene23CBillboardTextSceneNode16getMaterialCountEv @6040
    _ZNK3irr5scene23CBillboardTextSceneNode7getSizeEv @6041
    _ZNK3irr5scene23CBillboardTextSceneNode7getTypeEv @6042
    _ZNK3irr5scene23CBillboardTextSceneNode8getColorERNS_5video6SColorES4_ @6043
    _ZNK3irr5scene23COctreeTriangleSelector12getTrianglesEPNS_4core10triangle3dIfEEiRiRKNS2_6line3dIfEEPKNS2_8CMatrix4IfEE @6044
    _ZNK3irr5scene23COctreeTriangleSelector12getTrianglesEPNS_4core10triangle3dIfEEiRiRKNS2_8aabbox3dIfEEPKNS2_8CMatrix4IfEE @6045
    _ZNK3irr5scene23COctreeTriangleSelector22getTrianglesFromOctreeEPNS1_11SOctreeNodeERiiRKNS_4core6line3dIfEEPKNS5_8CMatrix4IfEEPNS5_10triangle3dIfEE @6046
    _ZNK3irr5scene23COctreeTriangleSelector22getTrianglesFromOctreeEPNS1_11SOctreeNodeERiiRKNS_4core8aabbox3dIfEEPKNS5_8CMatrix4IfEEPNS5_10triangle3dIfEE @6047
    _ZNK3irr5scene24CDefaultSceneNodeFactory15getTypeFromNameEPKc @6048
    _ZNK3irr5scene24CDefaultSceneNodeFactory26getCreateableSceneNodeTypeEj @6049
    _ZNK3irr5scene24CDefaultSceneNodeFactory30getCreatableSceneNodeTypeCountEv @6050
    _ZNK3irr5scene24CDefaultSceneNodeFactory30getCreateableSceneNodeTypeNameENS0_16ESCENE_NODE_TYPEE @6051
    _ZNK3irr5scene24CDefaultSceneNodeFactory30getCreateableSceneNodeTypeNameEj @6052
    _ZNK3irr5scene24CParticleCylinderEmitter12getDirectionEv @6053
    _ZNK3irr5scene24CParticleCylinderEmitter14getOutlineOnlyEv @6054
    _ZNK3irr5scene24CParticleCylinderEmitter15getMaxStartSizeEv @6055
    _ZNK3irr5scene24CParticleCylinderEmitter15getMinStartSizeEv @6056
    _ZNK3irr5scene24CParticleCylinderEmitter16getMaxStartColorEv @6057
    _ZNK3irr5scene24CParticleCylinderEmitter16getMinStartColorEv @6058
    _ZNK3irr5scene24CParticleCylinderEmitter19serializeAttributesEPNS_2io11IAttributesEPNS2_26SAttributeReadWriteOptionsE @6059
    _ZNK3irr5scene24CParticleCylinderEmitter24getMaxParticlesPerSecondEv @6060
    _ZNK3irr5scene24CParticleCylinderEmitter24getMinParticlesPerSecondEv @6061
    _ZNK3irr5scene24CParticleCylinderEmitter9getCenterEv @6062
    _ZNK3irr5scene24CParticleCylinderEmitter9getLengthEv @6063
    _ZNK3irr5scene24CParticleCylinderEmitter9getNormalEv @6064
    _ZNK3irr5scene24CParticleCylinderEmitter9getRadiusEv @6065
    _ZNK3irr5scene24CParticleFadeOutAffector14getFadeOutTimeEv @6066
    _ZNK3irr5scene24CParticleFadeOutAffector14getTargetColorEv @6067
    _ZNK3irr5scene24CParticleFadeOutAffector19serializeAttributesEPNS_2io11IAttributesEPNS2_26SAttributeReadWriteOptionsE @6068
    _ZNK3irr5scene24CParticleGravityAffector10getGravityEv @6069
    _ZNK3irr5scene24CParticleGravityAffector16getTimeForceLostEv @6070
    _ZNK3irr5scene24CParticleGravityAffector19serializeAttributesEPNS_2io11IAttributesEPNS2_26SAttributeReadWriteOptionsE @6071
    _ZNK3irr5scene24CParticleSystemSceneNode14getBoundingBoxEv @6072
    _ZNK3irr5scene24CParticleSystemSceneNode16getMaterialCountEv @6073
    _ZNK3irr5scene24CParticleSystemSceneNode19serializeAttributesEPNS_2io11IAttributesEPNS2_26SAttributeReadWriteOptionsE @6074
    _ZNK3irr5scene24CParticleSystemSceneNode7getTypeEv @6075
    _ZNK3irr5scene24CSceneNodeAnimatorDelete7getTypeEv @6076
    _ZNK3irr5scene24CTerrainTriangleSelector12getTrianglesEPNS_4core10triangle3dIfEEiRiPKNS2_8CMatrix4IfEE @6077
    _ZNK3irr5scene24CTerrainTriangleSelector12getTrianglesEPNS_4core10triangle3dIfEEiRiRKNS2_6line3dIfEEPKNS2_8CMatrix4IfEE @6078
    _ZNK3irr5scene24CTerrainTriangleSelector12getTrianglesEPNS_4core10triangle3dIfEEiRiRKNS2_8aabbox3dIfEEPKNS2_8CMatrix4IfEE @6079
    _ZNK3irr5scene24CTerrainTriangleSelector16getTriangleCountEv @6080
    _ZNK3irr5scene24CTerrainTriangleSelector23getSceneNodeForTriangleEj @6081
    _ZNK3irr5scene24IParticleCylinderEmitter7getTypeEv @6082
    _ZNK3irr5scene24IParticleFadeOutAffector7getTypeEv @6083
    _ZNK3irr5scene24IParticleGravityAffector7getTypeEv @6084
    _ZNK3irr5scene25CParticleRotationAffector13getPivotPointEv @6085
    _ZNK3irr5scene25CParticleRotationAffector19serializeAttributesEPNS_2io11IAttributesEPNS2_26SAttributeReadWriteOptionsE @6086
    _ZNK3irr5scene25CParticleRotationAffector8getSpeedEv @6087
    _ZNK3irr5scene25CSceneNodeAnimatorTexture19serializeAttributesEPNS_2io11IAttributesEPNS2_26SAttributeReadWriteOptionsE @6088
    _ZNK3irr5scene25CSceneNodeAnimatorTexture7getTypeEv @6089
    _ZNK3irr5scene25IParticleRotationAffector7getTypeEv @6090
    _ZNK3irr5scene26CSceneNodeAnimatorRotation19serializeAttributesEPNS_2io11IAttributesEPNS2_26SAttributeReadWriteOptionsE @6091
    _ZNK3irr5scene26CSceneNodeAnimatorRotation7getTypeEv @6092
    _ZNK3irr5scene27CParticleAttractionAffector10getAffectXEv @6093
    _ZNK3irr5scene27CParticleAttractionAffector10getAffectYEv @6094
    _ZNK3irr5scene27CParticleAttractionAffector10getAffectZEv @6095
    _ZNK3irr5scene27CParticleAttractionAffector10getAttractEv @6096
    _ZNK3irr5scene27CParticleAttractionAffector19serializeAttributesEPNS_2io11IAttributesEPNS2_26SAttributeReadWriteOptionsE @6097
    _ZNK3irr5scene27CParticleAttractionAffector8getPointEv @6098
    _ZNK3irr5scene27CParticleAttractionAffector8getSpeedEv @6099
    _ZNK3irr5scene27CSceneNodeAnimatorCameraFPS12getMoveSpeedEv @6100
    _ZNK3irr5scene27CSceneNodeAnimatorCameraFPS14getRotateSpeedEv @6101
    _ZNK3irr5scene27CSceneNodeAnimatorCameraFPS22isEventReceiverEnabledEv @6102
    _ZNK3irr5scene27CSceneNodeAnimatorCameraFPS7getTypeEv @6103
    _ZNK3irr5scene27CSceneNodeAnimatorFlyCircle19serializeAttributesEPNS_2io11IAttributesEPNS2_26SAttributeReadWriteOptionsE @6104
    _ZNK3irr5scene27CSceneNodeAnimatorFlyCircle7getTypeEv @6105
    _ZNK3irr5scene27IParticleAttractionAffector7getTypeEv @6106
    _ZNK3irr5scene27ISceneNodeAnimatorFinishing11hasFinishedEv @6107
    _ZNK3irr5scene28CSceneNodeAnimatorCameraMaya12getMoveSpeedEv @6108
    _ZNK3irr5scene28CSceneNodeAnimatorCameraMaya12getZoomSpeedEv @6109
    _ZNK3irr5scene28CSceneNodeAnimatorCameraMaya14getRotateSpeedEv @6110
    _ZNK3irr5scene28CSceneNodeAnimatorCameraMaya22isEventReceiverEnabledEv @6111
    _ZNK3irr5scene28CSceneNodeAnimatorCameraMaya7getTypeEv @6112
    _ZNK3irr5scene29CDummyTransformationSceneNode14getBoundingBoxEv @6113
    _ZNK3irr5scene29CDummyTransformationSceneNode25getRelativeTransformationEv @6114
    _ZNK3irr5scene29CDummyTransformationSceneNode7getTypeEv @6115
    _ZNK3irr5scene29CSceneNodeAnimatorFlyStraight19serializeAttributesEPNS_2io11IAttributesEPNS2_26SAttributeReadWriteOptionsE @6116
    _ZNK3irr5scene29CSceneNodeAnimatorFlyStraight7getTypeEv @6117
    _ZNK3irr5scene30CSceneNodeAnimatorFollowSpline19serializeAttributesEPNS_2io11IAttributesEPNS2_26SAttributeReadWriteOptionsE @6118
    _ZNK3irr5scene30CSceneNodeAnimatorFollowSpline7getTypeEv @6119
    _ZNK3irr5scene32CDefaultSceneNodeAnimatorFactory15getTypeFromNameEPKc @6120
    _ZNK3irr5scene32CDefaultSceneNodeAnimatorFactory34getCreateableSceneNodeAnimatorTypeEj @6121
    _ZNK3irr5scene32CDefaultSceneNodeAnimatorFactory38getCreatableSceneNodeAnimatorTypeCountEv @6122
    _ZNK3irr5scene32CDefaultSceneNodeAnimatorFactory38getCreateableSceneNodeAnimatorTypeNameENS0_25ESCENE_NODE_ANIMATOR_TYPEE @6123
    _ZNK3irr5scene32CDefaultSceneNodeAnimatorFactory38getCreateableSceneNodeAnimatorTypeNameEj @6124
    _ZNK3irr5scene35CSceneNodeAnimatorCollisionResponse10getGravityEv @6125
    _ZNK3irr5scene35CSceneNodeAnimatorCollisionResponse13getTargetNodeEv @6126
    _ZNK3irr5scene35CSceneNodeAnimatorCollisionResponse16getAnimateTargetEv @6127
    _ZNK3irr5scene35CSceneNodeAnimatorCollisionResponse16getCollisionNodeEv @6128
    _ZNK3irr5scene35CSceneNodeAnimatorCollisionResponse17collisionOccurredEv @6129
    _ZNK3irr5scene35CSceneNodeAnimatorCollisionResponse17getCollisionPointEv @6130
    _ZNK3irr5scene35CSceneNodeAnimatorCollisionResponse18getEllipsoidRadiusEv @6131
    _ZNK3irr5scene35CSceneNodeAnimatorCollisionResponse19serializeAttributesEPNS_2io11IAttributesEPNS2_26SAttributeReadWriteOptionsE @6132
    _ZNK3irr5scene35CSceneNodeAnimatorCollisionResponse20getCollisionTriangleEv @6133
    _ZNK3irr5scene35CSceneNodeAnimatorCollisionResponse23getEllipsoidTranslationEv @6134
    _ZNK3irr5scene35CSceneNodeAnimatorCollisionResponse26getCollisionResultPositionEv @6135
    _ZNK3irr5scene35CSceneNodeAnimatorCollisionResponse7getTypeEv @6136
    _ZNK3irr5scene35CSceneNodeAnimatorCollisionResponse8getWorldEv @6137
    _ZNK3irr5scene35CSceneNodeAnimatorCollisionResponse9isFallingEv @6138
    _ZNK3irr5scene37CParticleAnimatedMeshSceneNodeEmitter12getDirectionEv @6139
    _ZNK3irr5scene37CParticleAnimatedMeshSceneNodeEmitter15getMaxStartSizeEv @6140
    _ZNK3irr5scene37CParticleAnimatedMeshSceneNodeEmitter15getMinStartSizeEv @6141
    _ZNK3irr5scene37CParticleAnimatedMeshSceneNodeEmitter16getMaxStartColorEv @6142
    _ZNK3irr5scene37CParticleAnimatedMeshSceneNodeEmitter16getMinStartColorEv @6143
    _ZNK3irr5scene37CParticleAnimatedMeshSceneNodeEmitter18getEveryMeshVertexEv @6144
    _ZNK3irr5scene37CParticleAnimatedMeshSceneNodeEmitter22isUsingNormalDirectionEv @6145
    _ZNK3irr5scene37CParticleAnimatedMeshSceneNodeEmitter24getAnimatedMeshSceneNodeEv @6146
    _ZNK3irr5scene37CParticleAnimatedMeshSceneNodeEmitter24getMaxParticlesPerSecondEv @6147
    _ZNK3irr5scene37CParticleAnimatedMeshSceneNodeEmitter24getMinParticlesPerSecondEv @6148
    _ZNK3irr5scene37CParticleAnimatedMeshSceneNodeEmitter26getNormalDirectionModifierEv @6149
    _ZNK3irr5scene37IParticleAnimatedMeshSceneNodeEmitter7getTypeEv @6150
    _ZNK3irr5scene5SMesh13getMeshBufferERKNS_5video9SMaterialE @6151
    _ZNK3irr5scene5SMesh13getMeshBufferEj @6152
    _ZNK3irr5scene5SMesh14getBoundingBoxEv @6153
    _ZNK3irr5scene5SMesh18getMeshBufferCountEv @6154
    _ZNK3irr5scene6quake317SModifierFunction8evaluateEf @6155
    _ZNK3irr5scene6quake39SVarGroup3getEPKc @6156
    _ZNK3irr5scene6quake39SVarGroup9isDefinedEPKcS4_ @6157
    _ZNK3irr5video11CD3D9Driver11getViewPortEv @6158
    _ZNK3irr5video11CD3D9Driver12getTransformENS0_22E_TRANSFORMATION_STATEE @6159
    _ZNK3irr5video11CD3D9Driver12queryFeatureENS0_22E_VIDEO_DRIVER_FEATUREE @6160
    _ZNK3irr5video11CD3D9Driver13getDriverTypeEv @6161
    _ZNK3irr5video11CD3D9Driver14getColorFormatEv @6162
    _ZNK3irr5video11CD3D9Driver17getD3DColorFormatEv @6163
    _ZNK3irr5video11CD3D9Driver17getMaxTextureSizeEv @6164
    _ZNK3irr5video11CD3D9Driver24getMaximalPrimitiveCountEv @6165
    _ZNK3irr5video11CD3D9Driver26getCurrentRenderTargetSizeEv @6166
    _ZNK3irr5video11CD3D9Driver27getColorFormatFromD3DFormatE10_D3DFORMAT @6167
    _ZNK3irr5video11CD3D9Driver27getD3DFormatFromColorFormatENS0_13ECOLOR_FORMATE @6168
    _ZNK3irr5video11CD3D9Driver28getMaximalDynamicLightAmountEv @6169
    _ZNK3irr5video11CD3D9Driver7getNameEv @6170
    _ZNK3irr5video11CFPSCounter12getPrimitiveEv @6171
    _ZNK3irr5video11CFPSCounter17getPrimitiveTotalEv @6172
    _ZNK3irr5video11CFPSCounter19getPrimitiveAverageEv @6173
    _ZNK3irr5video11CFPSCounter6getFPSEv @6174
    _ZNK3irr5video11CNullDriver11getViewPortEv @6175
    _ZNK3irr5video11CNullDriver12getTransformENS0_22E_TRANSFORMATION_STATEE @6176
    _ZNK3irr5video11CNullDriver12queryFeatureENS0_22E_VIDEO_DRIVER_FEATUREE @6177
    _ZNK3irr5video11CNullDriver13SDummyTexture13getDriverTypeEv @6178
    _ZNK3irr5video11CNullDriver13SDummyTexture14getColorFormatEv @6179
    _ZNK3irr5video11CNullDriver13SDummyTexture15getOriginalSizeEv @6180
    _ZNK3irr5video11CNullDriver13SDummyTexture7getSizeEv @6181
    _ZNK3irr5video11CNullDriver13SDummyTexture8getPitchEv @6182
    _ZNK3irr5video11CNullDriver13getDriverTypeEv @6183
    _ZNK3irr5video11CNullDriver13getScreenSizeEv @6184
    _ZNK3irr5video11CNullDriver14getColorFormatEv @6185
    _ZNK3irr5video11CNullDriver15getDynamicLightEj @6186
    _ZNK3irr5video11CNullDriver15getTextureCountEv @6187
    _ZNK3irr5video11CNullDriver17getMaxTextureSizeEv @6188
    _ZNK3irr5video11CNullDriver19checkPrimitiveCountEj @6189
    _ZNK3irr5video11CNullDriver19getImageLoaderCountEv @6190
    _ZNK3irr5video11CNullDriver19getImageWriterCountEv @6191
    _ZNK3irr5video11CNullDriver19makeColorKeyTextureEPNS0_8ITextureENS0_6SColorEb @6192
    _ZNK3irr5video11CNullDriver19makeColorKeyTextureEPNS0_8ITextureENS_4core8vector2dIiEEb @6193
    _ZNK3irr5video11CNullDriver20getDynamicLightCountEv @6194
    _ZNK3irr5video11CNullDriver20makeNormalMapTextureEPNS0_8ITextureEf @6195
    _ZNK3irr5video11CNullDriver22getPrimitiveCountDrawnEj @6196
    _ZNK3irr5video11CNullDriver22getTextureCreationFlagENS0_23E_TEXTURE_CREATION_FLAGE @6197
    _ZNK3irr5video11CNullDriver23getMaterialRendererNameEj @6198
    _ZNK3irr5video11CNullDriver24getMaterialRendererCountEv @6199
    _ZNK3irr5video11CNullDriver24getMaximalPrimitiveCountEv @6200
    _ZNK3irr5video11CNullDriver26getCurrentRenderTargetSizeEv @6201
    _ZNK3irr5video11CNullDriver28getMaximalDynamicLightAmountEv @6202
    _ZNK3irr5video11CNullDriver6getFPSEv @6203
    _ZNK3irr5video11CNullDriver7getNameEv @6204
    _ZNK3irr5video12CD3D9Texture10hasMipMapsEv @6205
    _ZNK3irr5video12CD3D9Texture13getDX9TextureEv @6206
    _ZNK3irr5video12CD3D9Texture13getDriverTypeEv @6207
    _ZNK3irr5video12CD3D9Texture14getColorFormatEv @6208
    _ZNK3irr5video12CD3D9Texture14isRenderTargetEv @6209
    _ZNK3irr5video12CD3D9Texture15copy16BitMipMapEPcS2_iiii @6210
    _ZNK3irr5video12CD3D9Texture15copy32BitMipMapEPcS2_iiii @6211
    _ZNK3irr5video12CD3D9Texture15getOriginalSizeEv @6212
    _ZNK3irr5video12CD3D9Texture7getSizeEv @6213
    _ZNK3irr5video12CD3D9Texture8getPitchEv @6214
    _ZNK3irr5video12CDepthBuffer7getSizeEv @6215
    _ZNK3irr5video12CDepthBuffer8getPitchEv @6216
    _ZNK3irr5video13COpenGLDriver12getTransformENS0_22E_TRANSFORMATION_STATEE @6217
    _ZNK3irr5video13COpenGLDriver12queryFeatureENS0_22E_VIDEO_DRIVER_FEATUREE @6218
    _ZNK3irr5video13COpenGLDriver13getDriverTypeEv @6219
    _ZNK3irr5video13COpenGLDriver14getColorFormatEv @6220
    _ZNK3irr5video13COpenGLDriver17getMaxTextureSizeEv @6221
    _ZNK3irr5video13COpenGLDriver17primitiveTypeToGLENS_5scene16E_PRIMITIVE_TYPEE @6222
    _ZNK3irr5video13COpenGLDriver24getMaximalPrimitiveCountEv @6223
    _ZNK3irr5video13COpenGLDriver26getCurrentRenderTargetSizeEv @6224
    _ZNK3irr5video13COpenGLDriver28getMaximalDynamicLightAmountEv @6225
    _ZNK3irr5video13COpenGLDriver7getNameEv @6226
    _ZNK3irr5video14COpenGLTexture10hasMipMapsEv @6227
    _ZNK3irr5video14COpenGLTexture13getDriverTypeEv @6228
    _ZNK3irr5video14COpenGLTexture14getColorFormatEv @6229
    _ZNK3irr5video14COpenGLTexture14isRenderTargetEv @6230
    _ZNK3irr5video14COpenGLTexture15getOriginalSizeEv @6231
    _ZNK3irr5video14COpenGLTexture19isFrameBufferObjectEv @6232
    _ZNK3irr5video14COpenGLTexture20getOpenGLTextureNameEv @6233
    _ZNK3irr5video14COpenGLTexture7getSizeEv @6234
    _ZNK3irr5video14COpenGLTexture8getPitchEv @6235
    _ZNK3irr5video14CVideoModeList15getDesktopDepthEv @6236
    _ZNK3irr5video14CVideoModeList17getVideoModeCountEv @6237
    _ZNK3irr5video14CVideoModeList17getVideoModeDepthEi @6238
    _ZNK3irr5video14CVideoModeList20getDesktopResolutionEv @6239
    _ZNK3irr5video14CVideoModeList22getVideoModeResolutionERKNS_4core11dimension2dIjEES6_ @6240
    _ZNK3irr5video14CVideoModeList22getVideoModeResolutionEi @6241
    _ZNK3irr5video15CImageLoaderBMP17decompress4BitRLEERPhiiii @6242
    _ZNK3irr5video15CImageLoaderBMP17decompress8BitRLEERPhiiii @6243
    _ZNK3irr5video15CImageLoaderBMP21isALoadableFileFormatEPNS_2io9IReadFileE @6244
    _ZNK3irr5video15CImageLoaderBMP24isALoadableFileExtensionERKNS_4core6stringIcNS2_12irrAllocatorIcEEEE @6245
    _ZNK3irr5video15CImageLoaderBMP9loadImageEPNS_2io9IReadFileE @6246
    _ZNK3irr5video15CImageLoaderJPG21isALoadableFileFormatEPNS_2io9IReadFileE @6247
    _ZNK3irr5video15CImageLoaderJPG24isALoadableFileExtensionERKNS_4core6stringIcNS2_12irrAllocatorIcEEEE @6248
    _ZNK3irr5video15CImageLoaderJPG9loadImageEPNS_2io9IReadFileE @6249
    _ZNK3irr5video15CImageLoaderPCX21isALoadableFileFormatEPNS_2io9IReadFileE @6250
    _ZNK3irr5video15CImageLoaderPCX24isALoadableFileExtensionERKNS_4core6stringIcNS2_12irrAllocatorIcEEEE @6251
    _ZNK3irr5video15CImageLoaderPCX9loadImageEPNS_2io9IReadFileE @6252
    _ZNK3irr5video15CImageLoaderPPM12getNextTokenEPNS_2io9IReadFileERNS_4core6stringIcNS5_12irrAllocatorIcEEEE @6253
    _ZNK3irr5video15CImageLoaderPPM15skipToNextTokenEPNS_2io9IReadFileE @6254
    _ZNK3irr5video15CImageLoaderPPM21isALoadableFileFormatEPNS_2io9IReadFileE @6255
    _ZNK3irr5video15CImageLoaderPPM24isALoadableFileExtensionERKNS_4core6stringIcNS2_12irrAllocatorIcEEEE @6256
    _ZNK3irr5video15CImageLoaderPPM9loadImageEPNS_2io9IReadFileE @6257
    _ZNK3irr5video15CImageLoaderPSD16readRLEImageDataEPNS_2io9IReadFileERKNS0_9PsdHeaderEPj @6258
    _ZNK3irr5video15CImageLoaderPSD16readRawImageDataEPNS_2io9IReadFileERKNS0_9PsdHeaderEPj @6259
    _ZNK3irr5video15CImageLoaderPSD19getShiftFromChannelEcRKNS0_9PsdHeaderE @6260
    _ZNK3irr5video15CImageLoaderPSD21isALoadableFileFormatEPNS_2io9IReadFileE @6261
    _ZNK3irr5video15CImageLoaderPSD24isALoadableFileExtensionERKNS_4core6stringIcNS2_12irrAllocatorIcEEEE @6262
    _ZNK3irr5video15CImageLoaderPSD9loadImageEPNS_2io9IReadFileE @6263
    _ZNK3irr5video15CImageLoaderPng21isALoadableFileFormatEPNS_2io9IReadFileE @6264
    _ZNK3irr5video15CImageLoaderPng24isALoadableFileExtensionERKNS_4core6stringIcNS2_12irrAllocatorIcEEEE @6265
    _ZNK3irr5video15CImageLoaderPng9loadImageEPNS_2io9IReadFileE @6266
    _ZNK3irr5video15CImageLoaderRGB10readHeaderEPNS_2io9IReadFileERNS0_8_RGBdataE @6267
    _ZNK3irr5video15CImageLoaderRGB10readRGBrowEPhiiPNS_2io9IReadFileERNS0_8_RGBdataE @6268
    _ZNK3irr5video15CImageLoaderRGB11checkFormatEPNS_2io9IReadFileERNS0_8_RGBdataE @6269
    _ZNK3irr5video15CImageLoaderRGB11processFileEPNS_2io9IReadFileERNS0_8_RGBdataE @6270
    _ZNK3irr5video15CImageLoaderRGB13converttoARGBEPjj @6271
    _ZNK3irr5video15CImageLoaderRGB16readOffsetTablesEPNS_2io9IReadFileERNS0_8_RGBdataE @6272
    _ZNK3irr5video15CImageLoaderRGB21isALoadableFileFormatEPNS_2io9IReadFileE @6273
    _ZNK3irr5video15CImageLoaderRGB24isALoadableFileExtensionERKNS_4core6stringIcNS2_12irrAllocatorIcEEEE @6274
    _ZNK3irr5video15CImageLoaderRGB9loadImageEPNS_2io9IReadFileE @6275
    _ZNK3irr5video15CImageLoaderTGA19loadCompressedImageEPNS_2io9IReadFileERKNS0_10STGAHeaderE @6276
    _ZNK3irr5video15CImageLoaderTGA21isALoadableFileFormatEPNS_2io9IReadFileE @6277
    _ZNK3irr5video15CImageLoaderTGA24isALoadableFileExtensionERKNS_4core6stringIcNS2_12irrAllocatorIcEEEE @6278
    _ZNK3irr5video15CImageLoaderTGA9loadImageEPNS_2io9IReadFileE @6279
    _ZNK3irr5video15CImageLoaderWAL21isALoadableFileFormatEPNS_2io9IReadFileE @6280
    _ZNK3irr5video15CImageLoaderWAL24isALoadableFileExtensionERKNS_4core6stringIcNS2_12irrAllocatorIcEEEE @6281
    _ZNK3irr5video15CImageLoaderWAL9loadImageEPNS_2io9IReadFileE @6282
    _ZNK3irr5video15CImageWriterBMP10writeImageEPNS_2io10IWriteFileEPNS0_6IImageEj @6283
    _ZNK3irr5video15CImageWriterBMP25isAWriteableFileExtensionERKNS_4core6stringIcNS2_12irrAllocatorIcEEEE @6284
    _ZNK3irr5video15CImageWriterJPG10writeImageEPNS_2io10IWriteFileEPNS0_6IImageEj @6285
    _ZNK3irr5video15CImageWriterJPG25isAWriteableFileExtensionERKNS_4core6stringIcNS2_12irrAllocatorIcEEEE @6286
    _ZNK3irr5video15CImageWriterPCX10writeImageEPNS_2io10IWriteFileEPNS0_6IImageEj @6287
    _ZNK3irr5video15CImageWriterPCX25isAWriteableFileExtensionERKNS_4core6stringIcNS2_12irrAllocatorIcEEEE @6288
    _ZNK3irr5video15CImageWriterPNG10writeImageEPNS_2io10IWriteFileEPNS0_6IImageEj @6289
    _ZNK3irr5video15CImageWriterPNG25isAWriteableFileExtensionERKNS_4core6stringIcNS2_12irrAllocatorIcEEEE @6290
    _ZNK3irr5video15CImageWriterPPM10writeImageEPNS_2io10IWriteFileEPNS0_6IImageEj @6291
    _ZNK3irr5video15CImageWriterPPM25isAWriteableFileExtensionERKNS_4core6stringIcNS2_12irrAllocatorIcEEEE @6292
    _ZNK3irr5video15CImageWriterPSD10writeImageEPNS_2io10IWriteFileEPNS0_6IImageEj @6293
    _ZNK3irr5video15CImageWriterPSD25isAWriteableFileExtensionERKNS_4core6stringIcNS2_12irrAllocatorIcEEEE @6294
    _ZNK3irr5video15CImageWriterTGA10writeImageEPNS_2io10IWriteFileEPNS0_6IImageEj @6295
    _ZNK3irr5video15CImageWriterTGA25isAWriteableFileExtensionERKNS_4core6stringIcNS2_12irrAllocatorIcEEEE @6296
    _ZNK3irr5video15CSoftwareDriver12getTransformENS0_22E_TRANSFORMATION_STATEE @6297
    _ZNK3irr5video15CSoftwareDriver12queryFeatureENS0_22E_VIDEO_DRIVER_FEATUREE @6298
    _ZNK3irr5video15CSoftwareDriver13getDriverTypeEv @6299
    _ZNK3irr5video15CSoftwareDriver14getColorFormatEv @6300
    _ZNK3irr5video15CSoftwareDriver24getMaximalPrimitiveCountEv @6301
    _ZNK3irr5video15CSoftwareDriver26getCurrentRenderTargetSizeEv @6302
    _ZNK3irr5video15CSoftwareDriver7getNameEv @6303
    _ZNK3irr5video15CTRTextureWire210renderLineEPKNS0_9s4DVertexES4_ @6304
    _ZNK3irr5video16CSoftwareTexture13getDriverTypeEv @6305
    _ZNK3irr5video16CSoftwareTexture14getColorFormatEv @6306
    _ZNK3irr5video16CSoftwareTexture14isRenderTargetEv @6307
    _ZNK3irr5video16CSoftwareTexture15getOriginalSizeEv @6308
    _ZNK3irr5video16CSoftwareTexture7getSizeEv @6309
    _ZNK3irr5video16CSoftwareTexture8getPitchEv @6310
    _ZNK3irr5video17COpenGLFBOTexture19isFrameBufferObjectEv @6311
    _ZNK3irr5video17CSoftwareTexture210getTextureEv @6312
    _ZNK3irr5video17CSoftwareTexture210hasMipMapsEv @6313
    _ZNK3irr5video17CSoftwareTexture213getDriverTypeEv @6314
    _ZNK3irr5video17CSoftwareTexture214getColorFormatEv @6315
    _ZNK3irr5video17CSoftwareTexture214isRenderTargetEv @6316
    _ZNK3irr5video17CSoftwareTexture215getOriginalSizeEv @6317
    _ZNK3irr5video17CSoftwareTexture27getSizeEv @6318
    _ZNK3irr5video17CSoftwareTexture28getImageEv @6319
    _ZNK3irr5video17CSoftwareTexture28getPitchEv @6320
    _ZNK3irr5video17CSoftwareTexture28hasAlphaEv @6321
    _ZNK3irr5video17IMaterialRenderer13isTransparentEv @6322
    _ZNK3irr5video17IMaterialRenderer19getRenderCapabilityEv @6323
    _ZNK3irr5video19CBurningVideoDriver12getTransformENS0_22E_TRANSFORMATION_STATEE @6324
    _ZNK3irr5video19CBurningVideoDriver12queryFeatureENS0_22E_VIDEO_DRIVER_FEATUREE @6325
    _ZNK3irr5video19CBurningVideoDriver13getDriverTypeEv @6326
    _ZNK3irr5video19CBurningVideoDriver14getColorFormatEv @6327
    _ZNK3irr5video19CBurningVideoDriver17getMaxTextureSizeEv @6328
    _ZNK3irr5video19CBurningVideoDriver24getMaximalPrimitiveCountEv @6329
    _ZNK3irr5video19CBurningVideoDriver26getCurrentRenderTargetSizeEv @6330
    _ZNK3irr5video19CBurningVideoDriver28getMaximalDynamicLightAmountEv @6331
    _ZNK3irr5video19CBurningVideoDriver7getNameEv @6332
    _ZNK3irr5video22CD3D9NormalMapRenderer19getRenderCapabilityEv @6333
    _ZNK3irr5video23COpenGLExtensionHandler12queryFeatureENS0_22E_VIDEO_DRIVER_FEATUREE @6334
    _ZNK3irr5video23COpenGLExtensionHandler4dumpEv @6335
    _ZNK3irr5video24CD3D9ParallaxMapRenderer19getRenderCapabilityEv @6336
    _ZNK3irr5video24COpenGLNormalMapRenderer19getRenderCapabilityEv @6337
    _ZNK3irr5video25COpenGLSLMaterialRenderer13isTransparentEv @6338
    _ZNK3irr5video26COpenGLParallaxMapRenderer19getRenderCapabilityEv @6339
    _ZNK3irr5video27CD3D9ShaderMaterialRenderer13isTransparentEv @6340
    _ZNK3irr5video29COpenGLShaderMaterialRenderer13isTransparentEv @6341
    _ZNK3irr5video32CSoftware2MaterialRenderer_SOLID13isTransparentEv @6342
    _ZNK3irr5video38CD3D9MaterialRenderer_ONETEXTURE_BLEND13isTransparentEv @6343
    _ZNK3irr5video38CSoftware2MaterialRenderer_UNSUPPORTED19getRenderCapabilityEv @6344
    _ZNK3irr5video40COpenGLMaterialRenderer_ONETEXTURE_BLEND13isTransparentEv @6345
    _ZNK3irr5video43CD3D9MaterialRenderer_TRANSPARENT_ADD_COLOR13isTransparentEv @6346
    _ZNK3irr5video45COpenGLMaterialRenderer_TRANSPARENT_ADD_COLOR13isTransparentEv @6347
    _ZNK3irr5video46CD3D9MaterialRenderer_TRANSPARENT_VERTEX_ALPHA13isTransparentEv @6348
    _ZNK3irr5video47CD3D9MaterialRenderer_TRANSPARENT_ALPHA_CHANNEL13isTransparentEv @6349
    _ZNK3irr5video48COpenGLMaterialRenderer_TRANSPARENT_VERTEX_ALPHA13isTransparentEv @6350
    _ZNK3irr5video48CSoftware2MaterialRenderer_TRANSPARENT_ADD_COLOR13isTransparentEv @6351
    _ZNK3irr5video49COpenGLMaterialRenderer_TRANSPARENT_ALPHA_CHANNEL13isTransparentEv @6352
    _ZNK3irr5video51CD3D9MaterialRenderer_TRANSPARENT_ALPHA_CHANNEL_REF13isTransparentEv @6353
    _ZNK3irr5video52CD3D9MaterialRenderer_TRANSPARENT_REFLECTION_2_LAYER13isTransparentEv @6354
    _ZNK3irr5video53COpenGLMaterialRenderer_TRANSPARENT_ALPHA_CHANNEL_REF13isTransparentEv @6355
    _ZNK3irr5video54COpenGLMaterialRenderer_TRANSPARENT_REFLECTION_2_LAYER13isTransparentEv @6356
    _ZNK3irr5video6CImage10getRedMaskEv @6357
    _ZNK3irr5video6CImage11getBlueMaskEv @6358
    _ZNK3irr5video6CImage12getAlphaMaskEv @6359
    _ZNK3irr5video6CImage12getDimensionEv @6360
    _ZNK3irr5video6CImage12getGreenMaskEv @6361
    _ZNK3irr5video6CImage14getColorFormatEv @6362
    _ZNK3irr5video6CImage15getBitsPerPixelEv @6363
    _ZNK3irr5video6CImage16getBytesPerPixelEv @6364
    _ZNK3irr5video6CImage23getImageDataSizeInBytesEv @6365
    _ZNK3irr5video6CImage24getImageDataSizeInPixelsEv @6366
    _ZNK3irr5video6CImage8getPitchEv @6367
    _ZNK3irr5video6CImage8getPixelEjj @6368
    _ZNK3irr5video6SColor15getInterpolatedERKS1_f @6369
    _ZNK3irr5video7SColorf8toSColorEv @6370
    _ZNK3irr5video8CZBuffer7getSizeEv @6371
    _ZNK3irr5video8ITexture10hasMipMapsEv @6372
    _ZNK3irr5video8ITexture14isRenderTargetEv @6373
    _ZNK3irr5video8ITexture8hasAlphaEv @6374
    _ZNK3irr5video9S3DVertexltERKS1_ @6375
    _ZNK3irr6CTimer11getRealTimeEv @6376
    _ZNK3irr6CTimer7getTimeEv @6377
    _ZNK3irr6CTimer8getSpeedEv @6378
    _ZNK3irr6CTimer9isStoppedEv @6379
    _ZNK3irr6OctreeINS_5video17S3DVertex2TCoordsEE10OctreeNode16getBoundingBoxesERKNS_4core8aabbox3dIfEERNS5_5arrayIPS8_NS5_12irrAllocatorISB_EEEE @6380
    _ZNK3irr6OctreeINS_5video17S3DVertex2TCoordsEE10OctreeNode8getPolysERKNS_4core8aabbox3dIfEEPNS3_10SIndexDataEj @6381
    _ZNK3irr6OctreeINS_5video17S3DVertex2TCoordsEE10OctreeNode8getPolysERKNS_5scene12SViewFrustumEPNS3_10SIndexDataEj @6382
    _ZNK3irr6OctreeINS_5video17S3DVertexTangentsEE10OctreeNode16getBoundingBoxesERKNS_4core8aabbox3dIfEERNS5_5arrayIPS8_NS5_12irrAllocatorISB_EEEE @6383
    _ZNK3irr6OctreeINS_5video17S3DVertexTangentsEE10OctreeNode8getPolysERKNS_4core8aabbox3dIfEEPNS3_10SIndexDataEj @6384
    _ZNK3irr6OctreeINS_5video17S3DVertexTangentsEE10OctreeNode8getPolysERKNS_5scene12SViewFrustumEPNS3_10SIndexDataEj @6385
    _ZNK3irr6OctreeINS_5video9S3DVertexEE10OctreeNode16getBoundingBoxesERKNS_4core8aabbox3dIfEERNS5_5arrayIPS8_NS5_12irrAllocatorISB_EEEE @6386
    _ZNK3irr6OctreeINS_5video9S3DVertexEE10OctreeNode8getPolysERKNS_4core8aabbox3dIfEEPNS3_10SIndexDataEj @6387
    _ZNK3irr6OctreeINS_5video9S3DVertexEE10OctreeNode8getPolysERKNS_5scene12SViewFrustumEPNS3_10SIndexDataEj @6388
    _ZNK3irr7CLogger11getLogLevelEv @6389
    _ZTCN3irr11COSOperatorE0_NS_11IOSOperatorE @6390 DATA
    _ZTCN3irr14CIrrDeviceStubE0_NS_14IrrlichtDeviceE @6391 DATA
    _ZTCN3irr15CIrrDeviceWin3214CCursorControlE0_NS_3gui14ICursorControlE @6392 DATA
    _ZTCN3irr15CIrrDeviceWin32E0_NS_14CIrrDeviceStubE @6393 DATA
    _ZTCN3irr15CIrrDeviceWin32E0_NS_14IrrlichtDeviceE @6394 DATA
    _ZTCN3irr17CIrrDeviceConsoleE0_NS_14CIrrDeviceStubE @6395 DATA
    _ZTCN3irr17CIrrDeviceConsoleE0_NS_14IrrlichtDeviceE @6396 DATA
    _ZTCN3irr2io10CNPKReaderE28_NS0_12IFileArchiveE @6397 DATA
    _ZTCN3irr2io10CNPKReaderE60_NS0_9CFileListE @6398 DATA
    _ZTCN3irr2io10CNPKReaderE60_NS0_9IFileListE @6399 DATA
    _ZTCN3irr2io10CPakReaderE28_NS0_12IFileArchiveE @6400 DATA
    _ZTCN3irr2io10CPakReaderE60_NS0_9CFileListE @6401 DATA
    _ZTCN3irr2io10CPakReaderE60_NS0_9IFileListE @6402 DATA
    _ZTCN3irr2io10CTarReaderE28_NS0_12IFileArchiveE @6403 DATA
    _ZTCN3irr2io10CTarReaderE60_NS0_9CFileListE @6404 DATA
    _ZTCN3irr2io10CTarReaderE60_NS0_9IFileListE @6405 DATA
    _ZTCN3irr2io10CWriteFileE0_NS0_10IWriteFileE @6406 DATA
    _ZTCN3irr2io10CXMLWriterE0_NS0_10IXMLWriterE @6407 DATA
    _ZTCN3irr2io10CZipReaderE32_NS0_12IFileArchiveE @6408 DATA
    _ZTCN3irr2io10CZipReaderE64_NS0_9CFileListE @6409 DATA
    _ZTCN3irr2io10CZipReaderE64_NS0_9IFileListE @6410 DATA
    _ZTCN3irr2io11CAttributesE0_NS0_11IAttributesE @6411 DATA
    _ZTCN3irr2io11CFileSystemE0_NS0_11IFileSystemE @6412 DATA
    _ZTCN3irr2io11CMemoryFileE0_NS0_9IReadFileE @6413 DATA
    _ZTCN3irr2io11CMemoryFileE4_NS0_10IWriteFileE @6414 DATA
    _ZTCN3irr2io13CIntAttributeE0_NS0_10IAttributeE @6415 DATA
    _ZTCN3irr2io14CBBoxAttributeE0_NS0_10IAttributeE @6416 DATA
    _ZTCN3irr2io14CBBoxAttributeE0_NS0_17CNumbersAttributeE @6417 DATA
    _ZTCN3irr2io14CBoolAttributeE0_NS0_10IAttributeE @6418 DATA
    _ZTCN3irr2io14CEnumAttributeE0_NS0_10IAttributeE @6419 DATA
    _ZTCN3irr2io14CLimitReadFileE0_NS0_9IReadFileE @6420 DATA
    _ZTCN3irr2io14CRectAttributeE0_NS0_10IAttributeE @6421 DATA
    _ZTCN3irr2io14CRectAttributeE0_NS0_17CNumbersAttributeE @6422 DATA
    _ZTCN3irr2io15CColorAttributeE0_NS0_10IAttributeE @6423 DATA
    _ZTCN3irr2io15CColorAttributeE0_NS0_17CNumbersAttributeE @6424 DATA
    _ZTCN3irr2io15CFloatAttributeE0_NS0_10IAttributeE @6425 DATA
    _ZTCN3irr2io15CPlaneAttributeE0_NS0_10IAttributeE @6426 DATA
    _ZTCN3irr2io15CPlaneAttributeE0_NS0_17CNumbersAttributeE @6427 DATA
    _ZTCN3irr2io16CBinaryAttributeE0_NS0_10IAttributeE @6428 DATA
    _ZTCN3irr2io16CBinaryAttributeE0_NS0_16CStringAttributeE @6429 DATA
    _ZTCN3irr2io16CColorfAttributeE0_NS0_10IAttributeE @6430 DATA
    _ZTCN3irr2io16CColorfAttributeE0_NS0_17CNumbersAttributeE @6431 DATA
    _ZTCN3irr2io16CLine2dAttributeE0_NS0_10IAttributeE @6432 DATA
    _ZTCN3irr2io16CLine2dAttributeE0_NS0_17CNumbersAttributeE @6433 DATA
    _ZTCN3irr2io16CLine3dAttributeE0_NS0_10IAttributeE @6434 DATA
    _ZTCN3irr2io16CLine3dAttributeE0_NS0_17CNumbersAttributeE @6435 DATA
    _ZTCN3irr2io16CMatrixAttributeE0_NS0_10IAttributeE @6436 DATA
    _ZTCN3irr2io16CMatrixAttributeE0_NS0_17CNumbersAttributeE @6437 DATA
    _ZTCN3irr2io16CStringAttributeE0_NS0_10IAttributeE @6438 DATA
    _ZTCN3irr2io17CArchiveLoaderNPKE0_NS0_14IArchiveLoaderE @6439 DATA
    _ZTCN3irr2io17CArchiveLoaderPAKE0_NS0_14IArchiveLoaderE @6440 DATA
    _ZTCN3irr2io17CArchiveLoaderTARE0_NS0_14IArchiveLoaderE @6441 DATA
    _ZTCN3irr2io17CArchiveLoaderZIPE0_NS0_14IArchiveLoaderE @6442 DATA
    _ZTCN3irr2io17CMountPointReaderE28_NS0_12IFileArchiveE @6443 DATA
    _ZTCN3irr2io17CMountPointReaderE60_NS0_9CFileListE @6444 DATA
    _ZTCN3irr2io17CMountPointReaderE60_NS0_9IFileListE @6445 DATA
    _ZTCN3irr2io17CNumbersAttributeE0_NS0_10IAttributeE @6446 DATA
    _ZTCN3irr2io17CTextureAttributeE0_NS0_10IAttributeE @6447 DATA
    _ZTCN3irr2io18CTriangleAttributeE0_NS0_10IAttributeE @6448 DATA
    _ZTCN3irr2io18CTriangleAttributeE0_NS0_17CNumbersAttributeE @6449 DATA
    _ZTCN3irr2io18CVector3DAttributeE0_NS0_10IAttributeE @6450 DATA
    _ZTCN3irr2io18CVector3DAttributeE0_NS0_17CNumbersAttributeE @6451 DATA
    _ZTCN3irr2io19CArchiveLoaderMountE0_NS0_14IArchiveLoaderE @6452 DATA
    _ZTCN3irr2io20CPosition2DAttributeE0_NS0_10IAttributeE @6453 DATA
    _ZTCN3irr2io20CPosition2DAttributeE0_NS0_17CNumbersAttributeE @6454 DATA
    _ZTCN3irr2io20CQuaternionAttributeE0_NS0_10IAttributeE @6455 DATA
    _ZTCN3irr2io20CQuaternionAttributeE0_NS0_17CNumbersAttributeE @6456 DATA
    _ZTCN3irr2io21CUserPointerAttributeE0_NS0_10IAttributeE @6457 DATA
    _ZTCN3irr2io22CStringWArrayAttributeE0_NS0_10IAttributeE @6458 DATA
    _ZTCN3irr2io9CFileListE0_NS0_9IFileListE @6459 DATA
    _ZTCN3irr2io9CReadFileE0_NS0_9IReadFileE @6460 DATA
    _ZTCN3irr3gui10CGUIButtonE0_NS0_10IGUIButtonE @6461 DATA
    _ZTCN3irr3gui10CGUIButtonE0_NS0_11IGUIElementE @6462 DATA
    _ZTCN3irr3gui10CGUIButtonE344_NS_2io26IAttributeExchangingObjectE @6463 DATA
    _ZTCN3irr3gui10CGUIWindowE0_NS0_10IGUIWindowE @6464 DATA
    _ZTCN3irr3gui10CGUIWindowE0_NS0_11IGUIElementE @6465 DATA
    _ZTCN3irr3gui10CGUIWindowE260_NS_2io26IAttributeExchangingObjectE @6466 DATA
    _ZTCN3irr3gui10IGUIButtonE0_NS0_11IGUIElementE @6467 DATA
    _ZTCN3irr3gui10IGUIButtonE212_NS_2io26IAttributeExchangingObjectE @6468 DATA
    _ZTCN3irr3gui10IGUIWindowE0_NS0_11IGUIElementE @6469 DATA
    _ZTCN3irr3gui10IGUIWindowE212_NS_2io26IAttributeExchangingObjectE @6470 DATA
    _ZTCN3irr3gui11CGUIEditBoxE0_NS0_11IGUIEditBoxE @6471 DATA
    _ZTCN3irr3gui11CGUIEditBoxE0_NS0_11IGUIElementE @6472 DATA
    _ZTCN3irr3gui11CGUIEditBoxE348_NS_2io26IAttributeExchangingObjectE @6473 DATA
    _ZTCN3irr3gui11CGUIListBoxE0_NS0_11IGUIElementE @6474 DATA
    _ZTCN3irr3gui11CGUIListBoxE0_NS0_11IGUIListBoxE @6475 DATA
    _ZTCN3irr3gui11CGUIListBoxE296_NS_2io26IAttributeExchangingObjectE @6476 DATA
    _ZTCN3irr3gui11CGUISpinBoxE0_NS0_11IGUIElementE @6477 DATA
    _ZTCN3irr3gui11CGUISpinBoxE0_NS0_11IGUISpinBoxE @6478 DATA
    _ZTCN3irr3gui11CGUISpinBoxE260_NS_2io26IAttributeExchangingObjectE @6479 DATA
    _ZTCN3irr3gui11CGUIToolBarE0_NS0_11IGUIElementE @6480 DATA
    _ZTCN3irr3gui11CGUIToolBarE0_NS0_11IGUIToolBarE @6481 DATA
    _ZTCN3irr3gui11CGUIToolBarE216_NS_2io26IAttributeExchangingObjectE @6482 DATA
    _ZTCN3irr3gui11IGUIEditBoxE0_NS0_11IGUIElementE @6483 DATA
    _ZTCN3irr3gui11IGUIEditBoxE212_NS_2io26IAttributeExchangingObjectE @6484 DATA
    _ZTCN3irr3gui11IGUIElementE212_NS_2io26IAttributeExchangingObjectE @6485 DATA
    _ZTCN3irr3gui11IGUIListBoxE0_NS0_11IGUIElementE @6486 DATA
    _ZTCN3irr3gui11IGUIListBoxE212_NS_2io26IAttributeExchangingObjectE @6487 DATA
    _ZTCN3irr3gui11IGUISpinBoxE0_NS0_11IGUIElementE @6488 DATA
    _ZTCN3irr3gui11IGUISpinBoxE212_NS_2io26IAttributeExchangingObjectE @6489 DATA
    _ZTCN3irr3gui11IGUIToolBarE0_NS0_11IGUIElementE @6490 DATA
    _ZTCN3irr3gui11IGUIToolBarE212_NS_2io26IAttributeExchangingObjectE @6491 DATA
    _ZTCN3irr3gui12CGUICheckBoxE0_NS0_11IGUIElementE @6492 DATA
    _ZTCN3irr3gui12CGUICheckBoxE0_NS0_12IGUICheckBoxE @6493 DATA
    _ZTCN3irr3gui12CGUICheckBoxE220_NS_2io26IAttributeExchangingObjectE @6494 DATA
    _ZTCN3irr3gui12CGUIComboBoxE0_NS0_11IGUIElementE @6495 DATA
    _ZTCN3irr3gui12CGUIComboBoxE0_NS0_12IGUIComboBoxE @6496 DATA
    _ZTCN3irr3gui12CGUIComboBoxE264_NS_2io26IAttributeExchangingObjectE @6497 DATA
    _ZTCN3irr3gui12CGUITreeViewE0_NS0_11IGUIElementE @6498 DATA
    _ZTCN3irr3gui12CGUITreeViewE0_NS0_12IGUITreeViewE @6499 DATA
    _ZTCN3irr3gui12CGUITreeViewE268_NS_2io26IAttributeExchangingObjectE @6500 DATA
    _ZTCN3irr3gui12IGUICheckBoxE0_NS0_11IGUIElementE @6501 DATA
    _ZTCN3irr3gui12IGUICheckBoxE212_NS_2io26IAttributeExchangingObjectE @6502 DATA
    _ZTCN3irr3gui12IGUIComboBoxE0_NS0_11IGUIElementE @6503 DATA
    _ZTCN3irr3gui12IGUIComboBoxE212_NS_2io26IAttributeExchangingObjectE @6504 DATA
    _ZTCN3irr3gui12IGUITreeViewE0_NS0_11IGUIElementE @6505 DATA
    _ZTCN3irr3gui12IGUITreeViewE212_NS_2io26IAttributeExchangingObjectE @6506 DATA
    _ZTCN3irr3gui13CGUIImageListE0_NS0_13IGUIImageListE @6507 DATA
    _ZTCN3irr3gui13CGUIScrollBarE0_NS0_11IGUIElementE @6508 DATA
    _ZTCN3irr3gui13CGUIScrollBarE0_NS0_13IGUIScrollBarE @6509 DATA
    _ZTCN3irr3gui13CGUIScrollBarE280_NS_2io26IAttributeExchangingObjectE @6510 DATA
    _ZTCN3irr3gui13IGUIScrollBarE0_NS0_11IGUIElementE @6511 DATA
    _ZTCN3irr3gui13IGUIScrollBarE212_NS_2io26IAttributeExchangingObjectE @6512 DATA
    _ZTCN3irr3gui14CGUIInOutFaderE0_NS0_11IGUIElementE @6513 DATA
    _ZTCN3irr3gui14CGUIInOutFaderE0_NS0_14IGUIInOutFaderE @6514 DATA
    _ZTCN3irr3gui14CGUIInOutFaderE240_NS_2io26IAttributeExchangingObjectE @6515 DATA
    _ZTCN3irr3gui14CGUIMeshViewerE0_NS0_11IGUIElementE @6516 DATA
    _ZTCN3irr3gui14CGUIMeshViewerE0_NS0_14IGUIMeshViewerE @6517 DATA
    _ZTCN3irr3gui14CGUIMeshViewerE320_NS_2io26IAttributeExchangingObjectE @6518 DATA
    _ZTCN3irr3gui14CGUIMessageBoxE0_NS0_10CGUIWindowE @6519 DATA
    _ZTCN3irr3gui14CGUIMessageBoxE0_NS0_10IGUIWindowE @6520 DATA
    _ZTCN3irr3gui14CGUIMessageBoxE0_NS0_11IGUIElementE @6521 DATA
    _ZTCN3irr3gui14CGUIMessageBoxE312_NS_2io26IAttributeExchangingObjectE @6522 DATA
    _ZTCN3irr3gui14CGUISpriteBankE0_NS0_14IGUISpriteBankE @6523 DATA
    _ZTCN3irr3gui14CGUIStaticTextE0_NS0_11IGUIElementE @6524 DATA
    _ZTCN3irr3gui14CGUIStaticTextE0_NS0_14IGUIStaticTextE @6525 DATA
    _ZTCN3irr3gui14CGUIStaticTextE264_NS_2io26IAttributeExchangingObjectE @6526 DATA
    _ZTCN3irr3gui14CGUITabControlE0_NS0_11IGUIElementE @6527 DATA
    _ZTCN3irr3gui14CGUITabControlE0_NS0_14IGUITabControlE @6528 DATA
    _ZTCN3irr3gui14CGUITabControlE268_NS_2io26IAttributeExchangingObjectE @6529 DATA
    _ZTCN3irr3gui14IGUIFontBitmapE0_NS0_8IGUIFontE @6530 DATA
    _ZTCN3irr3gui14IGUIInOutFaderE0_NS0_11IGUIElementE @6531 DATA
    _ZTCN3irr3gui14IGUIInOutFaderE212_NS_2io26IAttributeExchangingObjectE @6532 DATA
    _ZTCN3irr3gui14IGUIMeshViewerE0_NS0_11IGUIElementE @6533 DATA
    _ZTCN3irr3gui14IGUIMeshViewerE212_NS_2io26IAttributeExchangingObjectE @6534 DATA
    _ZTCN3irr3gui14IGUIStaticTextE0_NS0_11IGUIElementE @6535 DATA
    _ZTCN3irr3gui14IGUIStaticTextE212_NS_2io26IAttributeExchangingObjectE @6536 DATA
    _ZTCN3irr3gui14IGUITabControlE0_NS0_11IGUIElementE @6537 DATA
    _ZTCN3irr3gui14IGUITabControlE212_NS_2io26IAttributeExchangingObjectE @6538 DATA
    _ZTCN3irr3gui15CGUIContextMenuE0_NS0_11IGUIElementE @6539 DATA
    _ZTCN3irr3gui15CGUIContextMenuE0_NS0_15IGUIContextMenuE @6540 DATA
    _ZTCN3irr3gui15CGUIContextMenuE264_NS_2io26IAttributeExchangingObjectE @6541 DATA
    _ZTCN3irr3gui15CGUIEnvironmentE0_NS0_15IGUIEnvironmentE @6542 DATA
    _ZTCN3irr3gui15CGUIEnvironmentE348_NS_2io26IAttributeExchangingObjectE @6543 DATA
    _ZTCN3irr3gui15CGUIEnvironmentE4_NS0_11IGUIElementE @6544 DATA
    _ZTCN3irr3gui15CGUIModalScreenE0_NS0_11IGUIElementE @6545 DATA
    _ZTCN3irr3gui15CGUIModalScreenE216_NS_2io26IAttributeExchangingObjectE @6546 DATA
    _ZTCN3irr3gui15IGUIContextMenuE0_NS0_11IGUIElementE @6547 DATA
    _ZTCN3irr3gui15IGUIContextMenuE212_NS_2io26IAttributeExchangingObjectE @6548 DATA
    _ZTCN3irr3gui18CGUIFileOpenDialogE0_NS0_11IGUIElementE @6549 DATA
    _ZTCN3irr3gui18CGUIFileOpenDialogE0_NS0_18IGUIFileOpenDialogE @6550 DATA
    _ZTCN3irr3gui18CGUIFileOpenDialogE288_NS_2io26IAttributeExchangingObjectE @6551 DATA
    _ZTCN3irr3gui18IGUIFileOpenDialogE0_NS0_11IGUIElementE @6552 DATA
    _ZTCN3irr3gui18IGUIFileOpenDialogE212_NS_2io26IAttributeExchangingObjectE @6553 DATA
    _ZTCN3irr3gui21CGUIColorSelectDialogE0_NS0_11IGUIElementE @6554 DATA
    _ZTCN3irr3gui21CGUIColorSelectDialogE0_NS0_21IGUIColorSelectDialogE @6555 DATA
    _ZTCN3irr3gui21CGUIColorSelectDialogE264_NS_2io26IAttributeExchangingObjectE @6556 DATA
    _ZTCN3irr3gui21IGUIColorSelectDialogE0_NS0_11IGUIElementE @6557 DATA
    _ZTCN3irr3gui21IGUIColorSelectDialogE212_NS_2io26IAttributeExchangingObjectE @6558 DATA
    _ZTCN3irr3gui25CDefaultGUIElementFactoryE0_NS0_18IGUIElementFactoryE @6559 DATA
    _ZTCN3irr3gui7CGUITabE0_NS0_11IGUIElementE @6560 DATA
    _ZTCN3irr3gui7CGUITabE0_NS0_7IGUITabE @6561 DATA
    _ZTCN3irr3gui7CGUITabE232_NS_2io26IAttributeExchangingObjectE @6562 DATA
    _ZTCN3irr3gui7IGUITabE0_NS0_11IGUIElementE @6563 DATA
    _ZTCN3irr3gui7IGUITabE212_NS_2io26IAttributeExchangingObjectE @6564 DATA
    _ZTCN3irr3gui8CGUIFontE0_NS0_14IGUIFontBitmapE @6565 DATA
    _ZTCN3irr3gui8CGUIFontE0_NS0_8IGUIFontE @6566 DATA
    _ZTCN3irr3gui8CGUIMenuE0_NS0_11IGUIElementE @6567 DATA
    _ZTCN3irr3gui8CGUIMenuE0_NS0_15CGUIContextMenuE @6568 DATA
    _ZTCN3irr3gui8CGUIMenuE0_NS0_15IGUIContextMenuE @6569 DATA
    _ZTCN3irr3gui8CGUIMenuE264_NS_2io26IAttributeExchangingObjectE @6570 DATA
    _ZTCN3irr3gui8CGUISkinE0_NS0_8IGUISkinE @6571 DATA
    _ZTCN3irr3gui8CGUISkinE0_NS_2io26IAttributeExchangingObjectE @6572 DATA
    _ZTCN3irr3gui8IGUISkinE0_NS_2io26IAttributeExchangingObjectE @6573 DATA
    _ZTCN3irr3gui9CGUIImageE0_NS0_11IGUIElementE @6574 DATA
    _ZTCN3irr3gui9CGUIImageE0_NS0_9IGUIImageE @6575 DATA
    _ZTCN3irr3gui9CGUIImageE224_NS_2io26IAttributeExchangingObjectE @6576 DATA
    _ZTCN3irr3gui9CGUITableE0_NS0_11IGUIElementE @6577 DATA
    _ZTCN3irr3gui9CGUITableE0_NS0_9IGUITableE @6578 DATA
    _ZTCN3irr3gui9CGUITableE316_NS_2io26IAttributeExchangingObjectE @6579 DATA
    _ZTCN3irr3gui9IGUIImageE0_NS0_11IGUIElementE @6580 DATA
    _ZTCN3irr3gui9IGUIImageE212_NS_2io26IAttributeExchangingObjectE @6581 DATA
    _ZTCN3irr3gui9IGUITableE0_NS0_11IGUIElementE @6582 DATA
    _ZTCN3irr3gui9IGUITableE212_NS_2io26IAttributeExchangingObjectE @6583 DATA
    _ZTCN3irr5scene10CCSMLoaderE0_NS0_11IMeshLoaderE @6584 DATA
    _ZTCN3irr5scene10CDMFLoaderE0_NS0_11IMeshLoaderE @6585 DATA
    _ZTCN3irr5scene10CMeshCacheE0_NS0_10IMeshCacheE @6586 DATA
    _ZTCN3irr5scene10COCTLoaderE0_NS0_11IMeshLoaderE @6587 DATA
    _ZTCN3irr5scene10ISceneNodeE0_NS_2io26IAttributeExchangingObjectE @6588 DATA
    _ZTCN3irr5scene11CMeshBufferINS_5video17S3DVertex2TCoordsEEE0_NS0_11IMeshBufferE @6589 DATA
    _ZTCN3irr5scene11CMeshBufferINS_5video17S3DVertexTangentsEEE0_NS0_11IMeshBufferE @6590 DATA
    _ZTCN3irr5scene11CMeshBufferINS_5video9S3DVertexEEE0_NS0_11IMeshBufferE @6591 DATA
    _ZTCN3irr5scene12CIndexBufferE0_NS0_12IIndexBufferE @6592 DATA
    _ZTCN3irr5scene12CLightPrefabE0_NS0_14IColladaPrefabE @6593 DATA
    _ZTCN3irr5scene12CLightPrefabE0_NS0_7CPrefabE @6594 DATA
    _ZTCN3irr5scene12CQ3LevelMeshE0_NS0_12IQ3LevelMeshE @6595 DATA
    _ZTCN3irr5scene12CQ3LevelMeshE0_NS0_13IAnimatedMeshE @6596 DATA
    _ZTCN3irr5scene12CQ3LevelMeshE0_NS0_5IMeshE @6597 DATA
    _ZTCN3irr5scene12CScenePrefabE0_NS0_14IColladaPrefabE @6598 DATA
    _ZTCN3irr5scene12CScenePrefabE0_NS0_7CPrefabE @6599 DATA
    _ZTCN3irr5scene12CSkinnedMeshE0_NS0_12ISkinnedMeshE @6600 DATA
    _ZTCN3irr5scene12CSkinnedMeshE0_NS0_13IAnimatedMeshE @6601 DATA
    _ZTCN3irr5scene12CSkinnedMeshE0_NS0_5IMeshE @6602 DATA
    _ZTCN3irr5scene12IQ3LevelMeshE0_NS0_13IAnimatedMeshE @6603 DATA
    _ZTCN3irr5scene12IQ3LevelMeshE0_NS0_5IMeshE @6604 DATA
    _ZTCN3irr5scene12ISkinnedMeshE0_NS0_13IAnimatedMeshE @6605 DATA
    _ZTCN3irr5scene12ISkinnedMeshE0_NS0_5IMeshE @6606 DATA
    _ZTCN3irr5scene13CCameraPrefabE0_NS0_14IColladaPrefabE @6607 DATA
    _ZTCN3irr5scene13CCameraPrefabE0_NS0_7CPrefabE @6608 DATA
    _ZTCN3irr5scene13CSceneManagerE0_NS0_13ISceneManagerE @6609 DATA
    _ZTCN3irr5scene13CSceneManagerE4_NS0_10ISceneNodeE @6610 DATA
    _ZTCN3irr5scene13CSceneManagerE4_NS_2io26IAttributeExchangingObjectE @6611 DATA
    _ZTCN3irr5scene13CVertexBufferE0_NS0_13IVertexBufferE @6612 DATA
    _ZTCN3irr5scene13IAnimatedMeshE0_NS0_5IMeshE @6613 DATA
    _ZTCN3irr5scene13SAnimatedMeshE0_NS0_13IAnimatedMeshE @6614 DATA
    _ZTCN3irr5scene13SAnimatedMeshE0_NS0_5IMeshE @6615 DATA
    _ZTCN3irr5scene14CBoneSceneNodeE0_NS0_10ISceneNodeE @6616 DATA
    _ZTCN3irr5scene14CBoneSceneNodeE0_NS0_14IBoneSceneNodeE @6617 DATA
    _ZTCN3irr5scene14CBoneSceneNodeE0_NS_2io26IAttributeExchangingObjectE @6618 DATA
    _ZTCN3irr5scene14CCubeSceneNodeE0_NS0_10ISceneNodeE @6619 DATA
    _ZTCN3irr5scene14CCubeSceneNodeE0_NS0_14IMeshSceneNodeE @6620 DATA
    _ZTCN3irr5scene14CCubeSceneNodeE0_NS_2io26IAttributeExchangingObjectE @6621 DATA
    _ZTCN3irr5scene14CIrrMeshWriterE0_NS0_11IMeshWriterE @6622 DATA
    _ZTCN3irr5scene14CMeshSceneNodeE0_NS0_10ISceneNodeE @6623 DATA
    _ZTCN3irr5scene14CMeshSceneNodeE0_NS0_14IMeshSceneNodeE @6624 DATA
    _ZTCN3irr5scene14CMeshSceneNodeE0_NS_2io26IAttributeExchangingObjectE @6625 DATA
    _ZTCN3irr5scene14COBJMeshWriterE0_NS0_11IMeshWriterE @6626 DATA
    _ZTCN3irr5scene14CPLYMeshWriterE0_NS0_11IMeshWriterE @6627 DATA
    _ZTCN3irr5scene14CSTLMeshWriterE0_NS0_11IMeshWriterE @6628 DATA
    _ZTCN3irr5scene14CTextSceneNodeE0_NS0_10ISceneNodeE @6629 DATA
    _ZTCN3irr5scene14CTextSceneNodeE0_NS0_14ITextSceneNodeE @6630 DATA
    _ZTCN3irr5scene14CTextSceneNodeE0_NS_2io26IAttributeExchangingObjectE @6631 DATA
    _ZTCN3irr5scene14IBoneSceneNodeE0_NS0_10ISceneNodeE @6632 DATA
    _ZTCN3irr5scene14IBoneSceneNodeE0_NS_2io26IAttributeExchangingObjectE @6633 DATA
    _ZTCN3irr5scene14IMeshSceneNodeE0_NS0_10ISceneNodeE @6634 DATA
    _ZTCN3irr5scene14IMeshSceneNodeE0_NS_2io26IAttributeExchangingObjectE @6635 DATA
    _ZTCN3irr5scene14ITextSceneNodeE0_NS0_10ISceneNodeE @6636 DATA
    _ZTCN3irr5scene14ITextSceneNodeE0_NS_2io26IAttributeExchangingObjectE @6637 DATA
    _ZTCN3irr5scene15CEmptySceneNodeE0_NS0_10ISceneNodeE @6638 DATA
    _ZTCN3irr5scene15CEmptySceneNodeE0_NS_2io26IAttributeExchangingObjectE @6639 DATA
    _ZTCN3irr5scene15CGeometryPrefabE0_NS0_14IColladaPrefabE @6640 DATA
    _ZTCN3irr5scene15CGeometryPrefabE0_NS0_7CPrefabE @6641 DATA
    _ZTCN3irr5scene15CLightSceneNodeE0_NS0_10ISceneNodeE @6642 DATA
    _ZTCN3irr5scene15CLightSceneNodeE0_NS0_15ILightSceneNodeE @6643 DATA
    _ZTCN3irr5scene15CLightSceneNodeE0_NS_2io26IAttributeExchangingObjectE @6644 DATA
    _ZTCN3irr5scene15ILightSceneNodeE0_NS0_10ISceneNodeE @6645 DATA
    _ZTCN3irr5scene15ILightSceneNodeE0_NS_2io26IAttributeExchangingObjectE @6646 DATA
    _ZTCN3irr5scene15SSkinMeshBufferE0_NS0_11IMeshBufferE @6647 DATA
    _ZTCN3irr5scene16CAnimatedMeshMD2E0_NS0_13IAnimatedMeshE @6648 DATA
    _ZTCN3irr5scene16CAnimatedMeshMD2E0_NS0_16IAnimatedMeshMD2E @6649 DATA
    _ZTCN3irr5scene16CAnimatedMeshMD2E0_NS0_5IMeshE @6650 DATA
    _ZTCN3irr5scene16CAnimatedMeshMD3E0_NS0_13IAnimatedMeshE @6651 DATA
    _ZTCN3irr5scene16CAnimatedMeshMD3E0_NS0_16IAnimatedMeshMD3E @6652 DATA
    _ZTCN3irr5scene16CAnimatedMeshMD3E0_NS0_5IMeshE @6653 DATA
    _ZTCN3irr5scene16CCameraSceneNodeE0_NS0_10ISceneNodeE @6654 DATA
    _ZTCN3irr5scene16CCameraSceneNodeE0_NS0_16ICameraSceneNodeE @6655 DATA
    _ZTCN3irr5scene16CCameraSceneNodeE0_NS_2io26IAttributeExchangingObjectE @6656 DATA
    _ZTCN3irr5scene16CMeshManipulatorE0_NS0_16IMeshManipulatorE @6657 DATA
    _ZTCN3irr5scene16COctreeSceneNodeE0_NS0_10ISceneNodeE @6658 DATA
    _ZTCN3irr5scene16COctreeSceneNodeE0_NS0_14IMeshSceneNodeE @6659 DATA
    _ZTCN3irr5scene16COctreeSceneNodeE0_NS_2io26IAttributeExchangingObjectE @6660 DATA
    _ZTCN3irr5scene16CSkyBoxSceneNodeE0_NS0_10ISceneNodeE @6661 DATA
    _ZTCN3irr5scene16CSkyBoxSceneNodeE0_NS_2io26IAttributeExchangingObjectE @6662 DATA
    _ZTCN3irr5scene16CSphereSceneNodeE0_NS0_10ISceneNodeE @6663 DATA
    _ZTCN3irr5scene16CSphereSceneNodeE0_NS0_14IMeshSceneNodeE @6664 DATA
    _ZTCN3irr5scene16CSphereSceneNodeE0_NS_2io26IAttributeExchangingObjectE @6665 DATA
    _ZTCN3irr5scene16CXMeshFileLoaderE0_NS0_11IMeshLoaderE @6666 DATA
    _ZTCN3irr5scene16IAnimatedMeshMD2E0_NS0_13IAnimatedMeshE @6667 DATA
    _ZTCN3irr5scene16IAnimatedMeshMD2E0_NS0_5IMeshE @6668 DATA
    _ZTCN3irr5scene16IAnimatedMeshMD3E0_NS0_13IAnimatedMeshE @6669 DATA
    _ZTCN3irr5scene16IAnimatedMeshMD3E0_NS0_5IMeshE @6670 DATA
    _ZTCN3irr5scene16ICameraSceneNodeE0_NS0_10ISceneNodeE @6671 DATA
    _ZTCN3irr5scene16ICameraSceneNodeE0_NS_2io26IAttributeExchangingObjectE @6672 DATA
    _ZTCN3irr5scene16IParticleEmitterE0_NS_2io26IAttributeExchangingObjectE @6673 DATA
    _ZTCN3irr5scene17CSkyDomeSceneNodeE0_NS0_10ISceneNodeE @6674 DATA
    _ZTCN3irr5scene17CSkyDomeSceneNodeE0_NS_2io26IAttributeExchangingObjectE @6675 DATA
    _ZTCN3irr5scene17CTerrainSceneNodeE0_NS0_10ISceneNodeE @6676 DATA
    _ZTCN3irr5scene17CTerrainSceneNodeE0_NS0_17ITerrainSceneNodeE @6677 DATA
    _ZTCN3irr5scene17CTerrainSceneNodeE0_NS_2io26IAttributeExchangingObjectE @6678 DATA
    _ZTCN3irr5scene17CTriangleSelectorE0_NS0_17ITriangleSelectorE @6679 DATA
    _ZTCN3irr5scene17IParticleAffectorE0_NS_2io26IAttributeExchangingObjectE @6680 DATA
    _ZTCN3irr5scene17ITerrainSceneNodeE0_NS0_10ISceneNodeE @6681 DATA
    _ZTCN3irr5scene17ITerrainSceneNodeE0_NS_2io26IAttributeExchangingObjectE @6682 DATA
    _ZTCN3irr5scene18C3DSMeshFileLoaderE0_NS0_11IMeshLoaderE @6683 DATA
    _ZTCN3irr5scene18CB3DMeshFileLoaderE0_NS0_11IMeshLoaderE @6684 DATA
    _ZTCN3irr5scene18CBSPMeshFileLoaderE0_NS0_11IMeshLoaderE @6685 DATA
    _ZTCN3irr5scene18CColladaFileLoaderE0_NS0_11IMeshLoaderE @6686 DATA
    _ZTCN3irr5scene18CColladaMeshWriterE0_NS0_11IMeshWriterE @6687 DATA
    _ZTCN3irr5scene18CDynamicMeshBufferE0_NS0_11IMeshBufferE @6688 DATA
    _ZTCN3irr5scene18CDynamicMeshBufferE0_NS0_18IDynamicMeshBufferE @6689 DATA
    _ZTCN3irr5scene18CIrrMeshFileLoaderE0_NS0_11IMeshLoaderE @6690 DATA
    _ZTCN3irr5scene18CLWOMeshFileLoaderE0_NS0_11IMeshLoaderE @6691 DATA
    _ZTCN3irr5scene18CMD2MeshFileLoaderE0_NS0_11IMeshLoaderE @6692 DATA
    _ZTCN3irr5scene18CMD3MeshFileLoaderE0_NS0_11IMeshLoaderE @6693 DATA
    _ZTCN3irr5scene18COBJMeshFileLoaderE0_NS0_11IMeshLoaderE @6694 DATA
    _ZTCN3irr5scene18CPLYMeshFileLoaderE0_NS0_11IMeshLoaderE @6695 DATA
    _ZTCN3irr5scene18CSTLMeshFileLoaderE0_NS0_11IMeshLoaderE @6696 DATA
    _ZTCN3irr5scene18IDynamicMeshBufferE0_NS0_11IMeshBufferE @6697 DATA
    _ZTCN3irr5scene18ISceneNodeAnimatorE0_NS_2io26IAttributeExchangingObjectE @6698 DATA
    _ZTCN3irr5scene19CBillboardSceneNodeE0_NS_2io26IAttributeExchangingObjectE @6699 DATA
    _ZTCN3irr5scene19CBillboardSceneNodeE296_NS0_10ISceneNodeE @6700 DATA
    _ZTCN3irr5scene19CBillboardSceneNodeE296_NS0_19IBillboardSceneNodeE @6701 DATA
    _ZTCN3irr5scene19CLMTSMeshFileLoaderE0_NS0_11IMeshLoaderE @6702 DATA
    _ZTCN3irr5scene19CMS3DMeshFileLoaderE0_NS0_11IMeshLoaderE @6703 DATA
    _ZTCN3irr5scene19CMY3DMeshFileLoaderE0_NS0_11IMeshLoaderE @6704 DATA
    _ZTCN3irr5scene19COgreMeshFileLoaderE0_NS0_11IMeshLoaderE @6705 DATA
    _ZTCN3irr5scene19CParticleBoxEmitterE0_NS0_16IParticleEmitterE @6706 DATA
    _ZTCN3irr5scene19CParticleBoxEmitterE0_NS0_19IParticleBoxEmitterE @6707 DATA
    _ZTCN3irr5scene19CParticleBoxEmitterE0_NS_2io26IAttributeExchangingObjectE @6708 DATA
    _ZTCN3irr5scene19CTriangleBBSelectorE0_NS0_17CTriangleSelectorE @6709 DATA
    _ZTCN3irr5scene19CTriangleBBSelectorE0_NS0_17ITriangleSelectorE @6710 DATA
    _ZTCN3irr5scene19IBillboardSceneNodeE0_NS0_10ISceneNodeE @6711 DATA
    _ZTCN3irr5scene19IBillboardSceneNodeE0_NS_2io26IAttributeExchangingObjectE @6712 DATA
    _ZTCN3irr5scene19IParticleBoxEmitterE0_NS0_16IParticleEmitterE @6713 DATA
    _ZTCN3irr5scene19IParticleBoxEmitterE0_NS_2io26IAttributeExchangingObjectE @6714 DATA
    _ZTCN3irr5scene20CParticleMeshEmitterE0_NS0_16IParticleEmitterE @6715 DATA
    _ZTCN3irr5scene20CParticleMeshEmitterE0_NS0_20IParticleMeshEmitterE @6716 DATA
    _ZTCN3irr5scene20CParticleMeshEmitterE0_NS_2io26IAttributeExchangingObjectE @6717 DATA
    _ZTCN3irr5scene20CParticleRingEmitterE0_NS0_16IParticleEmitterE @6718 DATA
    _ZTCN3irr5scene20CParticleRingEmitterE0_NS0_20IParticleRingEmitterE @6719 DATA
    _ZTCN3irr5scene20CParticleRingEmitterE0_NS_2io26IAttributeExchangingObjectE @6720 DATA
    _ZTCN3irr5scene20IParticleMeshEmitterE0_NS0_16IParticleEmitterE @6721 DATA
    _ZTCN3irr5scene20IParticleMeshEmitterE0_NS_2io26IAttributeExchangingObjectE @6722 DATA
    _ZTCN3irr5scene20IParticleRingEmitterE0_NS0_16IParticleEmitterE @6723 DATA
    _ZTCN3irr5scene20IParticleRingEmitterE0_NS_2io26IAttributeExchangingObjectE @6724 DATA
    _ZTCN3irr5scene21CMetaTriangleSelectorE0_NS0_17ITriangleSelectorE @6725 DATA
    _ZTCN3irr5scene21CMetaTriangleSelectorE0_NS0_21IMetaTriangleSelectorE @6726 DATA
    _ZTCN3irr5scene21CParticlePointEmitterE0_NS0_16IParticleEmitterE @6727 DATA
    _ZTCN3irr5scene21CParticlePointEmitterE0_NS_2io26IAttributeExchangingObjectE @6728 DATA
    _ZTCN3irr5scene21CVolumeLightSceneNodeE0_NS0_10ISceneNodeE @6729 DATA
    _ZTCN3irr5scene21CVolumeLightSceneNodeE0_NS0_21IVolumeLightSceneNodeE @6730 DATA
    _ZTCN3irr5scene21CVolumeLightSceneNodeE0_NS_2io26IAttributeExchangingObjectE @6731 DATA
    _ZTCN3irr5scene21IMetaTriangleSelectorE0_NS0_17ITriangleSelectorE @6732 DATA
    _ZTCN3irr5scene21IVolumeLightSceneNodeE0_NS0_10ISceneNodeE @6733 DATA
    _ZTCN3irr5scene21IVolumeLightSceneNodeE0_NS_2io26IAttributeExchangingObjectE @6734 DATA
    _ZTCN3irr5scene22CAnimatedMeshSceneNodeE0_NS0_10ISceneNodeE @6735 DATA
    _ZTCN3irr5scene22CAnimatedMeshSceneNodeE0_NS0_22IAnimatedMeshSceneNodeE @6736 DATA
    _ZTCN3irr5scene22CAnimatedMeshSceneNodeE0_NS_2io26IAttributeExchangingObjectE @6737 DATA
    _ZTCN3irr5scene22CParticleScaleAffectorE0_NS0_17IParticleAffectorE @6738 DATA
    _ZTCN3irr5scene22CParticleScaleAffectorE0_NS_2io26IAttributeExchangingObjectE @6739 DATA
    _ZTCN3irr5scene22CParticleSphereEmitterE0_NS0_16IParticleEmitterE @6740 DATA
    _ZTCN3irr5scene22CParticleSphereEmitterE0_NS0_22IParticleSphereEmitterE @6741 DATA
    _ZTCN3irr5scene22CParticleSphereEmitterE0_NS_2io26IAttributeExchangingObjectE @6742 DATA
    _ZTCN3irr5scene22CQuake3ShaderSceneNodeE0_NS0_10ISceneNodeE @6743 DATA
    _ZTCN3irr5scene22CQuake3ShaderSceneNodeE0_NS0_14IMeshSceneNodeE @6744 DATA
    _ZTCN3irr5scene22CQuake3ShaderSceneNodeE0_NS_2io26IAttributeExchangingObjectE @6745 DATA
    _ZTCN3irr5scene22CSceneCollisionManagerE0_NS0_22ISceneCollisionManagerE @6746 DATA
    _ZTCN3irr5scene22CShadowVolumeSceneNodeE0_NS0_10ISceneNodeE @6747 DATA
    _ZTCN3irr5scene22CShadowVolumeSceneNodeE0_NS0_22IShadowVolumeSceneNodeE @6748 DATA
    _ZTCN3irr5scene22CShadowVolumeSceneNodeE0_NS_2io26IAttributeExchangingObjectE @6749 DATA
    _ZTCN3irr5scene22CWaterSurfaceSceneNodeE0_NS0_10ISceneNodeE @6750 DATA
    _ZTCN3irr5scene22CWaterSurfaceSceneNodeE0_NS0_14CMeshSceneNodeE @6751 DATA
    _ZTCN3irr5scene22CWaterSurfaceSceneNodeE0_NS0_14IMeshSceneNodeE @6752 DATA
    _ZTCN3irr5scene22CWaterSurfaceSceneNodeE0_NS_2io26IAttributeExchangingObjectE @6753 DATA
    _ZTCN3irr5scene22IAnimatedMeshSceneNodeE0_NS0_10ISceneNodeE @6754 DATA
    _ZTCN3irr5scene22IAnimatedMeshSceneNodeE0_NS_2io26IAttributeExchangingObjectE @6755 DATA
    _ZTCN3irr5scene22IParticleSphereEmitterE0_NS0_16IParticleEmitterE @6756 DATA
    _ZTCN3irr5scene22IParticleSphereEmitterE0_NS_2io26IAttributeExchangingObjectE @6757 DATA
    _ZTCN3irr5scene22IShadowVolumeSceneNodeE0_NS0_10ISceneNodeE @6758 DATA
    _ZTCN3irr5scene22IShadowVolumeSceneNodeE0_NS_2io26IAttributeExchangingObjectE @6759 DATA
    _ZTCN3irr5scene23CBillboardTextSceneNodeE0_NS0_10ISceneNodeE @6760 DATA
    _ZTCN3irr5scene23CBillboardTextSceneNodeE0_NS0_19IBillboardSceneNodeE @6761 DATA
    _ZTCN3irr5scene23CBillboardTextSceneNodeE0_NS0_23IBillboardTextSceneNodeE @6762 DATA
    _ZTCN3irr5scene23CBillboardTextSceneNodeE0_NS_2io26IAttributeExchangingObjectE @6763 DATA
    _ZTCN3irr5scene23COctreeTriangleSelectorE0_NS0_17CTriangleSelectorE @6764 DATA
    _ZTCN3irr5scene23COctreeTriangleSelectorE0_NS0_17ITriangleSelectorE @6765 DATA
    _ZTCN3irr5scene23IBillboardTextSceneNodeE0_NS0_10ISceneNodeE @6766 DATA
    _ZTCN3irr5scene23IBillboardTextSceneNodeE0_NS0_19IBillboardSceneNodeE @6767 DATA
    _ZTCN3irr5scene23IBillboardTextSceneNodeE0_NS_2io26IAttributeExchangingObjectE @6768 DATA
    _ZTCN3irr5scene24CDefaultSceneNodeFactoryE0_NS0_17ISceneNodeFactoryE @6769 DATA
    _ZTCN3irr5scene24CParticleCylinderEmitterE0_NS0_16IParticleEmitterE @6770 DATA
    _ZTCN3irr5scene24CParticleCylinderEmitterE0_NS0_24IParticleCylinderEmitterE @6771 DATA
    _ZTCN3irr5scene24CParticleCylinderEmitterE0_NS_2io26IAttributeExchangingObjectE @6772 DATA
    _ZTCN3irr5scene24CParticleFadeOutAffectorE0_NS0_17IParticleAffectorE @6773 DATA
    _ZTCN3irr5scene24CParticleFadeOutAffectorE0_NS0_24IParticleFadeOutAffectorE @6774 DATA
    _ZTCN3irr5scene24CParticleFadeOutAffectorE0_NS_2io26IAttributeExchangingObjectE @6775 DATA
    _ZTCN3irr5scene24CParticleGravityAffectorE0_NS0_17IParticleAffectorE @6776 DATA
    _ZTCN3irr5scene24CParticleGravityAffectorE0_NS0_24IParticleGravityAffectorE @6777 DATA
    _ZTCN3irr5scene24CParticleGravityAffectorE0_NS_2io26IAttributeExchangingObjectE @6778 DATA
    _ZTCN3irr5scene24CParticleSystemSceneNodeE0_NS0_10ISceneNodeE @6779 DATA
    _ZTCN3irr5scene24CParticleSystemSceneNodeE0_NS0_24IParticleSystemSceneNodeE @6780 DATA
    _ZTCN3irr5scene24CParticleSystemSceneNodeE0_NS_2io26IAttributeExchangingObjectE @6781 DATA
    _ZTCN3irr5scene24CSceneNodeAnimatorDeleteE0_NS0_18ISceneNodeAnimatorE @6782 DATA
    _ZTCN3irr5scene24CSceneNodeAnimatorDeleteE0_NS0_27ISceneNodeAnimatorFinishingE @6783 DATA
    _ZTCN3irr5scene24CSceneNodeAnimatorDeleteE0_NS_2io26IAttributeExchangingObjectE @6784 DATA
    _ZTCN3irr5scene24CTerrainTriangleSelectorE0_NS0_17ITriangleSelectorE @6785 DATA
    _ZTCN3irr5scene24IParticleCylinderEmitterE0_NS0_16IParticleEmitterE @6786 DATA
    _ZTCN3irr5scene24IParticleCylinderEmitterE0_NS_2io26IAttributeExchangingObjectE @6787 DATA
    _ZTCN3irr5scene24IParticleFadeOutAffectorE0_NS0_17IParticleAffectorE @6788 DATA
    _ZTCN3irr5scene24IParticleFadeOutAffectorE0_NS_2io26IAttributeExchangingObjectE @6789 DATA
    _ZTCN3irr5scene24IParticleGravityAffectorE0_NS0_17IParticleAffectorE @6790 DATA
